	.file	"tb_api.cpp"
	.text
.Ltext0:
	.file 0 "/home/manos/YCSB-C/cs647/assignment2" "tb_api.cpp"
	.section	.text._ZnwmPv,"axG",@progbits,_ZnwmPv,comdat
	.weak	_ZnwmPv
	.type	_ZnwmPv, @function
_ZnwmPv:
.LFB37:
	.file 1 "/usr/include/c++/11/new"
	.loc 1 175 1
	.cfi_startproc
	endbr64
	pushq	%rbp
	.cfi_def_cfa_offset 16
	.cfi_offset 6, -16
	movq	%rsp, %rbp
	.cfi_def_cfa_register 6
	movq	%rdi, -8(%rbp)
	movq	%rsi, -16(%rbp)
	.loc 1 175 10
	movq	-16(%rbp), %rax
	.loc 1 175 15
	popq	%rbp
	.cfi_def_cfa 7, 8
	ret
	.cfi_endproc
.LFE37:
	.size	_ZnwmPv, .-_ZnwmPv
	.section	.text._ZSt21is_constant_evaluatedv,"axG",@progbits,_ZSt21is_constant_evaluatedv,comdat
	.weak	_ZSt21is_constant_evaluatedv
	.type	_ZSt21is_constant_evaluatedv, @function
_ZSt21is_constant_evaluatedv:
.LFB75:
	.file 2 "/usr/include/c++/11/type_traits"
	.loc 2 3419 3
	.cfi_startproc
	endbr64
	pushq	%rbp
	.cfi_def_cfa_offset 16
	.cfi_offset 6, -16
	movq	%rsp, %rbp
	.cfi_def_cfa_register 6
	.loc 2 3419 44
	movl	$0, %eax
	.loc 2 3419 47
	popq	%rbp
	.cfi_def_cfa 7, 8
	ret
	.cfi_endproc
.LFE75:
	.size	_ZSt21is_constant_evaluatedv, .-_ZSt21is_constant_evaluatedv
	.local	_ZStL8__ioinit
	.comm	_ZStL8__ioinit,1,1
	.section	.text._ZSt3minImERKT_S2_S2_,"axG",@progbits,_ZSt3minImERKT_S2_S2_,comdat
	.weak	_ZSt3minImERKT_S2_S2_
	.type	_ZSt3minImERKT_S2_S2_, @function
_ZSt3minImERKT_S2_S2_:
.LFB4196:
	.file 3 "/usr/include/c++/11/bits/stl_algobase.h"
	.loc 3 230 5
	.cfi_startproc
	endbr64
	pushq	%rbp
	.cfi_def_cfa_offset 16
	.cfi_offset 6, -16
	movq	%rsp, %rbp
	.cfi_def_cfa_register 6
	movq	%rdi, -8(%rbp)
	movq	%rsi, -16(%rbp)
	.loc 3 235 15
	movq	-16(%rbp), %rax
	movq	(%rax), %rdx
	movq	-8(%rbp), %rax
	movq	(%rax), %rax
	.loc 3 235 7
	cmpq	%rax, %rdx
	jnb	.L6
	.loc 3 236 9
	movq	-16(%rbp), %rax
	jmp	.L7
.L6:
	.loc 3 237 14
	movq	-8(%rbp), %rax
.L7:
	.loc 3 238 5
	popq	%rbp
	.cfi_def_cfa 7, 8
	ret
	.cfi_endproc
.LFE4196:
	.size	_ZSt3minImERKT_S2_S2_, .-_ZSt3minImERKT_S2_S2_
	.section	.rodata
	.type	_ZN6__pstl9execution2v1L3seqE, @object
	.size	_ZN6__pstl9execution2v1L3seqE, 1
_ZN6__pstl9execution2v1L3seqE:
	.zero	1
	.type	_ZN6__pstl9execution2v1L3parE, @object
	.size	_ZN6__pstl9execution2v1L3parE, 1
_ZN6__pstl9execution2v1L3parE:
	.zero	1
	.type	_ZN6__pstl9execution2v1L9par_unseqE, @object
	.size	_ZN6__pstl9execution2v1L9par_unseqE, 1
_ZN6__pstl9execution2v1L9par_unseqE:
	.zero	1
	.type	_ZN6__pstl9execution2v1L5unseqE, @object
	.size	_ZN6__pstl9execution2v1L5unseqE, 1
_ZN6__pstl9execution2v1L5unseqE:
	.zero	1
	.align 4
	.type	_ZN9__gnu_cxxL21__default_lock_policyE, @object
	.size	_ZN9__gnu_cxxL21__default_lock_policyE, 4
_ZN9__gnu_cxxL21__default_lock_policyE:
	.long	2
	.align 8
	.type	_ZNSt8__detailL25__platform_wait_alignmentE, @object
	.size	_ZNSt8__detailL25__platform_wait_alignmentE, 8
_ZNSt8__detailL25__platform_wait_alignmentE:
	.quad	4
	.align 4
	.type	_ZNSt8__detailL21__atomic_spin_count_1E, @object
	.size	_ZNSt8__detailL21__atomic_spin_count_1E, 4
_ZNSt8__detailL21__atomic_spin_count_1E:
	.long	12
	.align 4
	.type	_ZNSt8__detailL21__atomic_spin_count_2E, @object
	.size	_ZNSt8__detailL21__atomic_spin_count_2E, 4
_ZNSt8__detailL21__atomic_spin_count_2E:
	.long	4
	.align 4
	.type	_ZNSt15regex_constantsL13error_collateE, @object
	.size	_ZNSt15regex_constantsL13error_collateE, 4
_ZNSt15regex_constantsL13error_collateE:
	.zero	4
	.align 4
	.type	_ZNSt15regex_constantsL11error_ctypeE, @object
	.size	_ZNSt15regex_constantsL11error_ctypeE, 4
_ZNSt15regex_constantsL11error_ctypeE:
	.long	1
	.align 4
	.type	_ZNSt15regex_constantsL12error_escapeE, @object
	.size	_ZNSt15regex_constantsL12error_escapeE, 4
_ZNSt15regex_constantsL12error_escapeE:
	.long	2
	.align 4
	.type	_ZNSt15regex_constantsL13error_backrefE, @object
	.size	_ZNSt15regex_constantsL13error_backrefE, 4
_ZNSt15regex_constantsL13error_backrefE:
	.long	3
	.align 4
	.type	_ZNSt15regex_constantsL11error_brackE, @object
	.size	_ZNSt15regex_constantsL11error_brackE, 4
_ZNSt15regex_constantsL11error_brackE:
	.long	4
	.align 4
	.type	_ZNSt15regex_constantsL11error_parenE, @object
	.size	_ZNSt15regex_constantsL11error_parenE, 4
_ZNSt15regex_constantsL11error_parenE:
	.long	5
	.align 4
	.type	_ZNSt15regex_constantsL11error_braceE, @object
	.size	_ZNSt15regex_constantsL11error_braceE, 4
_ZNSt15regex_constantsL11error_braceE:
	.long	6
	.align 4
	.type	_ZNSt15regex_constantsL14error_badbraceE, @object
	.size	_ZNSt15regex_constantsL14error_badbraceE, 4
_ZNSt15regex_constantsL14error_badbraceE:
	.long	7
	.align 4
	.type	_ZNSt15regex_constantsL11error_rangeE, @object
	.size	_ZNSt15regex_constantsL11error_rangeE, 4
_ZNSt15regex_constantsL11error_rangeE:
	.long	8
	.align 4
	.type	_ZNSt15regex_constantsL11error_spaceE, @object
	.size	_ZNSt15regex_constantsL11error_spaceE, 4
_ZNSt15regex_constantsL11error_spaceE:
	.long	9
	.align 4
	.type	_ZNSt15regex_constantsL15error_badrepeatE, @object
	.size	_ZNSt15regex_constantsL15error_badrepeatE, 4
_ZNSt15regex_constantsL15error_badrepeatE:
	.long	10
	.align 4
	.type	_ZNSt15regex_constantsL16error_complexityE, @object
	.size	_ZNSt15regex_constantsL16error_complexityE, 4
_ZNSt15regex_constantsL16error_complexityE:
	.long	11
	.align 4
	.type	_ZNSt15regex_constantsL11error_stackE, @object
	.size	_ZNSt15regex_constantsL11error_stackE, 4
_ZNSt15regex_constantsL11error_stackE:
	.long	12
	.align 8
	.type	_ZNSt8__detailL19_S_invalid_state_idE, @object
	.size	_ZNSt8__detailL19_S_invalid_state_idE, 8
_ZNSt8__detailL19_S_invalid_state_idE:
	.quad	-1
	.section	.text._ZN8Tinyblob5indexEv,"axG",@progbits,_ZN8Tinyblob5indexEv,comdat
	.align 2
	.weak	_ZN8Tinyblob5indexEv
	.type	_ZN8Tinyblob5indexEv, @function
_ZN8Tinyblob5indexEv:
.LFB11517:
	.file 4 "tb.hpp"
	.loc 4 49 19
	.cfi_startproc
	endbr64
	pushq	%rbp
	.cfi_def_cfa_offset 16
	.cfi_offset 6, -16
	movq	%rsp, %rbp
	.cfi_def_cfa_register 6
	movq	%rdi, -8(%rbp)
	.loc 4 50 18
	movq	-8(%rbp), %rax
	movl	(%rax), %eax
	.loc 4 51 3
	popq	%rbp
	.cfi_def_cfa 7, 8
	ret
	.cfi_endproc
.LFE11517:
	.size	_ZN8Tinyblob5indexEv, .-_ZN8Tinyblob5indexEv
	.section	.text._ZN8Tinyblob2fdEv,"axG",@progbits,_ZN8Tinyblob2fdEv,comdat
	.align 2
	.weak	_ZN8Tinyblob2fdEv
	.type	_ZN8Tinyblob2fdEv, @function
_ZN8Tinyblob2fdEv:
.LFB11519:
	.loc 4 57 14
	.cfi_startproc
	endbr64
	pushq	%rbp
	.cfi_def_cfa_offset 16
	.cfi_offset 6, -16
	movq	%rsp, %rbp
	.cfi_def_cfa_register 6
	movq	%rdi, -8(%rbp)
	.loc 4 58 11
	movq	-8(%rbp), %rax
	movl	4(%rax), %eax
	.loc 4 59 3
	popq	%rbp
	.cfi_def_cfa 7, 8
	ret
	.cfi_endproc
.LFE11519:
	.size	_ZN8Tinyblob2fdEv, .-_ZN8Tinyblob2fdEv
	.section	.text._ZN8Tinyblob8cnt_blobEv,"axG",@progbits,_ZN8Tinyblob8cnt_blobEv,comdat
	.weak	_ZN8Tinyblob8cnt_blobEv
	.type	_ZN8Tinyblob8cnt_blobEv, @function
_ZN8Tinyblob8cnt_blobEv:
.LFB11522:
	.loc 4 81 26
	.cfi_startproc
	endbr64
	pushq	%rbp
	.cfi_def_cfa_offset 16
	.cfi_offset 6, -16
	movq	%rsp, %rbp
	.cfi_def_cfa_register 6
	.loc 4 82 11
	movl	_ZN8Tinyblob10__cnt_blobE(%rip), %eax
	.loc 4 83 3
	popq	%rbp
	.cfi_def_cfa 7, 8
	ret
	.cfi_endproc
.LFE11522:
	.size	_ZN8Tinyblob8cnt_blobEv, .-_ZN8Tinyblob8cnt_blobEv
	.section	.text._ZN8Tinyblob9setOffsetEj,"axG",@progbits,_ZN8Tinyblob9setOffsetEj,comdat
	.align 2
	.weak	_ZN8Tinyblob9setOffsetEj
	.type	_ZN8Tinyblob9setOffsetEj, @function
_ZN8Tinyblob9setOffsetEj:
.LFB11525:
	.loc 4 95 15
	.cfi_startproc
	endbr64
	pushq	%rbp
	.cfi_def_cfa_offset 16
	.cfi_offset 6, -16
	movq	%rsp, %rbp
	.cfi_def_cfa_register 6
	movq	%rdi, -8(%rbp)
	movl	%esi, -12(%rbp)
	.loc 4 96 13
	movq	-8(%rbp), %rax
	movl	-12(%rbp), %edx
	movl	%edx, 40(%rax)
	.loc 4 97 3
	nop
	popq	%rbp
	.cfi_def_cfa 7, 8
	ret
	.cfi_endproc
.LFE11525:
	.size	_ZN8Tinyblob9setOffsetEj, .-_ZN8Tinyblob9setOffsetEj
	.section	.text._ZN8Tinyblob6offsetEv,"axG",@progbits,_ZN8Tinyblob6offsetEv,comdat
	.align 2
	.weak	_ZN8Tinyblob6offsetEv
	.type	_ZN8Tinyblob6offsetEv, @function
_ZN8Tinyblob6offsetEv:
.LFB11526:
	.loc 4 99 19
	.cfi_startproc
	endbr64
	pushq	%rbp
	.cfi_def_cfa_offset 16
	.cfi_offset 6, -16
	movq	%rsp, %rbp
	.cfi_def_cfa_register 6
	movq	%rdi, -8(%rbp)
	.loc 4 100 11
	movq	-8(%rbp), %rax
	movl	40(%rax), %eax
	.loc 4 101 3
	popq	%rbp
	.cfi_def_cfa 7, 8
	ret
	.cfi_endproc
.LFE11526:
	.size	_ZN8Tinyblob6offsetEv, .-_ZN8Tinyblob6offsetEv
	.globl	mode
	.bss
	.align 4
	.type	mode, @object
	.size	mode, 4
mode:
	.zero	4
	.globl	nprocs
	.align 4
	.type	nprocs, @object
	.size	nprocs, 4
nprocs:
	.zero	4
	.globl	blob_size
	.align 4
	.type	blob_size, @object
	.size	blob_size, 4
blob_size:
	.zero	4
	.globl	io_size
	.align 4
	.type	io_size, @object
	.size	io_size, 4
io_size:
	.zero	4
	.globl	raw_size
	.align 4
	.type	raw_size, @object
	.size	raw_size, 4
raw_size:
	.zero	4
	.globl	global_dev_offset
	.align 4
	.type	global_dev_offset, @object
	.size	global_dev_offset, 4
global_dev_offset:
	.zero	4
	.section	.text._ZNSt12_Vector_baseIP8TinyblobSaIS1_EE12_Vector_implD2Ev,"axG",@progbits,_ZNSt12_Vector_baseIP8TinyblobSaIS1_EE12_Vector_implD5Ev,comdat
	.align 2
	.weak	_ZNSt12_Vector_baseIP8TinyblobSaIS1_EE12_Vector_implD2Ev
	.type	_ZNSt12_Vector_baseIP8TinyblobSaIS1_EE12_Vector_implD2Ev, @function
_ZNSt12_Vector_baseIP8TinyblobSaIS1_EE12_Vector_implD2Ev:
.LFB11532:
	.file 5 "/usr/include/c++/11/bits/stl_vector.h"
	.loc 5 128 14
	.cfi_startproc
	endbr64
	pushq	%rbp
	.cfi_def_cfa_offset 16
	.cfi_offset 6, -16
	movq	%rsp, %rbp
	.cfi_def_cfa_register 6
	subq	$16, %rsp
	movq	%rdi, -8(%rbp)
.LBB6:
	.loc 5 128 14
	movq	-8(%rbp), %rax
	movq	%rax, %rdi
	call	_ZNSaIP8TinyblobED2Ev
.LBE6:
	nop
	leave
	.cfi_def_cfa 7, 8
	ret
	.cfi_endproc
.LFE11532:
	.size	_ZNSt12_Vector_baseIP8TinyblobSaIS1_EE12_Vector_implD2Ev, .-_ZNSt12_Vector_baseIP8TinyblobSaIS1_EE12_Vector_implD2Ev
	.weak	_ZNSt12_Vector_baseIP8TinyblobSaIS1_EE12_Vector_implD1Ev
	.set	_ZNSt12_Vector_baseIP8TinyblobSaIS1_EE12_Vector_implD1Ev,_ZNSt12_Vector_baseIP8TinyblobSaIS1_EE12_Vector_implD2Ev
	.section	.text._ZNSt12_Vector_baseIP8TinyblobSaIS1_EEC2Ev,"axG",@progbits,_ZNSt12_Vector_baseIP8TinyblobSaIS1_EEC5Ev,comdat
	.align 2
	.weak	_ZNSt12_Vector_baseIP8TinyblobSaIS1_EEC2Ev
	.type	_ZNSt12_Vector_baseIP8TinyblobSaIS1_EEC2Ev, @function
_ZNSt12_Vector_baseIP8TinyblobSaIS1_EEC2Ev:
.LFB11534:
	.loc 5 288 7
	.cfi_startproc
	endbr64
	pushq	%rbp
	.cfi_def_cfa_offset 16
	.cfi_offset 6, -16
	movq	%rsp, %rbp
	.cfi_def_cfa_register 6
	subq	$16, %rsp
	movq	%rdi, -8(%rbp)
.LBB7:
	.loc 5 288 7
	movq	-8(%rbp), %rax
	movq	%rax, %rdi
	call	_ZNSt12_Vector_baseIP8TinyblobSaIS1_EE12_Vector_implC1Ev
.LBE7:
	nop
	leave
	.cfi_def_cfa 7, 8
	ret
	.cfi_endproc
.LFE11534:
	.size	_ZNSt12_Vector_baseIP8TinyblobSaIS1_EEC2Ev, .-_ZNSt12_Vector_baseIP8TinyblobSaIS1_EEC2Ev
	.weak	_ZNSt12_Vector_baseIP8TinyblobSaIS1_EEC1Ev
	.set	_ZNSt12_Vector_baseIP8TinyblobSaIS1_EEC1Ev,_ZNSt12_Vector_baseIP8TinyblobSaIS1_EEC2Ev
	.section	.text._ZNSt6vectorIP8TinyblobSaIS1_EEC2Ev,"axG",@progbits,_ZNSt6vectorIP8TinyblobSaIS1_EEC5Ev,comdat
	.align 2
	.weak	_ZNSt6vectorIP8TinyblobSaIS1_EEC2Ev
	.type	_ZNSt6vectorIP8TinyblobSaIS1_EEC2Ev, @function
_ZNSt6vectorIP8TinyblobSaIS1_EEC2Ev:
.LFB11536:
	.loc 5 487 7
	.cfi_startproc
	endbr64
	pushq	%rbp
	.cfi_def_cfa_offset 16
	.cfi_offset 6, -16
	movq	%rsp, %rbp
	.cfi_def_cfa_register 6
	subq	$16, %rsp
	movq	%rdi, -8(%rbp)
.LBB8:
	.loc 5 487 7
	movq	-8(%rbp), %rax
	movq	%rax, %rdi
	call	_ZNSt12_Vector_baseIP8TinyblobSaIS1_EEC2Ev
.LBE8:
	nop
	leave
	.cfi_def_cfa 7, 8
	ret
	.cfi_endproc
.LFE11536:
	.size	_ZNSt6vectorIP8TinyblobSaIS1_EEC2Ev, .-_ZNSt6vectorIP8TinyblobSaIS1_EEC2Ev
	.weak	_ZNSt6vectorIP8TinyblobSaIS1_EEC1Ev
	.set	_ZNSt6vectorIP8TinyblobSaIS1_EEC1Ev,_ZNSt6vectorIP8TinyblobSaIS1_EEC2Ev
	.globl	blobs
	.bss
	.align 16
	.type	blobs, @object
	.size	blobs, 24
blobs:
	.zero	24
	.globl	lock
	.align 32
	.type	lock, @object
	.size	lock, 40
lock:
	.zero	40
	.globl	barrier
	.align 32
	.type	barrier, @object
	.size	barrier, 32
barrier:
	.zero	32
	.section	.rodata
.LC0:
	.string	"device/raw/file.txt"
	.text
	.globl	_Z16tb_allocate_blobv
	.type	_Z16tb_allocate_blobv, @function
_Z16tb_allocate_blobv:
.LFB11538:
	.file 6 "tb_api.cpp"
	.loc 6 9 23
	.cfi_startproc
	.cfi_personality 0x9b,DW.ref.__gxx_personality_v0
	.cfi_lsda 0x1b,.LLSDA11538
	endbr64
	pushq	%rbp
	.cfi_def_cfa_offset 16
	.cfi_offset 6, -16
	movq	%rsp, %rbp
	.cfi_def_cfa_register 6
	pushq	%r12
	pushq	%rbx
	subq	$32, %rsp
	.cfi_offset 12, -24
	.cfi_offset 3, -32
	.loc 6 9 23
	movq	%fs:40, %rax
	movq	%rax, -24(%rbp)
	xorl	%eax, %eax
	.loc 6 10 37
	movl	$80, %edi
.LEHB0:
	call	_Znwm@PLT
.LEHE0:
	movq	%rax, %rbx
	movq	%rbx, %rdi
.LEHB1:
	call	_ZN8TinyblobC1Ev@PLT
.LEHE1:
	movq	%rbx, -32(%rbp)
	.loc 6 11 27
	leaq	lock(%rip), %rax
	movq	%rax, %rdi
	call	pthread_mutex_lock@PLT
	.loc 6 12 24
	leaq	-32(%rbp), %rax
	movq	%rax, %rsi
	leaq	blobs(%rip), %rax
	movq	%rax, %rdi
.LEHB2:
	call	_ZNSt6vectorIP8TinyblobSaIS1_EE9push_backERKS1_
	.loc 6 13 29
	leaq	lock(%rip), %rax
	movq	%rax, %rdi
	call	pthread_mutex_unlock@PLT
.LBB9:
	.loc 6 14 5
	movl	mode(%rip), %eax
	.loc 6 14 2
	testl	%eax, %eax
	jne	.L21
.LBB10:
	.loc 6 15 13
	movq	-32(%rbp), %rax
	movq	%rax, %rdi
	call	_ZN8Tinyblob6__openEv@PLT
	.loc 6 16 12
	movq	-32(%rbp), %rax
	movq	%rax, %rdi
	call	_ZN8Tinyblob2fdEv
	.loc 6 16 15
	shrl	$31, %eax
	.loc 6 16 3
	testb	%al, %al
	je	.L22
	.loc 6 17 19
	movq	-32(%rbp), %rax
	movq	%rax, %rdi
	call	_ZN8Tinyblob5indexEv
	.loc 6 17 21
	movl	%eax, %eax
	movq	%rax, %rsi
	leaq	blobs(%rip), %rax
	movq	%rax, %rdi
	call	_ZNSt6vectorIP8TinyblobSaIS1_EEixEm
	.loc 6 17 24
	movq	(%rax), %rax
	movq	64(%rax), %rax
	.loc 6 17 35
	movl	$-1, 16(%rax)
	.loc 6 18 12
	movl	$-1, %eax
	jmp	.L29
.L22:
	.loc 6 20 20
	movl	blob_size(%rip), %eax
	movl	%eax, %ebx
	movq	-32(%rbp), %rax
	movq	%rax, %rdi
	call	_ZN8Tinyblob2fdEv
	movq	%rbx, %rcx
	movl	$0, %edx
	movl	$0, %esi
	movl	%eax, %edi
	call	fallocate@PLT
	movl	%eax, -36(%rbp)
	.loc 6 21 3
	cmpl	$0, -36(%rbp)
	jns	.L24
	.loc 6 22 40
	movq	-32(%rbp), %rax
	movq	%rax, %rdi
	call	_ZN8Tinyblob5indexEv
	.loc 6 22 42
	movl	%eax, %eax
	movq	%rax, %rsi
	leaq	blobs(%rip), %rax
	movq	%rax, %rdi
	call	_ZNSt6vectorIP8TinyblobSaIS1_EEixEm
	.loc 6 22 45
	movq	(%rax), %rax
	movq	64(%rax), %rax
	.loc 6 22 56
	movl	$-1, 16(%rax)
	.loc 6 23 33
	movl	$-1, %eax
	jmp	.L29
.L24:
	.loc 6 25 23
	leaq	barrier(%rip), %rax
	movq	%rax, %rdi
	call	pthread_barrier_wait@PLT
	.loc 6 26 45
	movq	-32(%rbp), %rax
	movq	%rax, %rdi
	call	_ZN8Tinyblob5indexEv
	movl	%eax, %ebx
	.loc 6 26 18
	movq	-32(%rbp), %rax
	movq	%rax, %rdi
	call	_ZN8Tinyblob5indexEv
	.loc 6 26 20
	movl	%eax, %eax
	movq	%rax, %rsi
	leaq	blobs(%rip), %rax
	movq	%rax, %rdi
	call	_ZNSt6vectorIP8TinyblobSaIS1_EEixEm
	.loc 6 26 23
	movq	(%rax), %rax
	movq	64(%rax), %rax
	.loc 6 26 34
	movl	%ebx, 16(%rax)
	.loc 6 27 19
	movq	-32(%rbp), %rax
	movq	%rax, %rdi
	call	_ZN8Tinyblob5indexEv
	.loc 6 27 20
	jmp	.L29
.L21:
.LBE10:
.LBE9:
	.loc 6 29 20
	leaq	lock(%rip), %rax
	movq	%rax, %rdi
	call	pthread_mutex_lock@PLT
	.loc 6 30 12
	movq	-32(%rbp), %rax
	leaq	.LC0(%rip), %rdx
	movq	%rdx, %rsi
	movq	%rax, %rdi
	call	_ZN8Tinyblob6__openEPc@PLT
	.loc 6 32 19
	movl	$0, %esi
	leaq	.LC0(%rip), %rax
	movq	%rax, %rdi
	call	access@PLT
	.loc 6 32 54
	testl	%eax, %eax
	jne	.L25
	.loc 6 32 61 discriminator 1
	movq	-32(%rbp), %rax
	movl	60(%rax), %eax
	.loc 6 32 54 discriminator 1
	testl	%eax, %eax
	je	.L25
	.loc 6 32 54 is_stmt 0 discriminator 3
	movl	$1, %eax
	jmp	.L26
.L25:
	.loc 6 32 54 discriminator 4
	movl	$0, %eax
.L26:
	.loc 6 32 9 is_stmt 1 discriminator 6
	testb	%al, %al
	je	.L27
	.loc 6 33 56
	movl	raw_size(%rip), %eax
	sall	$20, %eax
	.loc 6 33 23
	movl	%eax, %ebx
	movq	-32(%rbp), %rax
	movq	%rax, %rdi
	call	_ZN8Tinyblob2fdEv
	movq	%rbx, %rcx
	movl	$0, %edx
	movl	$0, %esi
	movl	%eax, %edi
	call	fallocate@PLT
	movl	%eax, -40(%rbp)
.L27:
	.loc 6 35 11
	movq	-32(%rbp), %rax
	movq	%rax, %rdi
	call	_ZN8Tinyblob2fdEv
	.loc 6 35 14
	shrl	$31, %eax
	.loc 6 35 2
	testb	%al, %al
	je	.L28
	.loc 6 36 18
	movq	-32(%rbp), %rax
	movq	%rax, %rdi
	call	_ZN8Tinyblob5indexEv
	.loc 6 36 20
	movl	%eax, %eax
	movq	%rax, %rsi
	leaq	blobs(%rip), %rax
	movq	%rax, %rdi
	call	_ZNSt6vectorIP8TinyblobSaIS1_EEixEm
	.loc 6 36 23
	movq	(%rax), %rax
	movq	64(%rax), %rax
	.loc 6 36 34
	movl	$-1, 16(%rax)
	.loc 6 37 11
	movl	$-1, %eax
	jmp	.L29
.L28:
	.loc 6 39 22
	movq	-32(%rbp), %rax
	movl	global_dev_offset(%rip), %edx
	movl	%edx, %esi
	movq	%rax, %rdi
	call	_ZN8Tinyblob9setOffsetEj
	.loc 6 40 27
	movl	global_dev_offset(%rip), %edx
	movl	blob_size(%rip), %eax
	addl	%edx, %eax
	movl	%eax, global_dev_offset(%rip)
	.loc 6 41 22
	leaq	lock(%rip), %rax
	movq	%rax, %rdi
	call	pthread_mutex_unlock@PLT
	.loc 6 42 22
	leaq	barrier(%rip), %rax
	movq	%rax, %rdi
	call	pthread_barrier_wait@PLT
	.loc 6 43 44
	movq	-32(%rbp), %rax
	movq	%rax, %rdi
	call	_ZN8Tinyblob5indexEv
	movl	%eax, %ebx
	.loc 6 43 17
	movq	-32(%rbp), %rax
	movq	%rax, %rdi
	call	_ZN8Tinyblob5indexEv
	.loc 6 43 19
	movl	%eax, %eax
	movq	%rax, %rsi
	leaq	blobs(%rip), %rax
	movq	%rax, %rdi
	call	_ZNSt6vectorIP8TinyblobSaIS1_EEixEm
	.loc 6 43 22
	movq	(%rax), %rax
	movq	64(%rax), %rax
	.loc 6 43 33
	movl	%ebx, 16(%rax)
	.loc 6 44 18
	movq	-32(%rbp), %rax
	movq	%rax, %rdi
	call	_ZN8Tinyblob5indexEv
.L29:
	.loc 6 45 1 discriminator 2
	movq	-24(%rbp), %rdx
	subq	%fs:40, %rdx
	je	.L31
	jmp	.L33
.L32:
	endbr64
	.loc 6 10 37
	movq	%rax, %r12
	movl	$80, %esi
	movq	%rbx, %rdi
	call	_ZdlPvm@PLT
	movq	%r12, %rax
	movq	%rax, %rdi
	call	_Unwind_Resume@PLT
.LEHE2:
.L33:
	.loc 6 45 1
	call	__stack_chk_fail@PLT
.L31:
	addq	$32, %rsp
	popq	%rbx
	popq	%r12
	popq	%rbp
	.cfi_def_cfa 7, 8
	ret
	.cfi_endproc
.LFE11538:
	.globl	__gxx_personality_v0
	.section	.gcc_except_table,"a",@progbits
.LLSDA11538:
	.byte	0xff
	.byte	0xff
	.byte	0x1
	.uleb128 .LLSDACSE11538-.LLSDACSB11538
.LLSDACSB11538:
	.uleb128 .LEHB0-.LFB11538
	.uleb128 .LEHE0-.LEHB0
	.uleb128 0
	.uleb128 0
	.uleb128 .LEHB1-.LFB11538
	.uleb128 .LEHE1-.LEHB1
	.uleb128 .L32-.LFB11538
	.uleb128 0
	.uleb128 .LEHB2-.LFB11538
	.uleb128 .LEHE2-.LEHB2
	.uleb128 0
	.uleb128 0
.LLSDACSE11538:
	.text
	.size	_Z16tb_allocate_blobv, .-_Z16tb_allocate_blobv
	.section	.rodata
.LC1:
	.string	"posix_memalign failed!"
.LC2:
	.string	"0"
	.text
	.globl	_Z12tb_free_blobi
	.type	_Z12tb_free_blobi, @function
_Z12tb_free_blobi:
.LFB11539:
	.loc 6 47 29
	.cfi_startproc
	endbr64
	pushq	%rbp
	.cfi_def_cfa_offset 16
	.cfi_offset 6, -16
	movq	%rsp, %rbp
	.cfi_def_cfa_register 6
	pushq	%r12
	pushq	%rbx
	subq	$48, %rsp
	.cfi_offset 12, -24
	.cfi_offset 3, -32
	movl	%edi, -52(%rbp)
	.loc 6 47 29
	movq	%fs:40, %rax
	movq	%rax, -24(%rbp)
	xorl	%eax, %eax
	.loc 6 49 26
	movl	blob_size(%rip), %eax
	movl	%eax, %edx
	leaq	-32(%rbp), %rax
	movl	$512, %esi
	movq	%rax, %rdi
	call	posix_memalign@PLT
	testl	%eax, %eax
	setne	%al
	.loc 6 49 9
	testb	%al, %al
	je	.L35
	.loc 6 50 30
	leaq	.LC1(%rip), %rax
	movq	%rax, %rsi
	leaq	_ZSt4cout(%rip), %rax
	movq	%rax, %rdi
	call	_ZStlsISt11char_traitsIcEERSt13basic_ostreamIcT_ES5_PKc@PLT
	.loc 6 50 63
	movq	_ZSt4endlIcSt11char_traitsIcEERSt13basic_ostreamIT_T0_ES6_@GOTPCREL(%rip), %rdx
	movq	%rdx, %rsi
	movq	%rax, %rdi
	call	_ZNSolsEPFRSoS_E@PLT
.L35:
.LBB11:
	.loc 6 51 5
	movl	mode(%rip), %eax
	.loc 6 51 2
	testl	%eax, %eax
	jne	.L36
.LBB12:
.LBB13:
	.loc 6 52 17
	movl	-52(%rbp), %eax
	cltq
	movq	%rax, %rsi
	leaq	blobs(%rip), %rax
	movq	%rax, %rdi
	call	_ZNSt6vectorIP8TinyblobSaIS1_EEixEm
	.loc 6 52 22
	movq	(%rax), %rax
	movq	%rax, %rdi
	call	_ZN8Tinyblob2fdEv
	.loc 6 52 25
	notl	%eax
	shrl	$31, %eax
	.loc 6 52 3
	testb	%al, %al
	je	.L36
.LBB14:
.LBB15:
	.loc 6 53 18
	cmpl	$0, -52(%rbp)
	js	.L37
	.loc 6 53 48 discriminator 1
	call	_ZN8Tinyblob8cnt_blobEv
	.loc 6 53 21 discriminator 1
	movl	-52(%rbp), %edx
	.loc 6 53 18 discriminator 1
	cmpl	%edx, %eax
	jb	.L37
	.loc 6 53 18 is_stmt 0 discriminator 3
	movl	$1, %eax
	jmp	.L38
.L37:
	.loc 6 53 18 discriminator 4
	movl	$0, %eax
.L38:
	.loc 6 53 4 is_stmt 1 discriminator 6
	testb	%al, %al
	je	.L36
.LBB16:
	.loc 6 54 23
	leaq	lock(%rip), %rax
	movq	%rax, %rdi
	call	pthread_mutex_lock@PLT
	.loc 6 55 32
	movq	-32(%rbp), %rax
	movl	$2, %edx
	leaq	.LC2(%rip), %rcx
	movq	%rcx, %rsi
	movq	%rax, %rdi
	call	memcpy@PLT
	.loc 6 56 25
	leaq	lock(%rip), %rax
	movq	%rax, %rdi
	call	pthread_mutex_unlock@PLT
	.loc 6 57 40
	movl	blob_size(%rip), %eax
	movl	%eax, %r12d
	movq	-32(%rbp), %rbx
	.loc 6 57 52
	movl	-52(%rbp), %eax
	cltq
	movq	%rax, %rsi
	leaq	blobs(%rip), %rax
	movq	%rax, %rdi
	call	_ZNSt6vectorIP8TinyblobSaIS1_EEixEm
	.loc 6 57 40
	movq	(%rax), %rax
	movq	%rax, %rdi
	call	_ZN8Tinyblob2fdEv
	movl	$0, %ecx
	movq	%r12, %rdx
	movq	%rbx, %rsi
	movl	%eax, %edi
	call	pwrite@PLT
	.loc 6 57 99
	movl	%eax, -36(%rbp)
	.loc 6 58 14
	movl	blob_size(%rip), %eax
	movl	%eax, %ebx
	.loc 6 58 26
	movl	-52(%rbp), %eax
	cltq
	movq	%rax, %rsi
	leaq	blobs(%rip), %rax
	movq	%rax, %rdi
	call	_ZNSt6vectorIP8TinyblobSaIS1_EEixEm
	.loc 6 58 14
	movq	(%rax), %rax
	movq	%rax, %rdi
	call	_ZN8Tinyblob2fdEv
	movq	%rbx, %rcx
	movl	$0, %edx
	movl	$2, %esi
	movl	%eax, %edi
	call	fallocate@PLT
	.loc 6 59 16
	movl	-52(%rbp), %eax
	cltq
	movq	%rax, %rsi
	leaq	blobs(%rip), %rax
	movq	%rax, %rdi
	call	_ZNSt6vectorIP8TinyblobSaIS1_EEixEm
	.loc 6 59 19
	movq	(%rax), %rax
	.loc 6 59 26
	movb	$1, 72(%rax)
	.loc 6 60 16
	movl	-52(%rbp), %eax
	cltq
	movq	%rax, %rsi
	leaq	blobs(%rip), %rax
	movq	%rax, %rdi
	call	_ZNSt6vectorIP8TinyblobSaIS1_EEixEm
	.loc 6 60 26
	movq	(%rax), %rax
	movq	%rax, %rdi
	call	_ZN8Tinyblob7__closeEv@PLT
.L36:
.LBE16:
.LBE15:
.LBE14:
.LBE13:
.LBE12:
.LBE11:
	.loc 6 63 23
	movl	-52(%rbp), %eax
	cltq
	movq	%rax, %rsi
	leaq	blobs(%rip), %rax
	movq	%rax, %rdi
	call	_ZNSt6vectorIP8TinyblobSaIS1_EEixEm
	.loc 6 63 28
	movq	(%rax), %rax
	movq	%rax, %rdi
	call	_ZN8Tinyblob2fdEv
	.loc 6 63 31
	notl	%eax
	shrl	$31, %eax
	.loc 6 63 9
	testb	%al, %al
	je	.L43
	.loc 6 64 31
	cmpl	$0, -52(%rbp)
	js	.L40
	.loc 6 64 61 discriminator 1
	call	_ZN8Tinyblob8cnt_blobEv
	.loc 6 64 34 discriminator 1
	movl	-52(%rbp), %edx
	.loc 6 64 31 discriminator 1
	cmpl	%edx, %eax
	jb	.L40
	.loc 6 64 31 is_stmt 0 discriminator 3
	movl	$1, %eax
	jmp	.L41
.L40:
	.loc 6 64 31 discriminator 4
	movl	$0, %eax
.L41:
	.loc 6 64 17 is_stmt 1 discriminator 6
	testb	%al, %al
	je	.L43
	.loc 6 65 36
	movl	-52(%rbp), %eax
	cltq
	movq	%rax, %rsi
	leaq	blobs(%rip), %rax
	movq	%rax, %rdi
	call	_ZNSt6vectorIP8TinyblobSaIS1_EEixEm
	.loc 6 65 46
	movq	(%rax), %rax
	movq	%rax, %rdi
	call	_ZN8Tinyblob7__closeEv@PLT
.L43:
	.loc 6 66 1
	nop
	movq	-24(%rbp), %rax
	subq	%fs:40, %rax
	je	.L42
	call	__stack_chk_fail@PLT
.L42:
	addq	$48, %rsp
	popq	%rbx
	popq	%r12
	popq	%rbp
	.cfi_def_cfa 7, 8
	ret
	.cfi_endproc
.LFE11539:
	.size	_Z12tb_free_blobi, .-_Z12tb_free_blobi
	.local	_ZZ13tb_write_blobiPvE17global_dev_offset
	.comm	_ZZ13tb_write_blobiPvE17global_dev_offset,4,4
	.section	.rodata
.LC3:
	.string	"1"
.LC4:
	.string	"read failed!"
	.text
	.globl	_Z13tb_write_blobiPv
	.type	_Z13tb_write_blobiPv, @function
_Z13tb_write_blobiPv:
.LFB11540:
	.loc 6 68 41
	.cfi_startproc
	.cfi_personality 0x9b,DW.ref.__gxx_personality_v0
	.cfi_lsda 0x1b,.LLSDA11540
	endbr64
	pushq	%rbp
	.cfi_def_cfa_offset 16
	.cfi_offset 6, -16
	movq	%rsp, %rbp
	.cfi_def_cfa_register 6
	pushq	%r13
	pushq	%r12
	pushq	%rbx
	subq	$72, %rsp
	.cfi_offset 13, -24
	.cfi_offset 12, -32
	.cfi_offset 3, -40
	movl	%edi, -84(%rbp)
	movq	%rsi, -96(%rbp)
	.loc 6 68 41
	movq	%fs:40, %rax
	movq	%rax, -40(%rbp)
	xorl	%eax, %eax
	.loc 6 71 19
	movl	blob_size(%rip), %eax
	movl	%eax, %edx
	leaq	-56(%rbp), %rax
	movl	$512, %esi
	movq	%rax, %rdi
	call	posix_memalign@PLT
	testl	%eax, %eax
	setne	%al
	.loc 6 71 2
	testb	%al, %al
	je	.L45
	.loc 6 72 16
	leaq	.LC1(%rip), %rax
	movq	%rax, %rsi
	leaq	_ZSt4cout(%rip), %rax
	movq	%rax, %rdi
.LEHB3:
	call	_ZStlsISt11char_traitsIcEERSt13basic_ostreamIcT_ES5_PKc@PLT
	.loc 6 72 49
	movq	_ZSt4endlIcSt11char_traitsIcEERSt13basic_ostreamIT_T0_ES6_@GOTPCREL(%rip), %rdx
	movq	%rdx, %rsi
	movq	%rax, %rdi
	call	_ZNSolsEPFRSoS_E@PLT
.L45:
.LBB17:
	.loc 6 73 12
	movl	mode(%rip), %eax
	.loc 6 73 9
	testl	%eax, %eax
	jne	.L46
.LBB18:
	.loc 6 74 17
	movl	-84(%rbp), %eax
	cltq
	movq	%rax, %rsi
	leaq	blobs(%rip), %rax
	movq	%rax, %rdi
	call	_ZNSt6vectorIP8TinyblobSaIS1_EEixEm
	.loc 6 74 20
	movq	(%rax), %rax
	movl	56(%rax), %eax
	testl	%eax, %eax
	setne	%al
	.loc 6 74 3
	testb	%al, %al
	je	.L47
	.loc 6 75 9
	movl	blob_size(%rip), %eax
	movl	%eax, %r12d
	movq	-56(%rbp), %rbx
	.loc 6 75 21
	movl	-84(%rbp), %eax
	cltq
	movq	%rax, %rsi
	leaq	blobs(%rip), %rax
	movq	%rax, %rdi
	call	_ZNSt6vectorIP8TinyblobSaIS1_EEixEm
	.loc 6 75 9
	movq	(%rax), %rax
	movq	%rax, %rdi
	call	_ZN8Tinyblob2fdEv
	movl	$0, %ecx
	movq	%r12, %rdx
	movq	%rbx, %rsi
	movl	%eax, %edi
	call	pread@PLT
	.loc 6 76 17
	movq	-56(%rbp), %rax
	movzbl	(%rax), %eax
	.loc 6 76 4
	cmpb	$49, %al
	je	.L47
	.loc 6 77 16
	movl	-84(%rbp), %eax
	cltq
	movq	%rax, %rsi
	leaq	blobs(%rip), %rax
	movq	%rax, %rdi
	call	_ZNSt6vectorIP8TinyblobSaIS1_EEixEm
	.loc 6 77 19
	movq	(%rax), %rax
	.loc 6 77 23
	movl	$0, 56(%rax)
.L47:
.LBB19:
	.loc 6 79 31
	movl	-84(%rbp), %eax
	cltq
	movq	%rax, %rsi
	leaq	blobs(%rip), %rax
	movq	%rax, %rdi
	call	_ZNSt6vectorIP8TinyblobSaIS1_EEixEm
	.loc 6 79 36
	movq	(%rax), %rax
	movq	%rax, %rdi
	call	_ZN8Tinyblob2fdEv
	.loc 6 79 44
	testl	%eax, %eax
	js	.L48
	.loc 6 79 59 discriminator 1
	movl	-84(%rbp), %eax
	cltq
	movq	%rax, %rsi
	leaq	blobs(%rip), %rax
	movq	%rax, %rdi
	call	_ZNSt6vectorIP8TinyblobSaIS1_EEixEm
	.loc 6 79 62 discriminator 1
	movq	(%rax), %rax
	movl	56(%rax), %eax
	.loc 6 79 44 discriminator 1
	testl	%eax, %eax
	jne	.L48
	.loc 6 79 44 is_stmt 0 discriminator 3
	movl	$1, %eax
	jmp	.L49
.L48:
	.loc 6 79 44 discriminator 4
	movl	$0, %eax
.L49:
	.loc 6 79 17 is_stmt 1 discriminator 6
	testb	%al, %al
	je	.L50
.LBB20:
	.loc 6 80 10
	movq	-56(%rbp), %rax
	movl	$2, %edx
	leaq	.LC3(%rip), %rcx
	movq	%rcx, %rsi
	movq	%rax, %rdi
	call	memcpy@PLT
	.loc 6 81 39
	movl	blob_size(%rip), %eax
	movl	%eax, %r12d
	movq	-56(%rbp), %rbx
	.loc 6 81 51
	movl	-84(%rbp), %eax
	cltq
	movq	%rax, %rsi
	leaq	blobs(%rip), %rax
	movq	%rax, %rdi
	call	_ZNSt6vectorIP8TinyblobSaIS1_EEixEm
	.loc 6 81 39
	movq	(%rax), %rax
	movq	%rax, %rdi
	call	_ZN8Tinyblob2fdEv
	movl	$0, %ecx
	movq	%r12, %rdx
	movq	%rbx, %rsi
	movl	%eax, %edi
	call	pwrite@PLT
	.loc 6 81 98
	movl	%eax, -60(%rbp)
	.loc 6 82 36
	movl	blob_size(%rip), %eax
	addl	$1, %eax
	.loc 6 82 10
	movl	%eax, %edx
	movq	-56(%rbp), %rax
	movq	-96(%rbp), %rcx
	movq	%rcx, %rsi
	movq	%rax, %rdi
	call	memcpy@PLT
	.loc 6 83 14
	movl	blob_size(%rip), %eax
	movl	%eax, %r12d
	movq	-56(%rbp), %rbx
	.loc 6 83 26
	movl	-84(%rbp), %eax
	cltq
	movq	%rax, %rsi
	leaq	blobs(%rip), %rax
	movq	%rax, %rdi
	call	_ZNSt6vectorIP8TinyblobSaIS1_EEixEm
	.loc 6 83 14
	movq	(%rax), %rax
	movq	%rax, %rdi
	call	_ZN8Tinyblob2fdEv
	movl	$512, %ecx
	movq	%r12, %rdx
	movq	%rbx, %rsi
	movl	%eax, %edi
	call	pwrite@PLT
	.loc 6 83 6
	movl	%eax, -60(%rbp)
	.loc 6 84 41
	movl	-84(%rbp), %eax
	cltq
	movq	%rax, %rsi
	leaq	blobs(%rip), %rax
	movq	%rax, %rdi
	call	_ZNSt6vectorIP8TinyblobSaIS1_EEixEm
	.loc 6 84 29
	movq	(%rax), %rax
	movq	48(%rax), %rax
	movq	%rax, %rdi
	call	free@PLT
	.loc 6 85 42
	movl	blob_size(%rip), %eax
	movl	%eax, %ebx
	.loc 6 85 56
	movl	-84(%rbp), %eax
	cltq
	movq	%rax, %rsi
	leaq	blobs(%rip), %rax
	movq	%rax, %rdi
	call	_ZNSt6vectorIP8TinyblobSaIS1_EEixEm
	.loc 6 85 59
	movq	(%rax), %rax
	.loc 6 85 42
	addq	$48, %rax
	movq	%rbx, %rdx
	movl	$512, %esi
	movq	%rax, %rdi
	call	posix_memalign@PLT
	testl	%eax, %eax
	setne	%al
	.loc 6 85 25
	testb	%al, %al
	je	.L51
	.loc 6 86 18
	leaq	.LC1(%rip), %rax
	movq	%rax, %rsi
	leaq	_ZSt4cout(%rip), %rax
	movq	%rax, %rdi
	call	_ZStlsISt11char_traitsIcEERSt13basic_ostreamIcT_ES5_PKc@PLT
	.loc 6 86 51
	movq	_ZSt4endlIcSt11char_traitsIcEERSt13basic_ostreamIT_T0_ES6_@GOTPCREL(%rip), %rdx
	movq	%rdx, %rsi
	movq	%rax, %rdi
	call	_ZNSolsEPFRSoS_E@PLT
.L51:
	.loc 6 87 33
	call	_Z8tb_flushv
	.loc 6 88 15
	movl	-84(%rbp), %eax
	cltq
	movq	%rax, %rsi
	leaq	blobs(%rip), %rax
	movq	%rax, %rdi
	call	_ZNSt6vectorIP8TinyblobSaIS1_EEixEm
	.loc 6 88 18
	movq	(%rax), %rax
	.loc 6 88 25
	movb	$0, 72(%rax)
	.loc 6 89 32
	movl	-60(%rbp), %eax
	jmp	.L61
.L50:
.LBE20:
.LBB21:
	.loc 6 92 32
	movl	$80, %edi
	call	_Znwm@PLT
.LEHE3:
	movq	%rax, %rbx
	movq	%rbx, %rdi
.LEHB4:
	call	_ZN8TinyblobC1Ev@PLT
.LEHE4:
	movq	%rbx, -48(%rbp)
	.loc 6 93 14
	movq	-48(%rbp), %rax
	movq	%rax, %rdi
.LEHB5:
	call	_ZN8Tinyblob6__openEv@PLT
	.loc 6 94 19
	leaq	-48(%rbp), %rax
	movq	%rax, %rsi
	leaq	blobs(%rip), %rax
	movq	%rax, %rdi
	call	_ZNSt6vectorIP8TinyblobSaIS1_EE9push_backERKS1_
.LBB22:
	.loc 6 95 12
	movq	-48(%rbp), %rax
	movl	56(%rax), %eax
	.loc 6 95 4
	testl	%eax, %eax
	jne	.L53
.LBB23:
	.loc 6 96 36
	movl	blob_size(%rip), %eax
	movl	%eax, %ebx
	movq	-48(%rbp), %rax
	movq	%rax, %rdi
	call	_ZN8Tinyblob2fdEv
	movq	%rbx, %rcx
	movl	$0, %edx
	movl	$0, %esi
	movl	%eax, %edi
	call	fallocate@PLT
	movl	%eax, -68(%rbp)
	.loc 6 97 19
	cmpl	$0, -68(%rbp)
	jns	.L53
	.loc 6 98 35
	movl	$-1, %eax
	jmp	.L61
.L53:
.LBE23:
.LBE22:
	.loc 6 100 35
	movq	-48(%rbp), %rax
	movq	%rax, %rdi
	call	_ZN8Tinyblob5indexEv
	.loc 6 100 25
	movl	%eax, %edx
	movq	-96(%rbp), %rax
	movq	%rax, %rsi
	movl	%edx, %edi
	call	_Z13tb_write_blobiPv
	movl	%eax, -64(%rbp)
	.loc 6 101 11
	movl	-64(%rbp), %eax
	jmp	.L61
.L46:
.LBE21:
.LBE19:
.LBE18:
.LBE17:
	.loc 6 104 70
	movl	-84(%rbp), %eax
	cltq
	movq	%rax, %rsi
	leaq	blobs(%rip), %rax
	movq	%rax, %rdi
	call	_ZNSt6vectorIP8TinyblobSaIS1_EEixEm
	.loc 6 104 79
	movq	(%rax), %rax
	movq	%rax, %rdi
	call	_ZN8Tinyblob6offsetEv
	.loc 6 104 17
	movl	%eax, %r13d
	movl	blob_size(%rip), %eax
	movl	%eax, %r12d
	movq	-56(%rbp), %rbx
	.loc 6 104 29
	movl	-84(%rbp), %eax
	cltq
	movq	%rax, %rsi
	leaq	blobs(%rip), %rax
	movq	%rax, %rdi
	call	_ZNSt6vectorIP8TinyblobSaIS1_EEixEm
	.loc 6 104 17
	movq	(%rax), %rax
	movq	%rax, %rdi
	call	_ZN8Tinyblob2fdEv
	movq	%r13, %rcx
	movq	%r12, %rdx
	movq	%rbx, %rsi
	movl	%eax, %edi
	call	pread@PLT
	.loc 6 104 85
	cmpq	$-1, %rax
	sete	%al
	.loc 6 104 9
	testb	%al, %al
	je	.L55
	.loc 6 105 16
	leaq	.LC4(%rip), %rax
	movq	%rax, %rsi
	leaq	_ZSt4cout(%rip), %rax
	movq	%rax, %rdi
	call	_ZStlsISt11char_traitsIcEERSt13basic_ostreamIcT_ES5_PKc@PLT
	.loc 6 105 39
	movq	_ZSt4endlIcSt11char_traitsIcEERSt13basic_ostreamIT_T0_ES6_@GOTPCREL(%rip), %rdx
	movq	%rdx, %rsi
	movq	%rax, %rdi
	call	_ZNSolsEPFRSoS_E@PLT
.L55:
	.loc 6 106 15
	movq	-56(%rbp), %rax
	movzbl	(%rax), %eax
	.loc 6 106 2
	cmpb	$49, %al
	je	.L56
	.loc 6 107 28
	movl	-84(%rbp), %eax
	cltq
	movq	%rax, %rsi
	leaq	blobs(%rip), %rax
	movq	%rax, %rdi
	call	_ZNSt6vectorIP8TinyblobSaIS1_EEixEm
	.loc 6 107 31
	movq	(%rax), %rax
	.loc 6 107 35
	movl	$0, 56(%rax)
.L56:
.LBB27:
	.loc 6 109 23
	movl	-84(%rbp), %eax
	cltq
	movq	%rax, %rsi
	leaq	blobs(%rip), %rax
	movq	%rax, %rdi
	call	_ZNSt6vectorIP8TinyblobSaIS1_EEixEm
	.loc 6 109 28
	movq	(%rax), %rax
	movq	%rax, %rdi
	call	_ZN8Tinyblob2fdEv
	.loc 6 109 36
	testl	%eax, %eax
	js	.L57
	.loc 6 109 51 discriminator 1
	movl	-84(%rbp), %eax
	cltq
	movq	%rax, %rsi
	leaq	blobs(%rip), %rax
	movq	%rax, %rdi
	call	_ZNSt6vectorIP8TinyblobSaIS1_EEixEm
	.loc 6 109 54 discriminator 1
	movq	(%rax), %rax
	movl	56(%rax), %eax
	.loc 6 109 36 discriminator 1
	testl	%eax, %eax
	jne	.L57
	.loc 6 109 36 is_stmt 0 discriminator 3
	movl	$1, %eax
	jmp	.L58
.L57:
	.loc 6 109 36 discriminator 4
	movl	$0, %eax
.L58:
	.loc 6 109 9 is_stmt 1 discriminator 6
	testb	%al, %al
	je	.L59
.LBB28:
	.loc 6 110 23
	movq	-56(%rbp), %rax
	movl	$2, %edx
	leaq	.LC3(%rip), %rcx
	movq	%rcx, %rsi
	movq	%rax, %rdi
	call	memcpy@PLT
	.loc 6 111 100
	movl	-84(%rbp), %eax
	cltq
	movq	%rax, %rsi
	leaq	blobs(%rip), %rax
	movq	%rax, %rdi
	call	_ZNSt6vectorIP8TinyblobSaIS1_EEixEm
	.loc 6 111 109
	movq	(%rax), %rax
	movq	%rax, %rdi
	call	_ZN8Tinyblob6offsetEv
	.loc 6 111 31
	movl	%eax, %r13d
	movl	blob_size(%rip), %eax
	movl	%eax, %r12d
	movq	-56(%rbp), %rbx
	.loc 6 111 43
	movl	-84(%rbp), %eax
	cltq
	movq	%rax, %rsi
	leaq	blobs(%rip), %rax
	movq	%rax, %rdi
	call	_ZNSt6vectorIP8TinyblobSaIS1_EEixEm
	.loc 6 111 31
	movq	(%rax), %rax
	movq	%rax, %rdi
	call	_ZN8Tinyblob2fdEv
	movq	%r13, %rcx
	movq	%r12, %rdx
	movq	%rbx, %rsi
	movl	%eax, %edi
	call	pwrite@PLT
	.loc 6 111 113
	movl	%eax, -72(%rbp)
	.loc 6 112 49
	movl	blob_size(%rip), %eax
	addl	$1, %eax
	.loc 6 112 23
	movl	%eax, %edx
	movq	-56(%rbp), %rax
	movq	-96(%rbp), %rcx
	movq	%rcx, %rsi
	movq	%rax, %rdi
	call	memcpy@PLT
	.loc 6 113 82
	movl	-84(%rbp), %eax
	cltq
	movq	%rax, %rsi
	leaq	blobs(%rip), %rax
	movq	%rax, %rdi
	call	_ZNSt6vectorIP8TinyblobSaIS1_EEixEm
	.loc 6 113 91
	movq	(%rax), %rax
	movq	%rax, %rdi
	call	_ZN8Tinyblob6offsetEv
	.loc 6 113 93
	addl	$512, %eax
	.loc 6 113 13
	movl	%eax, %r13d
	movl	blob_size(%rip), %eax
	movl	%eax, %r12d
	movq	-56(%rbp), %rbx
	.loc 6 113 25
	movl	-84(%rbp), %eax
	cltq
	movq	%rax, %rsi
	leaq	blobs(%rip), %rax
	movq	%rax, %rdi
	call	_ZNSt6vectorIP8TinyblobSaIS1_EEixEm
	.loc 6 113 13
	movq	(%rax), %rax
	movq	%rax, %rdi
	call	_ZN8Tinyblob2fdEv
	movq	%r13, %rcx
	movq	%r12, %rdx
	movq	%rbx, %rsi
	movl	%eax, %edi
	call	pwrite@PLT
	.loc 6 113 5
	movl	%eax, -72(%rbp)
	.loc 6 114 33
	movl	-84(%rbp), %eax
	cltq
	movq	%rax, %rsi
	leaq	blobs(%rip), %rax
	movq	%rax, %rdi
	call	_ZNSt6vectorIP8TinyblobSaIS1_EEixEm
	.loc 6 114 21
	movq	(%rax), %rax
	movq	48(%rax), %rax
	movq	%rax, %rdi
	call	free@PLT
	.loc 6 115 34
	movl	blob_size(%rip), %eax
	movl	%eax, %ebx
	.loc 6 115 48
	movl	-84(%rbp), %eax
	cltq
	movq	%rax, %rsi
	leaq	blobs(%rip), %rax
	movq	%rax, %rdi
	call	_ZNSt6vectorIP8TinyblobSaIS1_EEixEm
	.loc 6 115 51
	movq	(%rax), %rax
	.loc 6 115 34
	addq	$48, %rax
	movq	%rbx, %rdx
	movl	$512, %esi
	movq	%rax, %rdi
	call	posix_memalign@PLT
	testl	%eax, %eax
	setne	%al
	.loc 6 115 17
	testb	%al, %al
	je	.L60
	.loc 6 116 31
	leaq	.LC1(%rip), %rax
	movq	%rax, %rsi
	leaq	_ZSt4cout(%rip), %rax
	movq	%rax, %rdi
	call	_ZStlsISt11char_traitsIcEERSt13basic_ostreamIcT_ES5_PKc@PLT
	.loc 6 116 64
	movq	_ZSt4endlIcSt11char_traitsIcEERSt13basic_ostreamIT_T0_ES6_@GOTPCREL(%rip), %rdx
	movq	%rdx, %rsi
	movq	%rax, %rdi
	call	_ZNSolsEPFRSoS_E@PLT
.L60:
	.loc 6 117 11
	call	_Z8tb_flushv
	.loc 6 118 14
	movl	-84(%rbp), %eax
	cltq
	movq	%rax, %rsi
	leaq	blobs(%rip), %rax
	movq	%rax, %rdi
	call	_ZNSt6vectorIP8TinyblobSaIS1_EEixEm
	.loc 6 118 17
	movq	(%rax), %rax
	.loc 6 118 24
	movb	$0, 72(%rax)
	.loc 6 119 24
	movl	-72(%rbp), %eax
	jmp	.L61
.L59:
.LBE28:
.LBB29:
	.loc 6 122 38
	movl	$80, %edi
	call	_Znwm@PLT
.LEHE5:
	movq	%rax, %rbx
	movq	%rbx, %rdi
.LEHB6:
	call	_ZN8TinyblobC1Ev@PLT
.LEHE6:
	movq	%rbx, -48(%rbp)
	.loc 6 123 27
	movq	-48(%rbp), %rax
	leaq	.LC0(%rip), %rdx
	movq	%rdx, %rsi
	movq	%rax, %rdi
.LEHB7:
	call	_ZN8Tinyblob6__openEPc@PLT
	.loc 6 124 30
	movq	-48(%rbp), %rax
	movl	_ZZ13tb_write_blobiPvE17global_dev_offset(%rip), %edx
	movl	%edx, %esi
	movq	%rax, %rdi
	call	_ZN8Tinyblob9setOffsetEj
	.loc 6 125 35
	movl	_ZZ13tb_write_blobiPvE17global_dev_offset(%rip), %edx
	movl	blob_size(%rip), %eax
	addl	%edx, %eax
	movl	%eax, _ZZ13tb_write_blobiPvE17global_dev_offset(%rip)
	.loc 6 126 32
	leaq	-48(%rbp), %rax
	movq	%rax, %rsi
	leaq	blobs(%rip), %rax
	movq	%rax, %rdi
	call	_ZNSt6vectorIP8TinyblobSaIS1_EE9push_backERKS1_
	.loc 6 127 48
	movq	-48(%rbp), %rax
	movq	%rax, %rdi
	call	_ZN8Tinyblob5indexEv
	.loc 6 127 38
	movl	%eax, %edx
	movq	-96(%rbp), %rax
	movq	%rax, %rsi
	movl	%edx, %edi
	call	_Z13tb_write_blobiPv
	movl	%eax, -76(%rbp)
	.loc 6 128 24
	movl	-76(%rbp), %eax
.L61:
.LBE29:
.LBE27:
	.loc 6 131 1 discriminator 5
	movq	-40(%rbp), %rdx
	subq	%fs:40, %rdx
	je	.L64
	jmp	.L67
.L65:
	endbr64
.LBB31:
.LBB26:
.LBB25:
.LBB24:
	.loc 6 92 32
	movq	%rax, %r12
	movl	$80, %esi
	movq	%rbx, %rdi
	call	_ZdlPvm@PLT
	movq	%r12, %rax
	movq	%rax, %rdi
	call	_Unwind_Resume@PLT
.L66:
	endbr64
.LBE24:
.LBE25:
.LBE26:
.LBE31:
.LBB32:
.LBB30:
	.loc 6 122 38
	movq	%rax, %r12
	movl	$80, %esi
	movq	%rbx, %rdi
	call	_ZdlPvm@PLT
	movq	%r12, %rax
	movq	%rax, %rdi
	call	_Unwind_Resume@PLT
.LEHE7:
.L67:
.LBE30:
.LBE32:
	.loc 6 131 1
	call	__stack_chk_fail@PLT
.L64:
	addq	$72, %rsp
	popq	%rbx
	popq	%r12
	popq	%r13
	popq	%rbp
	.cfi_def_cfa 7, 8
	ret
	.cfi_endproc
.LFE11540:
	.section	.gcc_except_table
.LLSDA11540:
	.byte	0xff
	.byte	0xff
	.byte	0x1
	.uleb128 .LLSDACSE11540-.LLSDACSB11540
.LLSDACSB11540:
	.uleb128 .LEHB3-.LFB11540
	.uleb128 .LEHE3-.LEHB3
	.uleb128 0
	.uleb128 0
	.uleb128 .LEHB4-.LFB11540
	.uleb128 .LEHE4-.LEHB4
	.uleb128 .L65-.LFB11540
	.uleb128 0
	.uleb128 .LEHB5-.LFB11540
	.uleb128 .LEHE5-.LEHB5
	.uleb128 0
	.uleb128 0
	.uleb128 .LEHB6-.LFB11540
	.uleb128 .LEHE6-.LEHB6
	.uleb128 .L66-.LFB11540
	.uleb128 0
	.uleb128 .LEHB7-.LFB11540
	.uleb128 .LEHE7-.LEHB7
	.uleb128 0
	.uleb128 0
.LLSDACSE11540:
	.text
	.size	_Z13tb_write_blobiPv, .-_Z13tb_write_blobiPv
	.globl	_Z12tb_read_blobPv
	.type	_Z12tb_read_blobPv, @function
_Z12tb_read_blobPv:
.LFB11541:
	.loc 6 133 29
	.cfi_startproc
	endbr64
	pushq	%rbp
	.cfi_def_cfa_offset 16
	.cfi_offset 6, -16
	movq	%rsp, %rbp
	.cfi_def_cfa_register 6
	pushq	%r12
	pushq	%rbx
	subq	$48, %rsp
	.cfi_offset 12, -24
	.cfi_offset 3, -32
	movq	%rdi, -56(%rbp)
	.loc 6 133 29
	movq	%fs:40, %rax
	movq	%rax, -24(%rbp)
	xorl	%eax, %eax
	.loc 6 134 22
	movq	-56(%rbp), %rax
	movq	%rax, -32(%rbp)
	.loc 6 135 24
	movq	-32(%rbp), %rax
	movl	(%rax), %eax
	.loc 6 135 25
	cltq
	movq	%rax, %rsi
	leaq	blobs(%rip), %rax
	movq	%rax, %rdi
	call	_ZNSt6vectorIP8TinyblobSaIS1_EEixEm
	.loc 6 135 13
	movq	(%rax), %rax
	movq	48(%rax), %rax
	movq	%rax, %rdi
	call	free@PLT
	.loc 6 136 26
	movl	blob_size(%rip), %eax
	movl	%eax, %ebx
	.loc 6 136 39
	movq	-32(%rbp), %rax
	movl	(%rax), %eax
	.loc 6 136 40
	cltq
	movq	%rax, %rsi
	leaq	blobs(%rip), %rax
	movq	%rax, %rdi
	call	_ZNSt6vectorIP8TinyblobSaIS1_EEixEm
	.loc 6 136 43
	movq	(%rax), %rax
	.loc 6 136 26
	addq	$48, %rax
	movq	%rbx, %rdx
	movl	$512, %esi
	movq	%rax, %rdi
	call	posix_memalign@PLT
	testl	%eax, %eax
	setne	%al
	.loc 6 136 9
	testb	%al, %al
	je	.L69
	.loc 6 137 16
	leaq	.LC1(%rip), %rax
	movq	%rax, %rsi
	leaq	_ZSt4cout(%rip), %rax
	movq	%rax, %rdi
	call	_ZStlsISt11char_traitsIcEERSt13basic_ostreamIcT_ES5_PKc@PLT
	.loc 6 137 49
	movq	_ZSt4endlIcSt11char_traitsIcEERSt13basic_ostreamIT_T0_ES6_@GOTPCREL(%rip), %rdx
	movq	%rdx, %rsi
	movq	%rax, %rdi
	call	_ZNSolsEPFRSoS_E@PLT
.L69:
	.loc 6 139 26
	movl	blob_size(%rip), %eax
	movl	%eax, %edx
	leaq	-40(%rbp), %rax
	movl	$512, %esi
	movq	%rax, %rdi
	call	posix_memalign@PLT
	testl	%eax, %eax
	setne	%al
	.loc 6 139 9
	testb	%al, %al
	je	.L70
	.loc 6 140 30
	leaq	.LC1(%rip), %rax
	movq	%rax, %rsi
	leaq	_ZSt4cout(%rip), %rax
	movq	%rax, %rdi
	call	_ZStlsISt11char_traitsIcEERSt13basic_ostreamIcT_ES5_PKc@PLT
	.loc 6 140 63
	movq	_ZSt4endlIcSt11char_traitsIcEERSt13basic_ostreamIT_T0_ES6_@GOTPCREL(%rip), %rdx
	movq	%rdx, %rsi
	movq	%rax, %rdi
	call	_ZNSolsEPFRSoS_E@PLT
.L70:
.LBB33:
	.loc 6 141 5
	movl	mode(%rip), %eax
	.loc 6 141 2
	testl	%eax, %eax
	jne	.L71
.LBB34:
.LBB35:
	.loc 6 142 16
	movq	-32(%rbp), %rax
	movl	(%rax), %eax
	.loc 6 142 17
	cltq
	movq	%rax, %rsi
	leaq	blobs(%rip), %rax
	movq	%rax, %rdi
	call	_ZNSt6vectorIP8TinyblobSaIS1_EEixEm
	.loc 6 142 22
	movq	(%rax), %rax
	movq	%rax, %rdi
	call	_ZN8Tinyblob2fdEv
	.loc 6 142 25
	notl	%eax
	shrl	$31, %eax
	.loc 6 142 3
	testb	%al, %al
	je	.L71
.LBB36:
	.loc 6 143 17
	movl	blob_size(%rip), %eax
	movl	%eax, %r12d
	movq	-40(%rbp), %rbx
	.loc 6 143 28
	movq	-32(%rbp), %rax
	movl	(%rax), %eax
	.loc 6 143 29
	cltq
	movq	%rax, %rsi
	leaq	blobs(%rip), %rax
	movq	%rax, %rdi
	call	_ZNSt6vectorIP8TinyblobSaIS1_EEixEm
	.loc 6 143 17
	movq	(%rax), %rax
	movq	%rax, %rdi
	call	_ZN8Tinyblob2fdEv
	movl	$512, %ecx
	movq	%r12, %rdx
	movq	%rbx, %rsi
	movl	%eax, %edi
	call	pread@PLT
	.loc 6 143 68
	movl	%eax, -48(%rbp)
	.loc 6 144 22
	leaq	lock(%rip), %rax
	movq	%rax, %rdi
	call	pthread_mutex_lock@PLT
	.loc 6 145 53
	movl	blob_size(%rip), %eax
	addl	$1, %eax
	.loc 6 145 10
	movl	%eax, %edx
	movq	-40(%rbp), %rcx
	.loc 6 145 25
	movq	-32(%rbp), %rax
	movq	8(%rax), %rax
	.loc 6 145 10
	movq	(%rax), %rax
	movq	%rcx, %rsi
	movq	%rax, %rdi
	call	memcpy@PLT
	.loc 6 146 24
	leaq	lock(%rip), %rax
	movq	%rax, %rdi
	call	pthread_mutex_unlock@PLT
	.loc 6 147 18
	movq	-32(%rbp), %rax
	movzbl	20(%rax), %eax
	.loc 6 147 11
	testb	%al, %al
	je	.L72
	.loc 6 148 39
	leaq	barrier(%rip), %rax
	movq	%rax, %rdi
	call	pthread_barrier_wait@PLT
.L72:
	.loc 6 149 15
	movq	-32(%rbp), %rax
	movl	-48(%rbp), %edx
	movl	%edx, 16(%rax)
	.loc 6 150 11
	movl	-48(%rbp), %eax
	jmp	.L77
.L71:
.LBE36:
.LBE35:
.LBE34:
.LBE33:
.LBB37:
	.loc 6 152 22
	movq	-32(%rbp), %rax
	movl	(%rax), %eax
	.loc 6 152 23
	cltq
	movq	%rax, %rsi
	leaq	blobs(%rip), %rax
	movq	%rax, %rdi
	call	_ZNSt6vectorIP8TinyblobSaIS1_EEixEm
	.loc 6 152 28
	movq	(%rax), %rax
	movq	%rax, %rdi
	call	_ZN8Tinyblob2fdEv
	.loc 6 152 31
	notl	%eax
	shrl	$31, %eax
	.loc 6 152 9
	testb	%al, %al
	je	.L74
.LBB38:
	.loc 6 153 30
	movl	blob_size(%rip), %eax
	movl	%eax, %r12d
	movq	-40(%rbp), %rbx
	.loc 6 153 41
	movq	-32(%rbp), %rax
	movl	(%rax), %eax
	.loc 6 153 42
	cltq
	movq	%rax, %rsi
	leaq	blobs(%rip), %rax
	movq	%rax, %rdi
	call	_ZNSt6vectorIP8TinyblobSaIS1_EEixEm
	.loc 6 153 30
	movq	(%rax), %rax
	movq	%rax, %rdi
	call	_ZN8Tinyblob2fdEv
	movl	$512, %ecx
	movq	%r12, %rdx
	movq	%rbx, %rsi
	movl	%eax, %edi
	call	pread@PLT
	.loc 6 153 81
	movl	%eax, -44(%rbp)
	.loc 6 154 35
	leaq	lock(%rip), %rax
	movq	%rax, %rdi
	call	pthread_mutex_lock@PLT
	.loc 6 155 66
	movl	blob_size(%rip), %eax
	addl	$1, %eax
	.loc 6 155 23
	movl	%eax, %edx
	movq	-40(%rbp), %rcx
	.loc 6 155 38
	movq	-32(%rbp), %rax
	movq	8(%rax), %rax
	.loc 6 155 23
	movq	(%rax), %rax
	movq	%rcx, %rsi
	movq	%rax, %rdi
	call	memcpy@PLT
	.loc 6 156 37
	leaq	lock(%rip), %rax
	movq	%rax, %rdi
	call	pthread_mutex_unlock@PLT
	.loc 6 157 17
	movq	-32(%rbp), %rax
	movzbl	20(%rax), %eax
	.loc 6 157 10
	testb	%al, %al
	je	.L75
	.loc 6 158 38
	leaq	barrier(%rip), %rax
	movq	%rax, %rdi
	call	pthread_barrier_wait@PLT
.L75:
	.loc 6 159 28
	movq	-32(%rbp), %rax
	movl	-44(%rbp), %edx
	movl	%edx, 16(%rax)
	.loc 6 160 17
	movl	-44(%rbp), %eax
	jmp	.L77
.L74:
.LBE38:
.LBE37:
	.loc 6 162 9
	movq	-32(%rbp), %rax
	movzbl	20(%rax), %eax
	.loc 6 162 2
	testb	%al, %al
	je	.L76
	.loc 6 163 23
	leaq	barrier(%rip), %rax
	movq	%rax, %rdi
	call	pthread_barrier_wait@PLT
.L76:
	.loc 6 164 13
	movq	-32(%rbp), %rax
	movl	$-1, 16(%rax)
	.loc 6 165 10
	movl	$-1, %eax
.L77:
	.loc 6 166 1 discriminator 1
	movq	-24(%rbp), %rdx
	subq	%fs:40, %rdx
	je	.L78
	.loc 6 166 1 is_stmt 0
	call	__stack_chk_fail@PLT
.L78:
	addq	$48, %rsp
	popq	%rbx
	popq	%r12
	popq	%rbp
	.cfi_def_cfa 7, 8
	ret
	.cfi_endproc
.LFE11541:
	.size	_Z12tb_read_blobPv, .-_Z12tb_read_blobPv
	.globl	_Z8tb_flushv
	.type	_Z8tb_flushv, @function
_Z8tb_flushv:
.LFB11542:
	.loc 6 168 16 is_stmt 1
	.cfi_startproc
	endbr64
	pushq	%rbp
	.cfi_def_cfa_offset 16
	.cfi_offset 6, -16
	movq	%rsp, %rbp
	.cfi_def_cfa_register 6
	subq	$16, %rsp
.LBB39:
	.loc 6 171 8
	movl	$0, -8(%rbp)
	.loc 6 171 2
	jmp	.L80
.L84:
.LBB40:
	.loc 6 172 19
	movl	-8(%rbp), %eax
	cltq
	movq	%rax, %rsi
	leaq	blobs(%rip), %rax
	movq	%rax, %rdi
	call	_ZNSt6vectorIP8TinyblobSaIS1_EEixEm
	.loc 6 172 24
	movq	(%rax), %rax
	movq	%rax, %rdi
	call	_ZN8Tinyblob2fdEv
	movl	%eax, -4(%rbp)
	.loc 6 173 3
	cmpl	$0, -4(%rbp)
	js	.L81
	.loc 6 174 12
	movl	-4(%rbp), %eax
	movl	%eax, %edi
	call	fsync@PLT
	.loc 6 174 17
	testl	%eax, %eax
	sete	%al
	.loc 6 174 4
	testb	%al, %al
	jne	.L85
	.loc 6 177 9
	movl	$1, %edi
	call	exit@PLT
.L81:
.LBE40:
	.loc 6 171 2 discriminator 2
	addl	$1, -8(%rbp)
.L80:
	.loc 6 171 35 discriminator 1
	call	_ZN8Tinyblob8cnt_blobEv
	.loc 6 171 13 discriminator 1
	movl	-8(%rbp), %edx
	.loc 6 171 15 discriminator 1
	cmpl	%edx, %eax
	seta	%al
	testb	%al, %al
	jne	.L84
	jmp	.L79
.L85:
.LBB41:
	.loc 6 175 5
	nop
.L79:
.LBE41:
.LBE39:
	.loc 6 179 1
	leave
	.cfi_def_cfa 7, 8
	ret
	.cfi_endproc
.LFE11542:
	.size	_Z8tb_flushv, .-_Z8tb_flushv
	.section	.rodata
	.align 8
.LC5:
	.string	"[SHUTDOWN] *ERROR* : tb_write_blob failed!"
	.text
	.globl	_Z11tb_shutdownv
	.type	_Z11tb_shutdownv, @function
_Z11tb_shutdownv:
.LFB11543:
	.loc 6 181 19
	.cfi_startproc
	endbr64
	pushq	%rbp
	.cfi_def_cfa_offset 16
	.cfi_offset 6, -16
	movq	%rsp, %rbp
	.cfi_def_cfa_register 6
	subq	$16, %rsp
.LBB42:
	.loc 6 183 17
	movl	$0, -8(%rbp)
	.loc 6 183 9
	jmp	.L87
.L89:
.LBB43:
	.loc 6 185 49
	movl	-8(%rbp), %eax
	cltq
	movq	%rax, %rsi
	leaq	blobs(%rip), %rax
	movq	%rax, %rdi
	call	_ZNSt6vectorIP8TinyblobSaIS1_EEixEm
	.loc 6 185 38
	movq	(%rax), %rax
	movq	48(%rax), %rdx
	movl	-8(%rbp), %eax
	movq	%rdx, %rsi
	movl	%eax, %edi
	call	_Z13tb_write_blobiPv
	movl	%eax, -4(%rbp)
	.loc 6 185 66
	cmpl	$-1, -4(%rbp)
	sete	%al
	.loc 6 185 17
	testb	%al, %al
	je	.L88
	.loc 6 186 38
	leaq	.LC5(%rip), %rax
	movq	%rax, %rsi
	leaq	_ZSt4cout(%rip), %rax
	movq	%rax, %rdi
	call	_ZStlsISt11char_traitsIcEERSt13basic_ostreamIcT_ES5_PKc@PLT
	.loc 6 186 91
	movq	_ZSt4endlIcSt11char_traitsIcEERSt13basic_ostreamIT_T0_ES6_@GOTPCREL(%rip), %rdx
	movq	%rdx, %rsi
	movq	%rax, %rdi
	call	_ZNSolsEPFRSoS_E@PLT
.L88:
.LBE43:
	.loc 6 183 9 discriminator 2
	addl	$1, -8(%rbp)
.L87:
	.loc 6 183 24 discriminator 1
	movl	-8(%rbp), %edx
	.loc 6 183 26 discriminator 1
	movl	nprocs(%rip), %eax
	cmpl	%eax, %edx
	jb	.L89
.LBE42:
	.loc 6 189 10
	call	_Z8tb_flushv
	.loc 6 190 1
	nop
	leave
	.cfi_def_cfa 7, 8
	ret
	.cfi_endproc
.LFE11543:
	.size	_Z11tb_shutdownv, .-_Z11tb_shutdownv
	.section	.rodata
.LC6:
	.string	"."
.LC7:
	.string	".."
.LC8:
	.string	""
	.text
	.globl	_Z7tb_initPc
	.type	_Z7tb_initPc, @function
_Z7tb_initPc:
.LFB11544:
	.loc 6 192 29
	.cfi_startproc
	.cfi_personality 0x9b,DW.ref.__gxx_personality_v0
	.cfi_lsda 0x1b,.LLSDA11544
	endbr64
	pushq	%rbp
	.cfi_def_cfa_offset 16
	.cfi_offset 6, -16
	movq	%rsp, %rbp
	.cfi_def_cfa_register 6
	pushq	%r13
	pushq	%r12
	pushq	%rbx
	subq	$152, %rsp
	.cfi_offset 13, -24
	.cfi_offset 12, -32
	.cfi_offset 3, -40
	movq	%rdi, -168(%rbp)
	.loc 6 192 29
	movq	%fs:40, %rax
	movq	%rax, -40(%rbp)
	xorl	%eax, %eax
.LBB44:
	.loc 6 195 20
	movq	-168(%rbp), %rax
	movq	%rax, %rdi
.LEHB8:
	call	opendir@PLT
	movq	%rax, -128(%rbp)
	.loc 6 195 32
	cmpq	$0, -128(%rbp)
	setne	%al
	.loc 6 195 1
	testb	%al, %al
	je	.L91
.LBB45:
	.loc 6 196 3
	jmp	.L92
.L104:
.LBB46:
	.loc 6 197 17
	movq	-120(%rbp), %rax
	addq	$19, %rax
	.loc 6 197 11
	leaq	.LC6(%rip), %rdx
	movq	%rdx, %rsi
	movq	%rax, %rdi
	call	strcmp@PLT
	.loc 6 197 2
	testl	%eax, %eax
	je	.L92
	.loc 6 197 50 discriminator 2
	movq	-120(%rbp), %rax
	addq	$19, %rax
	.loc 6 197 44 discriminator 2
	leaq	.LC7(%rip), %rdx
	movq	%rdx, %rsi
	movq	%rax, %rdi
	call	strcmp@PLT
	.loc 6 197 35 discriminator 2
	testl	%eax, %eax
	jne	.L94
	.loc 6 198 3 discriminator 3
	jmp	.L92
.L94:
.LBB47:
	.loc 6 199 5
	movl	mode(%rip), %eax
	.loc 6 199 2
	testl	%eax, %eax
	jne	.L95
.LBB48:
	.loc 6 200 38
	movl	$80, %edi
	call	_Znwm@PLT
.LEHE8:
	movq	%rax, %rbx
	movq	%rbx, %rdi
.LEHB9:
	call	_ZN8TinyblobC1Ev@PLT
.LEHE9:
	movq	%rbx, -136(%rbp)
	.loc 6 201 21
	leaq	lock(%rip), %rax
	movq	%rax, %rdi
	call	pthread_mutex_lock@PLT
	.loc 6 202 25
	leaq	-136(%rbp), %rax
	movq	%rax, %rsi
	leaq	blobs(%rip), %rax
	movq	%rax, %rdi
.LEHB10:
	call	_ZNSt6vectorIP8TinyblobSaIS1_EE9push_backERKS1_
	.loc 6 203 23
	leaq	lock(%rip), %rax
	movq	%rax, %rdi
	call	pthread_mutex_unlock@PLT
	.loc 6 204 8
	movq	$0, -80(%rbp)
	movq	$0, -72(%rbp)
	movq	$0, -64(%rbp)
	movl	$0, -56(%rbp)
	movw	$0, -52(%rbp)
	.loc 6 205 9
	movq	-168(%rbp), %rdx
	leaq	-80(%rbp), %rax
	movq	%rdx, %rsi
	movq	%rax, %rdi
	call	strcat@PLT
	.loc 6 206 31
	movq	-120(%rbp), %rax
	leaq	19(%rax), %rdx
	.loc 6 206 9
	leaq	-80(%rbp), %rax
	movq	%rdx, %rsi
	movq	%rax, %rdi
	call	strcat@PLT
	.loc 6 207 13
	movq	-136(%rbp), %rax
	leaq	-80(%rbp), %rdx
	movq	%rdx, %rsi
	movq	%rax, %rdi
	call	_ZN8Tinyblob6__openEPc@PLT
	.loc 6 208 23
	movq	-136(%rbp), %rax
	movl	$0, %esi
	movq	%rax, %rdi
	call	_ZN8Tinyblob9setOffsetEj
.LBE48:
	jmp	.L92
.L95:
.LBB49:
	.loc 6 212 45
	movl	$80, %edi
	call	_Znwm@PLT
.LEHE10:
	movq	%rax, %rbx
	movq	%rbx, %rdi
.LEHB11:
	call	_ZN8TinyblobC1Ev@PLT
.LEHE11:
	movq	%rbx, -144(%rbp)
	.loc 6 213 21
	leaq	lock(%rip), %rax
	movq	%rax, %rdi
	call	pthread_mutex_lock@PLT
	.loc 6 214 32
	leaq	-144(%rbp), %rax
	movq	%rax, %rsi
	leaq	blobs(%rip), %rax
	movq	%rax, %rdi
.LEHB12:
	call	_ZNSt6vectorIP8TinyblobSaIS1_EE9push_backERKS1_
	.loc 6 215 23
	leaq	lock(%rip), %rax
	movq	%rax, %rdi
	call	pthread_mutex_unlock@PLT
	.loc 6 216 22
	movq	$0, -112(%rbp)
	movq	$0, -104(%rbp)
	movq	$0, -96(%rbp)
	movl	$0, -88(%rbp)
	movw	$0, -84(%rbp)
	.loc 6 217 23
	movq	-168(%rbp), %rdx
	leaq	-112(%rbp), %rax
	movq	%rdx, %rsi
	movq	%rax, %rdi
	call	strcat@PLT
	.loc 6 218 45
	movq	-120(%rbp), %rax
	leaq	19(%rax), %rdx
	.loc 6 218 23
	leaq	-112(%rbp), %rax
	movq	%rdx, %rsi
	movq	%rax, %rdi
	call	strcat@PLT
	.loc 6 219 27
	movq	-144(%rbp), %rax
	leaq	-112(%rbp), %rdx
	movq	%rdx, %rsi
	movq	%rax, %rdi
	call	_ZN8Tinyblob6__openEPc@PLT
	.loc 6 220 16
	movq	-144(%rbp), %rax
	movl	global_dev_offset(%rip), %edx
	movl	%edx, %esi
	movq	%rax, %rdi
	call	_ZN8Tinyblob9setOffsetEj
	.loc 6 221 27
	movl	blob_size(%rip), %eax
	movl	%eax, %edx
	leaq	-152(%rbp), %rax
	movl	$512, %esi
	movq	%rax, %rdi
	call	posix_memalign@PLT
	testl	%eax, %eax
	setne	%al
	.loc 6 221 10
	testb	%al, %al
	je	.L96
	.loc 6 222 31
	leaq	.LC1(%rip), %rax
	movq	%rax, %rsi
	leaq	_ZSt4cout(%rip), %rax
	movq	%rax, %rdi
	call	_ZStlsISt11char_traitsIcEERSt13basic_ostreamIcT_ES5_PKc@PLT
	.loc 6 222 64
	movq	_ZSt4endlIcSt11char_traitsIcEERSt13basic_ostreamIT_T0_ES6_@GOTPCREL(%rip), %rdx
	movq	%rdx, %rsi
	movq	%rax, %rdi
	call	_ZNSolsEPFRSoS_E@PLT
.L96:
	.loc 6 223 25
	movl	global_dev_offset(%rip), %eax
	movl	%eax, %r13d
	movl	blob_size(%rip), %eax
	movl	%eax, %r12d
	movq	-152(%rbp), %rbx
	movq	-144(%rbp), %rax
	movq	%rax, %rdi
	call	_ZN8Tinyblob2fdEv
	movq	%r13, %rcx
	movq	%r12, %rdx
	movq	%rbx, %rsi
	movl	%eax, %edi
	call	pread@PLT
	.loc 6 223 78
	cmpq	$-1, %rax
	sete	%al
	.loc 6 223 17
	testb	%al, %al
	je	.L97
	.loc 6 224 38
	leaq	.LC4(%rip), %rax
	movq	%rax, %rsi
	leaq	_ZSt4cout(%rip), %rax
	movq	%rax, %rdi
	call	_ZStlsISt11char_traitsIcEERSt13basic_ostreamIcT_ES5_PKc@PLT
	.loc 6 224 61
	movq	_ZSt4endlIcSt11char_traitsIcEERSt13basic_ostreamIT_T0_ES6_@GOTPCREL(%rip), %rdx
	movq	%rdx, %rsi
	movq	%rax, %rdi
	call	_ZNSolsEPFRSoS_E@PLT
.L97:
	.loc 6 226 81
	movl	global_dev_offset(%rip), %eax
	addl	$512, %eax
	.loc 6 226 25
	movl	%eax, %r13d
	movl	blob_size(%rip), %eax
	movl	%eax, %r12d
	movq	-144(%rbp), %rax
	movq	48(%rax), %rbx
	movq	-144(%rbp), %rax
	movq	%rax, %rdi
	call	_ZN8Tinyblob2fdEv
	movq	%r13, %rcx
	movq	%r12, %rdx
	movq	%rbx, %rsi
	movl	%eax, %edi
	call	pread@PLT
	.loc 6 226 93
	cmpq	$-1, %rax
	sete	%al
	.loc 6 226 17
	testb	%al, %al
	je	.L98
	.loc 6 227 38
	leaq	.LC4(%rip), %rax
	movq	%rax, %rsi
	leaq	_ZSt4cout(%rip), %rax
	movq	%rax, %rdi
	call	_ZStlsISt11char_traitsIcEERSt13basic_ostreamIcT_ES5_PKc@PLT
	.loc 6 227 61
	movq	_ZSt4endlIcSt11char_traitsIcEERSt13basic_ostreamIT_T0_ES6_@GOTPCREL(%rip), %rdx
	movq	%rdx, %rsi
	movq	%rax, %rdi
	call	_ZNSolsEPFRSoS_E@PLT
.L98:
	.loc 6 228 21
	movl	global_dev_offset(%rip), %edx
	movl	blob_size(%rip), %eax
	addl	%edx, %eax
	movl	%eax, global_dev_offset(%rip)
	.loc 6 229 3
	jmp	.L99
.L102:
.LBB50:
	.loc 6 230 46
	movl	$80, %edi
	call	_Znwm@PLT
.LEHE12:
	movq	%rax, %rbx
	movq	%rbx, %rdi
.LEHB13:
	call	_ZN8TinyblobC1Ev@PLT
.LEHE13:
	movq	%rbx, -136(%rbp)
	.loc 6 231 36
	leaq	lock(%rip), %rax
	movq	%rax, %rdi
	call	pthread_mutex_lock@PLT
	.loc 6 232 33
	leaq	-136(%rbp), %rax
	movq	%rax, %rsi
	leaq	blobs(%rip), %rax
	movq	%rax, %rdi
.LEHB14:
	call	_ZNSt6vectorIP8TinyblobSaIS1_EE9push_backERKS1_
	.loc 6 233 38
	leaq	lock(%rip), %rax
	movq	%rax, %rdi
	call	pthread_mutex_unlock@PLT
	.loc 6 234 9
	movq	$0, -80(%rbp)
	movq	$0, -72(%rbp)
	movq	$0, -64(%rbp)
	movl	$0, -56(%rbp)
	movw	$0, -52(%rbp)
	.loc 6 235 24
	movq	-168(%rbp), %rdx
	leaq	-80(%rbp), %rax
	movq	%rdx, %rsi
	movq	%rax, %rdi
	call	strcat@PLT
	.loc 6 236 47
	movq	-120(%rbp), %rax
	leaq	19(%rax), %rdx
	.loc 6 236 24
	leaq	-80(%rbp), %rax
	movq	%rdx, %rsi
	movq	%rax, %rdi
	call	strcat@PLT
	.loc 6 237 28
	movq	-136(%rbp), %rax
	leaq	-80(%rbp), %rdx
	movq	%rdx, %rsi
	movq	%rax, %rdi
	call	_ZN8Tinyblob6__openEPc@PLT
	.loc 6 238 17
	movq	-136(%rbp), %rax
	movl	global_dev_offset(%rip), %edx
	movl	%edx, %esi
	movq	%rax, %rdi
	call	_ZN8Tinyblob9setOffsetEj
	.loc 6 239 22
	movl	global_dev_offset(%rip), %edx
	movl	blob_size(%rip), %eax
	addl	%edx, %eax
	movl	%eax, global_dev_offset(%rip)
	.loc 6 240 26
	movl	global_dev_offset(%rip), %eax
	movl	%eax, %r13d
	movl	blob_size(%rip), %eax
	movl	%eax, %r12d
	movq	-152(%rbp), %rbx
	movq	-136(%rbp), %rax
	movq	%rax, %rdi
	call	_ZN8Tinyblob2fdEv
	movq	%r13, %rcx
	movq	%r12, %rdx
	movq	%rbx, %rsi
	movl	%eax, %edi
	call	pread@PLT
	.loc 6 240 79
	cmpq	$-1, %rax
	sete	%al
	.loc 6 240 18
	testb	%al, %al
	je	.L100
	.loc 6 241 39
	leaq	.LC4(%rip), %rax
	movq	%rax, %rsi
	leaq	_ZSt4cout(%rip), %rax
	movq	%rax, %rdi
	call	_ZStlsISt11char_traitsIcEERSt13basic_ostreamIcT_ES5_PKc@PLT
	.loc 6 241 62
	movq	_ZSt4endlIcSt11char_traitsIcEERSt13basic_ostreamIT_T0_ES6_@GOTPCREL(%rip), %rdx
	movq	%rdx, %rsi
	movq	%rax, %rdi
	call	_ZNSolsEPFRSoS_E@PLT
.L100:
	.loc 6 243 82
	movl	global_dev_offset(%rip), %eax
	addl	$512, %eax
	.loc 6 243 26
	movl	%eax, %r13d
	movl	blob_size(%rip), %eax
	movl	%eax, %r12d
	movq	-136(%rbp), %rax
	movq	48(%rax), %rbx
	movq	-136(%rbp), %rax
	movq	%rax, %rdi
	call	_ZN8Tinyblob2fdEv
	movq	%r13, %rcx
	movq	%r12, %rdx
	movq	%rbx, %rsi
	movl	%eax, %edi
	call	pread@PLT
	.loc 6 243 94
	cmpq	$-1, %rax
	sete	%al
	.loc 6 243 18
	testb	%al, %al
	je	.L99
	.loc 6 244 39
	leaq	.LC4(%rip), %rax
	movq	%rax, %rsi
	leaq	_ZSt4cout(%rip), %rax
	movq	%rax, %rdi
	call	_ZStlsISt11char_traitsIcEERSt13basic_ostreamIcT_ES5_PKc@PLT
	.loc 6 244 62
	movq	_ZSt4endlIcSt11char_traitsIcEERSt13basic_ostreamIT_T0_ES6_@GOTPCREL(%rip), %rdx
	movq	%rdx, %rsi
	movq	%rax, %rdi
	call	_ZNSolsEPFRSoS_E@PLT
.L99:
.LBE50:
	.loc 6 229 19
	movq	-152(%rbp), %rax
	movzbl	(%rax), %eax
	.loc 6 229 28
	cmpb	$48, %al
	je	.L102
	.loc 6 229 41 discriminator 1
	movq	-152(%rbp), %rax
	movzbl	(%rax), %eax
	.loc 6 229 28 discriminator 1
	cmpb	$49, %al
	je	.L102
	.loc 6 246 23
	movq	-152(%rbp), %rax
	movzbl	(%rax), %eax
	.loc 6 246 10
	cmpb	$49, %al
	je	.L92
	.loc 6 247 22
	movq	-144(%rbp), %rax
	.loc 6 247 26
	movl	$0, 56(%rax)
.L92:
.LBE49:
.LBE47:
.LBE46:
	.loc 6 196 25
	movq	-128(%rbp), %rax
	movq	%rax, %rdi
	call	readdir@PLT
	movq	%rax, -120(%rbp)
	.loc 6 196 32
	cmpq	$0, -120(%rbp)
	setne	%al
	testb	%al, %al
	jne	.L104
	.loc 6 250 12
	movq	-128(%rbp), %rax
	movq	%rax, %rdi
	call	closedir@PLT
.LBE45:
.LBE44:
	.loc 6 255 1
	jmp	.L90
.L91:
.LBB57:
	.loc 6 252 10
	leaq	.LC8(%rip), %rax
	movq	%rax, %rdi
	call	perror@PLT
	.loc 6 253 3
	jmp	.L90
.L110:
	endbr64
.LBB56:
.LBB55:
.LBB54:
.LBB52:
	.loc 6 200 38
	movq	%rax, %r12
	movl	$80, %esi
	movq	%rbx, %rdi
	call	_ZdlPvm@PLT
	movq	%r12, %rax
	movq	%rax, %rdi
	call	_Unwind_Resume@PLT
.L111:
	endbr64
.LBE52:
.LBB53:
	.loc 6 212 45
	movq	%rax, %r12
	movl	$80, %esi
	movq	%rbx, %rdi
	call	_ZdlPvm@PLT
	movq	%r12, %rax
	movq	%rax, %rdi
	call	_Unwind_Resume@PLT
.L112:
	endbr64
.LBB51:
	.loc 6 230 46
	movq	%rax, %r12
	movl	$80, %esi
	movq	%rbx, %rdi
	call	_ZdlPvm@PLT
	movq	%r12, %rax
	movq	%rax, %rdi
	call	_Unwind_Resume@PLT
.LEHE14:
.L90:
.LBE51:
.LBE53:
.LBE54:
.LBE55:
.LBE56:
.LBE57:
	.loc 6 255 1
	movq	-40(%rbp), %rax
	subq	%fs:40, %rax
	je	.L109
	call	__stack_chk_fail@PLT
.L109:
	addq	$152, %rsp
	popq	%rbx
	popq	%r12
	popq	%r13
	popq	%rbp
	.cfi_def_cfa 7, 8
	ret
	.cfi_endproc
.LFE11544:
	.section	.gcc_except_table
.LLSDA11544:
	.byte	0xff
	.byte	0xff
	.byte	0x1
	.uleb128 .LLSDACSE11544-.LLSDACSB11544
.LLSDACSB11544:
	.uleb128 .LEHB8-.LFB11544
	.uleb128 .LEHE8-.LEHB8
	.uleb128 0
	.uleb128 0
	.uleb128 .LEHB9-.LFB11544
	.uleb128 .LEHE9-.LEHB9
	.uleb128 .L110-.LFB11544
	.uleb128 0
	.uleb128 .LEHB10-.LFB11544
	.uleb128 .LEHE10-.LEHB10
	.uleb128 0
	.uleb128 0
	.uleb128 .LEHB11-.LFB11544
	.uleb128 .LEHE11-.LEHB11
	.uleb128 .L111-.LFB11544
	.uleb128 0
	.uleb128 .LEHB12-.LFB11544
	.uleb128 .LEHE12-.LEHB12
	.uleb128 0
	.uleb128 0
	.uleb128 .LEHB13-.LFB11544
	.uleb128 .LEHE13-.LEHB13
	.uleb128 .L112-.LFB11544
	.uleb128 0
	.uleb128 .LEHB14-.LFB11544
	.uleb128 .LEHE14-.LEHB14
	.uleb128 0
	.uleb128 0
.LLSDACSE11544:
	.text
	.size	_Z7tb_initPc, .-_Z7tb_initPc
	.section	.text._ZSt3maxImERKT_S2_S2_,"axG",@progbits,_ZSt3maxImERKT_S2_S2_,comdat
	.weak	_ZSt3maxImERKT_S2_S2_
	.type	_ZSt3maxImERKT_S2_S2_, @function
_ZSt3maxImERKT_S2_S2_:
.LFB11900:
	.loc 3 254 5
	.cfi_startproc
	endbr64
	pushq	%rbp
	.cfi_def_cfa_offset 16
	.cfi_offset 6, -16
	movq	%rsp, %rbp
	.cfi_def_cfa_register 6
	movq	%rdi, -8(%rbp)
	movq	%rsi, -16(%rbp)
	.loc 3 259 15
	movq	-8(%rbp), %rax
	movq	(%rax), %rdx
	movq	-16(%rbp), %rax
	movq	(%rax), %rax
	.loc 3 259 7
	cmpq	%rax, %rdx
	jnb	.L114
	.loc 3 260 9
	movq	-16(%rbp), %rax
	jmp	.L115
.L114:
	.loc 3 261 14
	movq	-8(%rbp), %rax
.L115:
	.loc 3 262 5
	popq	%rbp
	.cfi_def_cfa 7, 8
	ret
	.cfi_endproc
.LFE11900:
	.size	_ZSt3maxImERKT_S2_S2_, .-_ZSt3maxImERKT_S2_S2_
	.section	.text._ZNSt12_Vector_baseIP8TinyblobSaIS1_EE12_Vector_implC2Ev,"axG",@progbits,_ZNSt12_Vector_baseIP8TinyblobSaIS1_EE12_Vector_implC5Ev,comdat
	.align 2
	.weak	_ZNSt12_Vector_baseIP8TinyblobSaIS1_EE12_Vector_implC2Ev
	.type	_ZNSt12_Vector_baseIP8TinyblobSaIS1_EE12_Vector_implC2Ev, @function
_ZNSt12_Vector_baseIP8TinyblobSaIS1_EE12_Vector_implC2Ev:
.LFB12394:
	.loc 5 131 2
	.cfi_startproc
	endbr64
	pushq	%rbp
	.cfi_def_cfa_offset 16
	.cfi_offset 6, -16
	movq	%rsp, %rbp
	.cfi_def_cfa_register 6
	subq	$16, %rsp
	movq	%rdi, -8(%rbp)
.LBB58:
	.loc 5 133 19
	movq	-8(%rbp), %rax
	movq	%rax, %rdi
	call	_ZNSaIP8TinyblobEC2Ev
	movq	-8(%rbp), %rax
	movq	%rax, %rdi
	call	_ZNSt12_Vector_baseIP8TinyblobSaIS1_EE17_Vector_impl_dataC2Ev
.LBE58:
	.loc 5 134 4
	nop
	leave
	.cfi_def_cfa 7, 8
	ret
	.cfi_endproc
.LFE12394:
	.size	_ZNSt12_Vector_baseIP8TinyblobSaIS1_EE12_Vector_implC2Ev, .-_ZNSt12_Vector_baseIP8TinyblobSaIS1_EE12_Vector_implC2Ev
	.weak	_ZNSt12_Vector_baseIP8TinyblobSaIS1_EE12_Vector_implC1Ev
	.set	_ZNSt12_Vector_baseIP8TinyblobSaIS1_EE12_Vector_implC1Ev,_ZNSt12_Vector_baseIP8TinyblobSaIS1_EE12_Vector_implC2Ev
	.section	.text._ZNSaIP8TinyblobED2Ev,"axG",@progbits,_ZNSaIP8TinyblobED5Ev,comdat
	.align 2
	.weak	_ZNSaIP8TinyblobED2Ev
	.type	_ZNSaIP8TinyblobED2Ev, @function
_ZNSaIP8TinyblobED2Ev:
.LFB12397:
	.file 7 "/usr/include/c++/11/bits/allocator.h"
	.loc 7 174 7
	.cfi_startproc
	endbr64
	pushq	%rbp
	.cfi_def_cfa_offset 16
	.cfi_offset 6, -16
	movq	%rsp, %rbp
	.cfi_def_cfa_register 6
	movq	%rdi, -8(%rbp)
	.loc 7 174 39
	nop
	popq	%rbp
	.cfi_def_cfa 7, 8
	ret
	.cfi_endproc
.LFE12397:
	.size	_ZNSaIP8TinyblobED2Ev, .-_ZNSaIP8TinyblobED2Ev
	.weak	_ZNSaIP8TinyblobED1Ev
	.set	_ZNSaIP8TinyblobED1Ev,_ZNSaIP8TinyblobED2Ev
	.section	.text._ZNSt12_Vector_baseIP8TinyblobSaIS1_EED2Ev,"axG",@progbits,_ZNSt12_Vector_baseIP8TinyblobSaIS1_EED5Ev,comdat
	.align 2
	.weak	_ZNSt12_Vector_baseIP8TinyblobSaIS1_EED2Ev
	.type	_ZNSt12_Vector_baseIP8TinyblobSaIS1_EED2Ev, @function
_ZNSt12_Vector_baseIP8TinyblobSaIS1_EED2Ev:
.LFB12400:
	.loc 5 333 7
	.cfi_startproc
	.cfi_personality 0x9b,DW.ref.__gxx_personality_v0
	.cfi_lsda 0x1b,.LLSDA12400
	endbr64
	pushq	%rbp
	.cfi_def_cfa_offset 16
	.cfi_offset 6, -16
	movq	%rsp, %rbp
	.cfi_def_cfa_register 6
	subq	$16, %rsp
	movq	%rdi, -8(%rbp)
.LBB59:
	.loc 5 336 17
	movq	-8(%rbp), %rax
	movq	16(%rax), %rdx
	.loc 5 336 45
	movq	-8(%rbp), %rax
	movq	(%rax), %rcx
	.loc 5 336 35
	movq	%rdx, %rax
	subq	%rcx, %rax
	sarq	$3, %rax
	.loc 5 335 15
	movq	%rax, %rdx
	movq	-8(%rbp), %rax
	movq	(%rax), %rcx
	movq	-8(%rbp), %rax
	movq	%rcx, %rsi
	movq	%rax, %rdi
	call	_ZNSt12_Vector_baseIP8TinyblobSaIS1_EE13_M_deallocateEPS1_m
	.loc 5 337 7
	movq	-8(%rbp), %rax
	movq	%rax, %rdi
	call	_ZNSt12_Vector_baseIP8TinyblobSaIS1_EE12_Vector_implD1Ev
.LBE59:
	nop
	leave
	.cfi_def_cfa 7, 8
	ret
	.cfi_endproc
.LFE12400:
	.section	.gcc_except_table
.LLSDA12400:
	.byte	0xff
	.byte	0xff
	.byte	0x1
	.uleb128 .LLSDACSE12400-.LLSDACSB12400
.LLSDACSB12400:
.LLSDACSE12400:
	.section	.text._ZNSt12_Vector_baseIP8TinyblobSaIS1_EED2Ev,"axG",@progbits,_ZNSt12_Vector_baseIP8TinyblobSaIS1_EED5Ev,comdat
	.size	_ZNSt12_Vector_baseIP8TinyblobSaIS1_EED2Ev, .-_ZNSt12_Vector_baseIP8TinyblobSaIS1_EED2Ev
	.weak	_ZNSt12_Vector_baseIP8TinyblobSaIS1_EED1Ev
	.set	_ZNSt12_Vector_baseIP8TinyblobSaIS1_EED1Ev,_ZNSt12_Vector_baseIP8TinyblobSaIS1_EED2Ev
	.section	.text._ZNSt6vectorIP8TinyblobSaIS1_EE9push_backERKS1_,"axG",@progbits,_ZNSt6vectorIP8TinyblobSaIS1_EE9push_backERKS1_,comdat
	.align 2
	.weak	_ZNSt6vectorIP8TinyblobSaIS1_EE9push_backERKS1_
	.type	_ZNSt6vectorIP8TinyblobSaIS1_EE9push_backERKS1_, @function
_ZNSt6vectorIP8TinyblobSaIS1_EE9push_backERKS1_:
.LFB12402:
	.loc 5 1187 7
	.cfi_startproc
	endbr64
	pushq	%rbp
	.cfi_def_cfa_offset 16
	.cfi_offset 6, -16
	movq	%rsp, %rbp
	.cfi_def_cfa_register 6
	subq	$16, %rsp
	movq	%rdi, -8(%rbp)
	movq	%rsi, -16(%rbp)
	.loc 5 1189 20
	movq	-8(%rbp), %rax
	movq	8(%rax), %rdx
	.loc 5 1189 47
	movq	-8(%rbp), %rax
	movq	16(%rax), %rax
	.loc 5 1189 2
	cmpq	%rax, %rdx
	je	.L120
	.loc 5 1192 30
	movq	-8(%rbp), %rax
	movq	8(%rax), %rcx
	.loc 5 1192 37
	movq	-8(%rbp), %rax
	.loc 5 1192 30
	movq	-16(%rbp), %rdx
	movq	%rcx, %rsi
	movq	%rax, %rdi
	call	_ZNSt16allocator_traitsISaIP8TinyblobEE9constructIS1_JRKS1_EEEvRS2_PT_DpOT0_
	.loc 5 1194 22
	movq	-8(%rbp), %rax
	movq	8(%rax), %rax
	.loc 5 1194 6
	leaq	8(%rax), %rdx
	movq	-8(%rbp), %rax
	movq	%rdx, 8(%rax)
	.loc 5 1199 7
	jmp	.L122
.L120:
	.loc 5 1198 21
	movq	-8(%rbp), %rax
	movq	%rax, %rdi
	call	_ZNSt6vectorIP8TinyblobSaIS1_EE3endEv
	movq	%rax, %rcx
	movq	-16(%rbp), %rdx
	movq	-8(%rbp), %rax
	movq	%rcx, %rsi
	movq	%rax, %rdi
	call	_ZNSt6vectorIP8TinyblobSaIS1_EE17_M_realloc_insertIJRKS1_EEEvN9__gnu_cxx17__normal_iteratorIPS1_S3_EEDpOT_
.L122:
	.loc 5 1199 7
	nop
	leave
	.cfi_def_cfa 7, 8
	ret
	.cfi_endproc
.LFE12402:
	.size	_ZNSt6vectorIP8TinyblobSaIS1_EE9push_backERKS1_, .-_ZNSt6vectorIP8TinyblobSaIS1_EE9push_backERKS1_
	.section	.text._ZNSt6vectorIP8TinyblobSaIS1_EEixEm,"axG",@progbits,_ZNSt6vectorIP8TinyblobSaIS1_EEixEm,comdat
	.align 2
	.weak	_ZNSt6vectorIP8TinyblobSaIS1_EEixEm
	.type	_ZNSt6vectorIP8TinyblobSaIS1_EEixEm, @function
_ZNSt6vectorIP8TinyblobSaIS1_EEixEm:
.LFB12404:
	.loc 5 1043 7
	.cfi_startproc
	endbr64
	pushq	%rbp
	.cfi_def_cfa_offset 16
	.cfi_offset 6, -16
	movq	%rsp, %rbp
	.cfi_def_cfa_register 6
	movq	%rdi, -8(%rbp)
	movq	%rsi, -16(%rbp)
	.loc 5 1046 25
	movq	-8(%rbp), %rax
	movq	(%rax), %rdx
	.loc 5 1046 34
	movq	-16(%rbp), %rax
	salq	$3, %rax
	.loc 5 1046 39
	addq	%rdx, %rax
	.loc 5 1047 7
	popq	%rbp
	.cfi_def_cfa 7, 8
	ret
	.cfi_endproc
.LFE12404:
	.size	_ZNSt6vectorIP8TinyblobSaIS1_EEixEm, .-_ZNSt6vectorIP8TinyblobSaIS1_EEixEm
	.section	.text._ZNSaIP8TinyblobEC2Ev,"axG",@progbits,_ZNSaIP8TinyblobEC5Ev,comdat
	.align 2
	.weak	_ZNSaIP8TinyblobEC2Ev
	.type	_ZNSaIP8TinyblobEC2Ev, @function
_ZNSaIP8TinyblobEC2Ev:
.LFB12860:
	.loc 7 156 7
	.cfi_startproc
	endbr64
	pushq	%rbp
	.cfi_def_cfa_offset 16
	.cfi_offset 6, -16
	movq	%rsp, %rbp
	.cfi_def_cfa_register 6
	subq	$16, %rsp
	movq	%rdi, -8(%rbp)
.LBB60:
	.loc 7 156 36
	movq	-8(%rbp), %rax
	movq	%rax, %rdi
	call	_ZN9__gnu_cxx13new_allocatorIP8TinyblobEC2Ev
.LBE60:
	.loc 7 156 38
	nop
	leave
	.cfi_def_cfa 7, 8
	ret
	.cfi_endproc
.LFE12860:
	.size	_ZNSaIP8TinyblobEC2Ev, .-_ZNSaIP8TinyblobEC2Ev
	.weak	_ZNSaIP8TinyblobEC1Ev
	.set	_ZNSaIP8TinyblobEC1Ev,_ZNSaIP8TinyblobEC2Ev
	.section	.text._ZNSt12_Vector_baseIP8TinyblobSaIS1_EE17_Vector_impl_dataC2Ev,"axG",@progbits,_ZNSt12_Vector_baseIP8TinyblobSaIS1_EE17_Vector_impl_dataC5Ev,comdat
	.align 2
	.weak	_ZNSt12_Vector_baseIP8TinyblobSaIS1_EE17_Vector_impl_dataC2Ev
	.type	_ZNSt12_Vector_baseIP8TinyblobSaIS1_EE17_Vector_impl_dataC2Ev, @function
_ZNSt12_Vector_baseIP8TinyblobSaIS1_EE17_Vector_impl_dataC2Ev:
.LFB12863:
	.loc 5 97 2
	.cfi_startproc
	endbr64
	pushq	%rbp
	.cfi_def_cfa_offset 16
	.cfi_offset 6, -16
	movq	%rsp, %rbp
	.cfi_def_cfa_register 6
	movq	%rdi, -8(%rbp)
.LBB61:
	.loc 5 98 4
	movq	-8(%rbp), %rax
	movq	$0, (%rax)
	.loc 5 98 16
	movq	-8(%rbp), %rax
	movq	$0, 8(%rax)
	.loc 5 98 29
	movq	-8(%rbp), %rax
	movq	$0, 16(%rax)
.LBE61:
	.loc 5 99 4
	nop
	popq	%rbp
	.cfi_def_cfa 7, 8
	ret
	.cfi_endproc
.LFE12863:
	.size	_ZNSt12_Vector_baseIP8TinyblobSaIS1_EE17_Vector_impl_dataC2Ev, .-_ZNSt12_Vector_baseIP8TinyblobSaIS1_EE17_Vector_impl_dataC2Ev
	.weak	_ZNSt12_Vector_baseIP8TinyblobSaIS1_EE17_Vector_impl_dataC1Ev
	.set	_ZNSt12_Vector_baseIP8TinyblobSaIS1_EE17_Vector_impl_dataC1Ev,_ZNSt12_Vector_baseIP8TinyblobSaIS1_EE17_Vector_impl_dataC2Ev
	.section	.text._ZNSt12_Vector_baseIP8TinyblobSaIS1_EE13_M_deallocateEPS1_m,"axG",@progbits,_ZNSt12_Vector_baseIP8TinyblobSaIS1_EE13_M_deallocateEPS1_m,comdat
	.align 2
	.weak	_ZNSt12_Vector_baseIP8TinyblobSaIS1_EE13_M_deallocateEPS1_m
	.type	_ZNSt12_Vector_baseIP8TinyblobSaIS1_EE13_M_deallocateEPS1_m, @function
_ZNSt12_Vector_baseIP8TinyblobSaIS1_EE13_M_deallocateEPS1_m:
.LFB12865:
	.loc 5 350 7
	.cfi_startproc
	endbr64
	pushq	%rbp
	.cfi_def_cfa_offset 16
	.cfi_offset 6, -16
	movq	%rsp, %rbp
	.cfi_def_cfa_register 6
	subq	$32, %rsp
	movq	%rdi, -8(%rbp)
	movq	%rsi, -16(%rbp)
	movq	%rdx, -24(%rbp)
	.loc 5 353 2
	cmpq	$0, -16(%rbp)
	je	.L129
	.loc 5 354 20
	movq	-8(%rbp), %rax
	.loc 5 354 19
	movq	-24(%rbp), %rdx
	movq	-16(%rbp), %rcx
	movq	%rcx, %rsi
	movq	%rax, %rdi
	call	_ZNSt16allocator_traitsISaIP8TinyblobEE10deallocateERS2_PS1_m
.L129:
	.loc 5 355 7
	nop
	leave
	.cfi_def_cfa 7, 8
	ret
	.cfi_endproc
.LFE12865:
	.size	_ZNSt12_Vector_baseIP8TinyblobSaIS1_EE13_M_deallocateEPS1_m, .-_ZNSt12_Vector_baseIP8TinyblobSaIS1_EE13_M_deallocateEPS1_m
	.section	.text._ZSt12construct_atIP8TinyblobJRKS1_EEDTgsnwcvPvLi0E_T_pispcl7declvalIT0_EEEEPS5_DpOS6_,"axG",@progbits,_ZSt12construct_atIP8TinyblobJRKS1_EEDTgsnwcvPvLi0E_T_pispcl7declvalIT0_EEEEPS5_DpOS6_,comdat
	.weak	_ZSt12construct_atIP8TinyblobJRKS1_EEDTgsnwcvPvLi0E_T_pispcl7declvalIT0_EEEEPS5_DpOS6_
	.type	_ZSt12construct_atIP8TinyblobJRKS1_EEDTgsnwcvPvLi0E_T_pispcl7declvalIT0_EEEEPS5_DpOS6_, @function
_ZSt12construct_atIP8TinyblobJRKS1_EEDTgsnwcvPvLi0E_T_pispcl7declvalIT0_EEEEPS5_DpOS6_:
.LFB12867:
	.file 8 "/usr/include/c++/11/bits/stl_construct.h"
	.loc 8 94 5
	.cfi_startproc
	endbr64
	pushq	%rbp
	.cfi_def_cfa_offset 16
	.cfi_offset 6, -16
	movq	%rsp, %rbp
	.cfi_def_cfa_register 6
	pushq	%rbx
	subq	$24, %rsp
	.cfi_offset 3, -24
	movq	%rdi, -24(%rbp)
	movq	%rsi, -32(%rbp)
	.loc 8 97 62
	movq	-32(%rbp), %rax
	movq	%rax, %rdi
	call	_ZSt7forwardIRKP8TinyblobEOT_RNSt16remove_referenceIS4_E4typeE
	.loc 8 97 73
	movq	(%rax), %rbx
	.loc 8 97 20
	movq	-24(%rbp), %rax
	.loc 8 97 14
	movq	%rax, %rsi
	movl	$8, %edi
	call	_ZnwmPv
	movq	%rbx, (%rax)
	.loc 8 97 76
	movq	-8(%rbp), %rbx
	leave
	.cfi_def_cfa 7, 8
	ret
	.cfi_endproc
.LFE12867:
	.size	_ZSt12construct_atIP8TinyblobJRKS1_EEDTgsnwcvPvLi0E_T_pispcl7declvalIT0_EEEEPS5_DpOS6_, .-_ZSt12construct_atIP8TinyblobJRKS1_EEDTgsnwcvPvLi0E_T_pispcl7declvalIT0_EEEEPS5_DpOS6_
	.section	.text._ZNSt16allocator_traitsISaIP8TinyblobEE9constructIS1_JRKS1_EEEvRS2_PT_DpOT0_,"axG",@progbits,_ZNSt16allocator_traitsISaIP8TinyblobEE9constructIS1_JRKS1_EEEvRS2_PT_DpOT0_,comdat
	.weak	_ZNSt16allocator_traitsISaIP8TinyblobEE9constructIS1_JRKS1_EEEvRS2_PT_DpOT0_
	.type	_ZNSt16allocator_traitsISaIP8TinyblobEE9constructIS1_JRKS1_EEEvRS2_PT_DpOT0_, @function
_ZNSt16allocator_traitsISaIP8TinyblobEE9constructIS1_JRKS1_EEEvRS2_PT_DpOT0_:
.LFB12866:
	.file 9 "/usr/include/c++/11/bits/alloc_traits.h"
	.loc 9 511 2
	.cfi_startproc
	endbr64
	pushq	%rbp
	.cfi_def_cfa_offset 16
	.cfi_offset 6, -16
	movq	%rsp, %rbp
	.cfi_def_cfa_register 6
	subq	$32, %rsp
	movq	%rdi, -8(%rbp)
	movq	%rsi, -16(%rbp)
	movq	%rdx, -24(%rbp)
	.loc 9 518 21
	movq	-24(%rbp), %rax
	movq	%rax, %rdi
	call	_ZSt7forwardIRKP8TinyblobEOT_RNSt16remove_referenceIS4_E4typeE
	movq	%rax, %rdx
	movq	-16(%rbp), %rax
	movq	%rdx, %rsi
	movq	%rax, %rdi
	call	_ZSt12construct_atIP8TinyblobJRKS1_EEDTgsnwcvPvLi0E_T_pispcl7declvalIT0_EEEEPS5_DpOS6_
	.loc 9 520 2
	nop
	leave
	.cfi_def_cfa 7, 8
	ret
	.cfi_endproc
.LFE12866:
	.size	_ZNSt16allocator_traitsISaIP8TinyblobEE9constructIS1_JRKS1_EEEvRS2_PT_DpOT0_, .-_ZNSt16allocator_traitsISaIP8TinyblobEE9constructIS1_JRKS1_EEEvRS2_PT_DpOT0_
	.section	.text._ZNSt6vectorIP8TinyblobSaIS1_EE3endEv,"axG",@progbits,_ZNSt6vectorIP8TinyblobSaIS1_EE3endEv,comdat
	.align 2
	.weak	_ZNSt6vectorIP8TinyblobSaIS1_EE3endEv
	.type	_ZNSt6vectorIP8TinyblobSaIS1_EE3endEv, @function
_ZNSt6vectorIP8TinyblobSaIS1_EE3endEv:
.LFB12868:
	.loc 5 829 7
	.cfi_startproc
	endbr64
	pushq	%rbp
	.cfi_def_cfa_offset 16
	.cfi_offset 6, -16
	movq	%rsp, %rbp
	.cfi_def_cfa_register 6
	subq	$32, %rsp
	movq	%rdi, -24(%rbp)
	.loc 5 829 7
	movq	%fs:40, %rax
	movq	%rax, -8(%rbp)
	xorl	%eax, %eax
	.loc 5 830 39
	movq	-24(%rbp), %rax
	leaq	8(%rax), %rdx
	.loc 5 830 16
	leaq	-16(%rbp), %rax
	movq	%rdx, %rsi
	movq	%rax, %rdi
	call	_ZN9__gnu_cxx17__normal_iteratorIPP8TinyblobSt6vectorIS2_SaIS2_EEEC1ERKS3_
	.loc 5 830 48
	movq	-16(%rbp), %rax
	.loc 5 830 51
	movq	-8(%rbp), %rdx
	subq	%fs:40, %rdx
	je	.L135
	call	__stack_chk_fail@PLT
.L135:
	leave
	.cfi_def_cfa 7, 8
	ret
	.cfi_endproc
.LFE12868:
	.size	_ZNSt6vectorIP8TinyblobSaIS1_EE3endEv, .-_ZNSt6vectorIP8TinyblobSaIS1_EE3endEv
	.section	.rodata
.LC9:
	.string	"vector::_M_realloc_insert"
	.section	.text._ZNSt6vectorIP8TinyblobSaIS1_EE17_M_realloc_insertIJRKS1_EEEvN9__gnu_cxx17__normal_iteratorIPS1_S3_EEDpOT_,"axG",@progbits,_ZNSt6vectorIP8TinyblobSaIS1_EE17_M_realloc_insertIJRKS1_EEEvN9__gnu_cxx17__normal_iteratorIPS1_S3_EEDpOT_,comdat
	.align 2
	.weak	_ZNSt6vectorIP8TinyblobSaIS1_EE17_M_realloc_insertIJRKS1_EEEvN9__gnu_cxx17__normal_iteratorIPS1_S3_EEDpOT_
	.type	_ZNSt6vectorIP8TinyblobSaIS1_EE17_M_realloc_insertIJRKS1_EEEvN9__gnu_cxx17__normal_iteratorIPS1_S3_EEDpOT_, @function
_ZNSt6vectorIP8TinyblobSaIS1_EE17_M_realloc_insertIJRKS1_EEEvN9__gnu_cxx17__normal_iteratorIPS1_S3_EEDpOT_:
.LFB12869:
	.file 10 "/usr/include/c++/11/bits/vector.tcc"
	.loc 10 426 7
	.cfi_startproc
	endbr64
	pushq	%rbp
	.cfi_def_cfa_offset 16
	.cfi_offset 6, -16
	movq	%rsp, %rbp
	.cfi_def_cfa_register 6
	pushq	%rbx
	subq	$104, %rsp
	.cfi_offset 3, -24
	movq	%rdi, -88(%rbp)
	movq	%rsi, -96(%rbp)
	movq	%rdx, -104(%rbp)
	.loc 10 426 7
	movq	%fs:40, %rax
	movq	%rax, -24(%rbp)
	xorl	%eax, %eax
	.loc 10 436 14
	movq	-88(%rbp), %rax
	leaq	.LC9(%rip), %rdx
	movl	$1, %esi
	movq	%rax, %rdi
	call	_ZNKSt6vectorIP8TinyblobSaIS1_EE12_M_check_lenEmPKc
	movq	%rax, -72(%rbp)
	.loc 10 437 15
	movq	-88(%rbp), %rax
	movq	(%rax), %rax
	movq	%rax, -64(%rbp)
	.loc 10 438 15
	movq	-88(%rbp), %rax
	movq	8(%rax), %rax
	movq	%rax, -56(%rbp)
	.loc 10 439 58
	movq	-88(%rbp), %rax
	movq	%rax, %rdi
	call	_ZNSt6vectorIP8TinyblobSaIS1_EE5beginEv
	movq	%rax, -80(%rbp)
	.loc 10 439 51
	leaq	-80(%rbp), %rdx
	leaq	-96(%rbp), %rax
	movq	%rdx, %rsi
	movq	%rax, %rdi
	call	_ZN9__gnu_cxxmiIPP8TinyblobSt6vectorIS2_SaIS2_EEEENS_17__normal_iteratorIT_T0_E15difference_typeERKSA_SD_
	.loc 10 439 23
	movq	%rax, -48(%rbp)
	.loc 10 440 44
	movq	-88(%rbp), %rax
	movq	-72(%rbp), %rdx
	movq	%rdx, %rsi
	movq	%rax, %rdi
	call	_ZNSt12_Vector_baseIP8TinyblobSaIS1_EE11_M_allocateEm
	movq	%rax, -40(%rbp)
	.loc 10 441 15
	movq	-40(%rbp), %rax
	movq	%rax, -32(%rbp)
	.loc 10 449 28
	movq	-104(%rbp), %rax
	movq	%rax, %rdi
	call	_ZSt7forwardIRKP8TinyblobEOT_RNSt16remove_referenceIS4_E4typeE
	movq	%rax, %rdx
	.loc 10 450 20
	movq	-48(%rbp), %rax
	leaq	0(,%rax,8), %rcx
	.loc 10 449 28
	movq	-40(%rbp), %rax
	addq	%rax, %rcx
	.loc 10 449 35
	movq	-88(%rbp), %rax
	.loc 10 449 28
	movq	%rcx, %rsi
	movq	%rax, %rdi
	call	_ZNSt16allocator_traitsISaIP8TinyblobEE9constructIS1_JRKS1_EEEvRS2_PT_DpOT0_
	.loc 10 456 17
	movq	$0, -32(%rbp)
	.loc 10 462 39
	movq	-88(%rbp), %rax
	movq	%rax, %rdi
	call	_ZNSt12_Vector_baseIP8TinyblobSaIS1_EE19_M_get_Tp_allocatorEv
	movq	%rax, %rbx
	.loc 10 461 63
	leaq	-96(%rbp), %rax
	movq	%rax, %rdi
	call	_ZNK9__gnu_cxx17__normal_iteratorIPP8TinyblobSt6vectorIS2_SaIS2_EEE4baseEv
	.loc 10 461 34
	movq	(%rax), %rsi
	movq	-40(%rbp), %rdx
	movq	-64(%rbp), %rax
	movq	%rbx, %rcx
	movq	%rax, %rdi
	call	_ZNSt6vectorIP8TinyblobSaIS1_EE11_S_relocateEPS1_S4_S4_RS2_
	movq	%rax, -32(%rbp)
	.loc 10 464 8
	addq	$8, -32(%rbp)
	.loc 10 467 40
	movq	-88(%rbp), %rax
	movq	%rax, %rdi
	call	_ZNSt12_Vector_baseIP8TinyblobSaIS1_EE19_M_get_Tp_allocatorEv
	movq	%rax, %rbx
	.loc 10 466 50
	leaq	-96(%rbp), %rax
	movq	%rax, %rdi
	call	_ZNK9__gnu_cxx17__normal_iteratorIPP8TinyblobSt6vectorIS2_SaIS2_EEE4baseEv
	.loc 10 466 34
	movq	(%rax), %rax
	movq	-32(%rbp), %rdx
	movq	-56(%rbp), %rsi
	movq	%rbx, %rcx
	movq	%rax, %rdi
	call	_ZNSt6vectorIP8TinyblobSaIS1_EE11_S_relocateEPS1_S4_S4_RS2_
	movq	%rax, -32(%rbp)
	.loc 10 500 20
	movq	-88(%rbp), %rax
	.loc 10 501 21
	movq	-88(%rbp), %rdx
	movq	16(%rdx), %rdx
	.loc 10 501 39
	subq	-64(%rbp), %rdx
	sarq	$3, %rdx
	.loc 10 500 20
	movq	-64(%rbp), %rcx
	movq	%rcx, %rsi
	movq	%rax, %rdi
	call	_ZNSt12_Vector_baseIP8TinyblobSaIS1_EE13_M_deallocateEPS1_m
	.loc 10 502 30
	movq	-88(%rbp), %rax
	movq	-40(%rbp), %rdx
	movq	%rdx, (%rax)
	.loc 10 503 31
	movq	-88(%rbp), %rax
	movq	-32(%rbp), %rdx
	movq	%rdx, 8(%rax)
	.loc 10 504 53
	movq	-72(%rbp), %rax
	leaq	0(,%rax,8), %rdx
	movq	-40(%rbp), %rax
	addq	%rax, %rdx
	.loc 10 504 39
	movq	-88(%rbp), %rax
	movq	%rdx, 16(%rax)
	.loc 10 505 5
	nop
	movq	-24(%rbp), %rax
	subq	%fs:40, %rax
	je	.L137
	call	__stack_chk_fail@PLT
.L137:
	movq	-8(%rbp), %rbx
	leave
	.cfi_def_cfa 7, 8
	ret
	.cfi_endproc
.LFE12869:
	.size	_ZNSt6vectorIP8TinyblobSaIS1_EE17_M_realloc_insertIJRKS1_EEEvN9__gnu_cxx17__normal_iteratorIPS1_S3_EEDpOT_, .-_ZNSt6vectorIP8TinyblobSaIS1_EE17_M_realloc_insertIJRKS1_EEEvN9__gnu_cxx17__normal_iteratorIPS1_S3_EEDpOT_
	.section	.text._ZN9__gnu_cxx13new_allocatorIP8TinyblobEC2Ev,"axG",@progbits,_ZN9__gnu_cxx13new_allocatorIP8TinyblobEC5Ev,comdat
	.align 2
	.weak	_ZN9__gnu_cxx13new_allocatorIP8TinyblobEC2Ev
	.type	_ZN9__gnu_cxx13new_allocatorIP8TinyblobEC2Ev, @function
_ZN9__gnu_cxx13new_allocatorIP8TinyblobEC2Ev:
.LFB13110:
	.file 11 "/usr/include/c++/11/ext/new_allocator.h"
	.loc 11 79 7
	.cfi_startproc
	endbr64
	pushq	%rbp
	.cfi_def_cfa_offset 16
	.cfi_offset 6, -16
	movq	%rsp, %rbp
	.cfi_def_cfa_register 6
	movq	%rdi, -8(%rbp)
	.loc 11 79 47
	nop
	popq	%rbp
	.cfi_def_cfa 7, 8
	ret
	.cfi_endproc
.LFE13110:
	.size	_ZN9__gnu_cxx13new_allocatorIP8TinyblobEC2Ev, .-_ZN9__gnu_cxx13new_allocatorIP8TinyblobEC2Ev
	.weak	_ZN9__gnu_cxx13new_allocatorIP8TinyblobEC1Ev
	.set	_ZN9__gnu_cxx13new_allocatorIP8TinyblobEC1Ev,_ZN9__gnu_cxx13new_allocatorIP8TinyblobEC2Ev
	.section	.text._ZNSt16allocator_traitsISaIP8TinyblobEE10deallocateERS2_PS1_m,"axG",@progbits,_ZNSt16allocator_traitsISaIP8TinyblobEE10deallocateERS2_PS1_m,comdat
	.weak	_ZNSt16allocator_traitsISaIP8TinyblobEE10deallocateERS2_PS1_m
	.type	_ZNSt16allocator_traitsISaIP8TinyblobEE10deallocateERS2_PS1_m, @function
_ZNSt16allocator_traitsISaIP8TinyblobEE10deallocateERS2_PS1_m:
.LFB13112:
	.loc 9 495 7
	.cfi_startproc
	endbr64
	pushq	%rbp
	.cfi_def_cfa_offset 16
	.cfi_offset 6, -16
	movq	%rsp, %rbp
	.cfi_def_cfa_register 6
	subq	$64, %rsp
	movq	%rdi, -40(%rbp)
	movq	%rsi, -48(%rbp)
	movq	%rdx, -56(%rbp)
	movq	-40(%rbp), %rax
	movq	%rax, -24(%rbp)
	movq	-48(%rbp), %rax
	movq	%rax, -16(%rbp)
	movq	-56(%rbp), %rax
	movq	%rax, -8(%rbp)
.LBB62:
.LBB63:
	.loc 7 193 32
	call	_ZSt21is_constant_evaluatedv
	.loc 7 193 2
	testb	%al, %al
	je	.L140
	.loc 7 195 23
	movq	-16(%rbp), %rax
	movq	%rax, %rdi
	call	_ZdlPv@PLT
	.loc 7 196 6
	jmp	.L141
.L140:
	.loc 7 199 35
	movq	-8(%rbp), %rdx
	movq	-16(%rbp), %rcx
	movq	-24(%rbp), %rax
	movq	%rcx, %rsi
	movq	%rax, %rdi
	call	_ZN9__gnu_cxx13new_allocatorIP8TinyblobE10deallocateEPS2_m
.LBE63:
.LBE62:
	.loc 9 496 35
	nop
.L141:
	nop
	leave
	.cfi_def_cfa 7, 8
	ret
	.cfi_endproc
.LFE13112:
	.size	_ZNSt16allocator_traitsISaIP8TinyblobEE10deallocateERS2_PS1_m, .-_ZNSt16allocator_traitsISaIP8TinyblobEE10deallocateERS2_PS1_m
	.section	.text._ZSt7forwardIRKP8TinyblobEOT_RNSt16remove_referenceIS4_E4typeE,"axG",@progbits,_ZSt7forwardIRKP8TinyblobEOT_RNSt16remove_referenceIS4_E4typeE,comdat
	.weak	_ZSt7forwardIRKP8TinyblobEOT_RNSt16remove_referenceIS4_E4typeE
	.type	_ZSt7forwardIRKP8TinyblobEOT_RNSt16remove_referenceIS4_E4typeE, @function
_ZSt7forwardIRKP8TinyblobEOT_RNSt16remove_referenceIS4_E4typeE:
.LFB13113:
	.file 12 "/usr/include/c++/11/bits/move.h"
	.loc 12 77 5
	.cfi_startproc
	endbr64
	pushq	%rbp
	.cfi_def_cfa_offset 16
	.cfi_offset 6, -16
	movq	%rsp, %rbp
	.cfi_def_cfa_register 6
	movq	%rdi, -8(%rbp)
	.loc 12 78 36
	movq	-8(%rbp), %rax
	.loc 12 78 39
	popq	%rbp
	.cfi_def_cfa 7, 8
	ret
	.cfi_endproc
.LFE13113:
	.size	_ZSt7forwardIRKP8TinyblobEOT_RNSt16remove_referenceIS4_E4typeE, .-_ZSt7forwardIRKP8TinyblobEOT_RNSt16remove_referenceIS4_E4typeE
	.section	.text._ZN9__gnu_cxx17__normal_iteratorIPP8TinyblobSt6vectorIS2_SaIS2_EEEC2ERKS3_,"axG",@progbits,_ZN9__gnu_cxx17__normal_iteratorIPP8TinyblobSt6vectorIS2_SaIS2_EEEC5ERKS3_,comdat
	.align 2
	.weak	_ZN9__gnu_cxx17__normal_iteratorIPP8TinyblobSt6vectorIS2_SaIS2_EEEC2ERKS3_
	.type	_ZN9__gnu_cxx17__normal_iteratorIPP8TinyblobSt6vectorIS2_SaIS2_EEEC2ERKS3_, @function
_ZN9__gnu_cxx17__normal_iteratorIPP8TinyblobSt6vectorIS2_SaIS2_EEEC2ERKS3_:
.LFB13115:
	.file 13 "/usr/include/c++/11/bits/stl_iterator.h"
	.loc 13 1010 7
	.cfi_startproc
	endbr64
	pushq	%rbp
	.cfi_def_cfa_offset 16
	.cfi_offset 6, -16
	movq	%rsp, %rbp
	.cfi_def_cfa_register 6
	movq	%rdi, -8(%rbp)
	movq	%rsi, -16(%rbp)
.LBB64:
	.loc 13 1011 9
	movq	-16(%rbp), %rax
	movq	(%rax), %rdx
	movq	-8(%rbp), %rax
	movq	%rdx, (%rax)
.LBE64:
	.loc 13 1011 27
	nop
	popq	%rbp
	.cfi_def_cfa 7, 8
	ret
	.cfi_endproc
.LFE13115:
	.size	_ZN9__gnu_cxx17__normal_iteratorIPP8TinyblobSt6vectorIS2_SaIS2_EEEC2ERKS3_, .-_ZN9__gnu_cxx17__normal_iteratorIPP8TinyblobSt6vectorIS2_SaIS2_EEEC2ERKS3_
	.weak	_ZN9__gnu_cxx17__normal_iteratorIPP8TinyblobSt6vectorIS2_SaIS2_EEEC1ERKS3_
	.set	_ZN9__gnu_cxx17__normal_iteratorIPP8TinyblobSt6vectorIS2_SaIS2_EEEC1ERKS3_,_ZN9__gnu_cxx17__normal_iteratorIPP8TinyblobSt6vectorIS2_SaIS2_EEEC2ERKS3_
	.section	.text._ZNKSt6vectorIP8TinyblobSaIS1_EE12_M_check_lenEmPKc,"axG",@progbits,_ZNKSt6vectorIP8TinyblobSaIS1_EE12_M_check_lenEmPKc,comdat
	.align 2
	.weak	_ZNKSt6vectorIP8TinyblobSaIS1_EE12_M_check_lenEmPKc
	.type	_ZNKSt6vectorIP8TinyblobSaIS1_EE12_M_check_lenEmPKc, @function
_ZNKSt6vectorIP8TinyblobSaIS1_EE12_M_check_lenEmPKc:
.LFB13117:
	.loc 5 1756 7
	.cfi_startproc
	endbr64
	pushq	%rbp
	.cfi_def_cfa_offset 16
	.cfi_offset 6, -16
	movq	%rsp, %rbp
	.cfi_def_cfa_register 6
	pushq	%rbx
	subq	$72, %rsp
	.cfi_offset 3, -24
	movq	%rdi, -56(%rbp)
	movq	%rsi, -64(%rbp)
	movq	%rdx, -72(%rbp)
	.loc 5 1756 7
	movq	%fs:40, %rax
	movq	%rax, -24(%rbp)
	xorl	%eax, %eax
	.loc 5 1758 14
	movq	-56(%rbp), %rax
	movq	%rax, %rdi
	call	_ZNKSt6vectorIP8TinyblobSaIS1_EE8max_sizeEv
	movq	%rax, %rbx
	.loc 5 1758 23
	movq	-56(%rbp), %rax
	movq	%rax, %rdi
	call	_ZNKSt6vectorIP8TinyblobSaIS1_EE4sizeEv
	.loc 5 1758 17
	subq	%rax, %rbx
	movq	%rbx, %rdx
	.loc 5 1758 26
	movq	-64(%rbp), %rax
	cmpq	%rax, %rdx
	setb	%al
	.loc 5 1758 2
	testb	%al, %al
	je	.L146
	.loc 5 1759 24
	movq	-72(%rbp), %rax
	movq	%rax, %rdi
	call	_ZSt20__throw_length_errorPKc@PLT
.L146:
	.loc 5 1761 30
	movq	-56(%rbp), %rax
	movq	%rax, %rdi
	call	_ZNKSt6vectorIP8TinyblobSaIS1_EE4sizeEv
	movq	%rax, %rbx
	.loc 5 1761 50
	movq	-56(%rbp), %rax
	movq	%rax, %rdi
	call	_ZNKSt6vectorIP8TinyblobSaIS1_EE4sizeEv
	movq	%rax, -40(%rbp)
	.loc 5 1761 45
	leaq	-64(%rbp), %rdx
	leaq	-40(%rbp), %rax
	movq	%rdx, %rsi
	movq	%rax, %rdi
	call	_ZSt3maxImERKT_S2_S2_
	.loc 5 1761 33
	movq	(%rax), %rax
	.loc 5 1761 18
	addq	%rbx, %rax
	movq	%rax, -32(%rbp)
	.loc 5 1762 22
	movq	-56(%rbp), %rax
	movq	%rax, %rdi
	call	_ZNKSt6vectorIP8TinyblobSaIS1_EE4sizeEv
	.loc 5 1762 48
	cmpq	%rax, -32(%rbp)
	jb	.L147
	.loc 5 1762 44 discriminator 2
	movq	-56(%rbp), %rax
	movq	%rax, %rdi
	call	_ZNKSt6vectorIP8TinyblobSaIS1_EE8max_sizeEv
	.loc 5 1762 25 discriminator 2
	cmpq	%rax, -32(%rbp)
	jbe	.L148
.L147:
	.loc 5 1762 58 discriminator 3
	movq	-56(%rbp), %rax
	movq	%rax, %rdi
	call	_ZNKSt6vectorIP8TinyblobSaIS1_EE8max_sizeEv
	.loc 5 1762 48 discriminator 3
	jmp	.L149
.L148:
	.loc 5 1762 48 is_stmt 0 discriminator 4
	movq	-32(%rbp), %rax
.L149:
	.loc 5 1763 7 is_stmt 1 discriminator 6
	movq	-24(%rbp), %rdx
	subq	%fs:40, %rdx
	je	.L151
	.loc 5 1763 7 is_stmt 0
	call	__stack_chk_fail@PLT
.L151:
	movq	-8(%rbp), %rbx
	leave
	.cfi_def_cfa 7, 8
	ret
	.cfi_endproc
.LFE13117:
	.size	_ZNKSt6vectorIP8TinyblobSaIS1_EE12_M_check_lenEmPKc, .-_ZNKSt6vectorIP8TinyblobSaIS1_EE12_M_check_lenEmPKc
	.section	.text._ZNSt6vectorIP8TinyblobSaIS1_EE5beginEv,"axG",@progbits,_ZNSt6vectorIP8TinyblobSaIS1_EE5beginEv,comdat
	.align 2
	.weak	_ZNSt6vectorIP8TinyblobSaIS1_EE5beginEv
	.type	_ZNSt6vectorIP8TinyblobSaIS1_EE5beginEv, @function
_ZNSt6vectorIP8TinyblobSaIS1_EE5beginEv:
.LFB13118:
	.loc 5 811 7 is_stmt 1
	.cfi_startproc
	endbr64
	pushq	%rbp
	.cfi_def_cfa_offset 16
	.cfi_offset 6, -16
	movq	%rsp, %rbp
	.cfi_def_cfa_register 6
	subq	$32, %rsp
	movq	%rdi, -24(%rbp)
	.loc 5 811 7
	movq	%fs:40, %rax
	movq	%rax, -8(%rbp)
	xorl	%eax, %eax
	.loc 5 812 39
	movq	-24(%rbp), %rdx
	.loc 5 812 16
	leaq	-16(%rbp), %rax
	movq	%rdx, %rsi
	movq	%rax, %rdi
	call	_ZN9__gnu_cxx17__normal_iteratorIPP8TinyblobSt6vectorIS2_SaIS2_EEEC1ERKS3_
	.loc 5 812 47
	movq	-16(%rbp), %rax
	.loc 5 812 50
	movq	-8(%rbp), %rdx
	subq	%fs:40, %rdx
	je	.L154
	call	__stack_chk_fail@PLT
.L154:
	leave
	.cfi_def_cfa 7, 8
	ret
	.cfi_endproc
.LFE13118:
	.size	_ZNSt6vectorIP8TinyblobSaIS1_EE5beginEv, .-_ZNSt6vectorIP8TinyblobSaIS1_EE5beginEv
	.section	.text._ZN9__gnu_cxxmiIPP8TinyblobSt6vectorIS2_SaIS2_EEEENS_17__normal_iteratorIT_T0_E15difference_typeERKSA_SD_,"axG",@progbits,_ZN9__gnu_cxxmiIPP8TinyblobSt6vectorIS2_SaIS2_EEEENS_17__normal_iteratorIT_T0_E15difference_typeERKSA_SD_,comdat
	.weak	_ZN9__gnu_cxxmiIPP8TinyblobSt6vectorIS2_SaIS2_EEEENS_17__normal_iteratorIT_T0_E15difference_typeERKSA_SD_
	.type	_ZN9__gnu_cxxmiIPP8TinyblobSt6vectorIS2_SaIS2_EEEENS_17__normal_iteratorIT_T0_E15difference_typeERKSA_SD_, @function
_ZN9__gnu_cxxmiIPP8TinyblobSt6vectorIS2_SaIS2_EEEENS_17__normal_iteratorIT_T0_E15difference_typeERKSA_SD_:
.LFB13119:
	.loc 13 1234 5
	.cfi_startproc
	endbr64
	pushq	%rbp
	.cfi_def_cfa_offset 16
	.cfi_offset 6, -16
	movq	%rsp, %rbp
	.cfi_def_cfa_register 6
	pushq	%rbx
	subq	$24, %rsp
	.cfi_offset 3, -24
	movq	%rdi, -24(%rbp)
	movq	%rsi, -32(%rbp)
	.loc 13 1237 24
	movq	-24(%rbp), %rax
	movq	%rax, %rdi
	call	_ZNK9__gnu_cxx17__normal_iteratorIPP8TinyblobSt6vectorIS2_SaIS2_EEE4baseEv
	.loc 13 1237 27
	movq	(%rax), %rbx
	.loc 13 1237 39
	movq	-32(%rbp), %rax
	movq	%rax, %rdi
	call	_ZNK9__gnu_cxx17__normal_iteratorIPP8TinyblobSt6vectorIS2_SaIS2_EEE4baseEv
	.loc 13 1237 27
	movq	(%rax), %rdx
	movq	%rbx, %rax
	subq	%rdx, %rax
	.loc 13 1237 40
	sarq	$3, %rax
	.loc 13 1237 43
	movq	-8(%rbp), %rbx
	leave
	.cfi_def_cfa 7, 8
	ret
	.cfi_endproc
.LFE13119:
	.size	_ZN9__gnu_cxxmiIPP8TinyblobSt6vectorIS2_SaIS2_EEEENS_17__normal_iteratorIT_T0_E15difference_typeERKSA_SD_, .-_ZN9__gnu_cxxmiIPP8TinyblobSt6vectorIS2_SaIS2_EEEENS_17__normal_iteratorIT_T0_E15difference_typeERKSA_SD_
	.section	.text._ZNSt12_Vector_baseIP8TinyblobSaIS1_EE11_M_allocateEm,"axG",@progbits,_ZNSt12_Vector_baseIP8TinyblobSaIS1_EE11_M_allocateEm,comdat
	.align 2
	.weak	_ZNSt12_Vector_baseIP8TinyblobSaIS1_EE11_M_allocateEm
	.type	_ZNSt12_Vector_baseIP8TinyblobSaIS1_EE11_M_allocateEm, @function
_ZNSt12_Vector_baseIP8TinyblobSaIS1_EE11_M_allocateEm:
.LFB13120:
	.loc 5 343 7
	.cfi_startproc
	endbr64
	pushq	%rbp
	.cfi_def_cfa_offset 16
	.cfi_offset 6, -16
	movq	%rsp, %rbp
	.cfi_def_cfa_register 6
	subq	$16, %rsp
	movq	%rdi, -8(%rbp)
	movq	%rsi, -16(%rbp)
	.loc 5 346 18
	cmpq	$0, -16(%rbp)
	je	.L158
	.loc 5 346 34 discriminator 1
	movq	-8(%rbp), %rax
	.loc 5 346 33 discriminator 1
	movq	-16(%rbp), %rdx
	movq	%rdx, %rsi
	movq	%rax, %rdi
	call	_ZNSt16allocator_traitsISaIP8TinyblobEE8allocateERS2_m
	.loc 5 346 58 discriminator 1
	jmp	.L160
.L158:
	.loc 5 346 18 discriminator 2
	movl	$0, %eax
.L160:
	.loc 5 347 7 discriminator 5
	leave
	.cfi_def_cfa 7, 8
	ret
	.cfi_endproc
.LFE13120:
	.size	_ZNSt12_Vector_baseIP8TinyblobSaIS1_EE11_M_allocateEm, .-_ZNSt12_Vector_baseIP8TinyblobSaIS1_EE11_M_allocateEm
	.section	.text._ZNSt6vectorIP8TinyblobSaIS1_EE11_S_relocateEPS1_S4_S4_RS2_,"axG",@progbits,_ZNSt6vectorIP8TinyblobSaIS1_EE11_S_relocateEPS1_S4_S4_RS2_,comdat
	.weak	_ZNSt6vectorIP8TinyblobSaIS1_EE11_S_relocateEPS1_S4_S4_RS2_
	.type	_ZNSt6vectorIP8TinyblobSaIS1_EE11_S_relocateEPS1_S4_S4_RS2_, @function
_ZNSt6vectorIP8TinyblobSaIS1_EE11_S_relocateEPS1_S4_S4_RS2_:
.LFB13121:
	.loc 5 465 7
	.cfi_startproc
	endbr64
	pushq	%rbp
	.cfi_def_cfa_offset 16
	.cfi_offset 6, -16
	movq	%rsp, %rbp
	.cfi_def_cfa_register 6
	subq	$32, %rsp
	movq	%rdi, -8(%rbp)
	movq	%rsi, -16(%rbp)
	movq	%rdx, -24(%rbp)
	movq	%rcx, -32(%rbp)
	.loc 5 469 23
	movq	-32(%rbp), %rcx
	movq	-24(%rbp), %rdx
	movq	-16(%rbp), %rsi
	movq	-8(%rbp), %rax
	movq	%rax, %rdi
	call	_ZNSt6vectorIP8TinyblobSaIS1_EE14_S_do_relocateEPS1_S4_S4_RS2_St17integral_constantIbLb1EE
	.loc 5 470 7
	leave
	.cfi_def_cfa 7, 8
	ret
	.cfi_endproc
.LFE13121:
	.size	_ZNSt6vectorIP8TinyblobSaIS1_EE11_S_relocateEPS1_S4_S4_RS2_, .-_ZNSt6vectorIP8TinyblobSaIS1_EE11_S_relocateEPS1_S4_S4_RS2_
	.section	.text._ZNK9__gnu_cxx17__normal_iteratorIPP8TinyblobSt6vectorIS2_SaIS2_EEE4baseEv,"axG",@progbits,_ZNK9__gnu_cxx17__normal_iteratorIPP8TinyblobSt6vectorIS2_SaIS2_EEE4baseEv,comdat
	.align 2
	.weak	_ZNK9__gnu_cxx17__normal_iteratorIPP8TinyblobSt6vectorIS2_SaIS2_EEE4baseEv
	.type	_ZNK9__gnu_cxx17__normal_iteratorIPP8TinyblobSt6vectorIS2_SaIS2_EEE4baseEv, @function
_ZNK9__gnu_cxx17__normal_iteratorIPP8TinyblobSt6vectorIS2_SaIS2_EEE4baseEv:
.LFB13122:
	.loc 13 1088 7
	.cfi_startproc
	endbr64
	pushq	%rbp
	.cfi_def_cfa_offset 16
	.cfi_offset 6, -16
	movq	%rsp, %rbp
	.cfi_def_cfa_register 6
	movq	%rdi, -8(%rbp)
	.loc 13 1089 16
	movq	-8(%rbp), %rax
	.loc 13 1089 28
	popq	%rbp
	.cfi_def_cfa 7, 8
	ret
	.cfi_endproc
.LFE13122:
	.size	_ZNK9__gnu_cxx17__normal_iteratorIPP8TinyblobSt6vectorIS2_SaIS2_EEE4baseEv, .-_ZNK9__gnu_cxx17__normal_iteratorIPP8TinyblobSt6vectorIS2_SaIS2_EEE4baseEv
	.section	.text._ZNSt12_Vector_baseIP8TinyblobSaIS1_EE19_M_get_Tp_allocatorEv,"axG",@progbits,_ZNSt12_Vector_baseIP8TinyblobSaIS1_EE19_M_get_Tp_allocatorEv,comdat
	.align 2
	.weak	_ZNSt12_Vector_baseIP8TinyblobSaIS1_EE19_M_get_Tp_allocatorEv
	.type	_ZNSt12_Vector_baseIP8TinyblobSaIS1_EE19_M_get_Tp_allocatorEv, @function
_ZNSt12_Vector_baseIP8TinyblobSaIS1_EE19_M_get_Tp_allocatorEv:
.LFB13123:
	.loc 5 276 7
	.cfi_startproc
	endbr64
	pushq	%rbp
	.cfi_def_cfa_offset 16
	.cfi_offset 6, -16
	movq	%rsp, %rbp
	.cfi_def_cfa_register 6
	movq	%rdi, -8(%rbp)
	.loc 5 277 22
	movq	-8(%rbp), %rax
	.loc 5 277 31
	popq	%rbp
	.cfi_def_cfa 7, 8
	ret
	.cfi_endproc
.LFE13123:
	.size	_ZNSt12_Vector_baseIP8TinyblobSaIS1_EE19_M_get_Tp_allocatorEv, .-_ZNSt12_Vector_baseIP8TinyblobSaIS1_EE19_M_get_Tp_allocatorEv
	.section	.text._ZSt8_DestroyIPP8TinyblobS1_EvT_S3_RSaIT0_E,"axG",@progbits,_ZSt8_DestroyIPP8TinyblobS1_EvT_S3_RSaIT0_E,comdat
	.weak	_ZSt8_DestroyIPP8TinyblobS1_EvT_S3_RSaIT0_E
	.type	_ZSt8_DestroyIPP8TinyblobS1_EvT_S3_RSaIT0_E, @function
_ZSt8_DestroyIPP8TinyblobS1_EvT_S3_RSaIT0_E:
.LFB13125:
	.loc 9 851 5
	.cfi_startproc
	endbr64
	pushq	%rbp
	.cfi_def_cfa_offset 16
	.cfi_offset 6, -16
	movq	%rsp, %rbp
	.cfi_def_cfa_register 6
	subq	$32, %rsp
	movq	%rdi, -8(%rbp)
	movq	%rsi, -16(%rbp)
	movq	%rdx, -24(%rbp)
	.loc 9 854 15
	movq	-16(%rbp), %rdx
	movq	-8(%rbp), %rax
	movq	%rdx, %rsi
	movq	%rax, %rdi
	call	_ZSt8_DestroyIPP8TinyblobEvT_S3_
	.loc 9 855 5
	nop
	leave
	.cfi_def_cfa 7, 8
	ret
	.cfi_endproc
.LFE13125:
	.size	_ZSt8_DestroyIPP8TinyblobS1_EvT_S3_RSaIT0_E, .-_ZSt8_DestroyIPP8TinyblobS1_EvT_S3_RSaIT0_E
	.section	.text._ZNKSt6vectorIP8TinyblobSaIS1_EE8max_sizeEv,"axG",@progbits,_ZNKSt6vectorIP8TinyblobSaIS1_EE8max_sizeEv,comdat
	.align 2
	.weak	_ZNKSt6vectorIP8TinyblobSaIS1_EE8max_sizeEv
	.type	_ZNKSt6vectorIP8TinyblobSaIS1_EE8max_sizeEv, @function
_ZNKSt6vectorIP8TinyblobSaIS1_EE8max_sizeEv:
.LFB13285:
	.loc 5 923 7
	.cfi_startproc
	endbr64
	pushq	%rbp
	.cfi_def_cfa_offset 16
	.cfi_offset 6, -16
	movq	%rsp, %rbp
	.cfi_def_cfa_register 6
	subq	$16, %rsp
	movq	%rdi, -8(%rbp)
	.loc 5 924 47
	movq	-8(%rbp), %rax
	movq	%rax, %rdi
	call	_ZNKSt12_Vector_baseIP8TinyblobSaIS1_EE19_M_get_Tp_allocatorEv
	.loc 5 924 27
	movq	%rax, %rdi
	call	_ZNSt6vectorIP8TinyblobSaIS1_EE11_S_max_sizeERKS2_
	.loc 5 924 52
	leave
	.cfi_def_cfa 7, 8
	ret
	.cfi_endproc
.LFE13285:
	.size	_ZNKSt6vectorIP8TinyblobSaIS1_EE8max_sizeEv, .-_ZNKSt6vectorIP8TinyblobSaIS1_EE8max_sizeEv
	.section	.text._ZNKSt6vectorIP8TinyblobSaIS1_EE4sizeEv,"axG",@progbits,_ZNKSt6vectorIP8TinyblobSaIS1_EE4sizeEv,comdat
	.align 2
	.weak	_ZNKSt6vectorIP8TinyblobSaIS1_EE4sizeEv
	.type	_ZNKSt6vectorIP8TinyblobSaIS1_EE4sizeEv, @function
_ZNKSt6vectorIP8TinyblobSaIS1_EE4sizeEv:
.LFB13286:
	.loc 5 918 7
	.cfi_startproc
	endbr64
	pushq	%rbp
	.cfi_def_cfa_offset 16
	.cfi_offset 6, -16
	movq	%rsp, %rbp
	.cfi_def_cfa_register 6
	movq	%rdi, -8(%rbp)
	.loc 5 919 40
	movq	-8(%rbp), %rax
	movq	8(%rax), %rdx
	.loc 5 919 66
	movq	-8(%rbp), %rax
	movq	(%rax), %rcx
	.loc 5 919 50
	movq	%rdx, %rax
	subq	%rcx, %rax
	sarq	$3, %rax
	.loc 5 919 77
	popq	%rbp
	.cfi_def_cfa 7, 8
	ret
	.cfi_endproc
.LFE13286:
	.size	_ZNKSt6vectorIP8TinyblobSaIS1_EE4sizeEv, .-_ZNKSt6vectorIP8TinyblobSaIS1_EE4sizeEv
	.section	.text._ZNSt16allocator_traitsISaIP8TinyblobEE8allocateERS2_m,"axG",@progbits,_ZNSt16allocator_traitsISaIP8TinyblobEE8allocateERS2_m,comdat
	.weak	_ZNSt16allocator_traitsISaIP8TinyblobEE8allocateERS2_m
	.type	_ZNSt16allocator_traitsISaIP8TinyblobEE8allocateERS2_m, @function
_ZNSt16allocator_traitsISaIP8TinyblobEE8allocateERS2_m:
.LFB13287:
	.loc 9 463 7
	.cfi_startproc
	endbr64
	pushq	%rbp
	.cfi_def_cfa_offset 16
	.cfi_offset 6, -16
	movq	%rsp, %rbp
	.cfi_def_cfa_register 6
	subq	$32, %rsp
	movq	%rdi, -24(%rbp)
	movq	%rsi, -32(%rbp)
	movq	-24(%rbp), %rax
	movq	%rax, -16(%rbp)
	movq	-32(%rbp), %rax
	movq	%rax, -8(%rbp)
.LBB65:
.LBB66:
	.loc 7 182 32
	call	_ZSt21is_constant_evaluatedv
	.loc 7 182 2
	testb	%al, %al
	je	.L173
	.loc 7 183 43
	movq	-8(%rbp), %rax
	salq	$3, %rax
	movq	%rax, %rdi
	call	_Znwm@PLT
	.loc 7 183 62
	jmp	.L174
.L173:
	.loc 7 185 40
	movq	-8(%rbp), %rcx
	movq	-16(%rbp), %rax
	movl	$0, %edx
	movq	%rcx, %rsi
	movq	%rax, %rdi
	call	_ZN9__gnu_cxx13new_allocatorIP8TinyblobE8allocateEmPKv
	.loc 7 185 47
	nop
.L174:
.LBE66:
.LBE65:
	.loc 9 464 35
	leave
	.cfi_def_cfa 7, 8
	ret
	.cfi_endproc
.LFE13287:
	.size	_ZNSt16allocator_traitsISaIP8TinyblobEE8allocateERS2_m, .-_ZNSt16allocator_traitsISaIP8TinyblobEE8allocateERS2_m
	.section	.text._ZNSt6vectorIP8TinyblobSaIS1_EE14_S_do_relocateEPS1_S4_S4_RS2_St17integral_constantIbLb1EE,"axG",@progbits,_ZNSt6vectorIP8TinyblobSaIS1_EE14_S_do_relocateEPS1_S4_S4_RS2_St17integral_constantIbLb1EE,comdat
	.weak	_ZNSt6vectorIP8TinyblobSaIS1_EE14_S_do_relocateEPS1_S4_S4_RS2_St17integral_constantIbLb1EE
	.type	_ZNSt6vectorIP8TinyblobSaIS1_EE14_S_do_relocateEPS1_S4_S4_RS2_St17integral_constantIbLb1EE, @function
_ZNSt6vectorIP8TinyblobSaIS1_EE14_S_do_relocateEPS1_S4_S4_RS2_St17integral_constantIbLb1EE:
.LFB13288:
	.loc 5 453 7
	.cfi_startproc
	endbr64
	pushq	%rbp
	.cfi_def_cfa_offset 16
	.cfi_offset 6, -16
	movq	%rsp, %rbp
	.cfi_def_cfa_register 6
	subq	$32, %rsp
	movq	%rdi, -8(%rbp)
	movq	%rsi, -16(%rbp)
	movq	%rdx, -24(%rbp)
	movq	%rcx, -32(%rbp)
	.loc 5 456 26
	movq	-32(%rbp), %rcx
	movq	-24(%rbp), %rdx
	movq	-16(%rbp), %rsi
	movq	-8(%rbp), %rax
	movq	%rax, %rdi
	call	_ZSt12__relocate_aIPP8TinyblobS2_SaIS1_EET0_T_S5_S4_RT1_
	.loc 5 457 7
	leave
	.cfi_def_cfa 7, 8
	ret
	.cfi_endproc
.LFE13288:
	.size	_ZNSt6vectorIP8TinyblobSaIS1_EE14_S_do_relocateEPS1_S4_S4_RS2_St17integral_constantIbLb1EE, .-_ZNSt6vectorIP8TinyblobSaIS1_EE14_S_do_relocateEPS1_S4_S4_RS2_St17integral_constantIbLb1EE
	.section	.text._ZSt10destroy_atIP8TinyblobEvPT_,"axG",@progbits,_ZSt10destroy_atIP8TinyblobEvPT_,comdat
	.weak	_ZSt10destroy_atIP8TinyblobEvPT_
	.type	_ZSt10destroy_atIP8TinyblobEvPT_, @function
_ZSt10destroy_atIP8TinyblobEvPT_:
.LFB13289:
	.loc 8 80 5
	.cfi_startproc
	endbr64
	pushq	%rbp
	.cfi_def_cfa_offset 16
	.cfi_offset 6, -16
	movq	%rsp, %rbp
	.cfi_def_cfa_register 6
	movq	%rdi, -8(%rbp)
	.loc 8 89 5
	nop
	popq	%rbp
	.cfi_def_cfa 7, 8
	ret
	.cfi_endproc
.LFE13289:
	.size	_ZSt10destroy_atIP8TinyblobEvPT_, .-_ZSt10destroy_atIP8TinyblobEvPT_
	.section	.text._ZSt8_DestroyIPP8TinyblobEvT_S3_,"axG",@progbits,_ZSt8_DestroyIPP8TinyblobEvT_S3_,comdat
	.weak	_ZSt8_DestroyIPP8TinyblobEvT_S3_
	.type	_ZSt8_DestroyIPP8TinyblobEvT_S3_, @function
_ZSt8_DestroyIPP8TinyblobEvT_S3_:
.LFB13290:
	.loc 8 182 5
	.cfi_startproc
	endbr64
	pushq	%rbp
	.cfi_def_cfa_offset 16
	.cfi_offset 6, -16
	movq	%rsp, %rbp
	.cfi_def_cfa_register 6
	subq	$16, %rsp
	movq	%rdi, -8(%rbp)
	movq	%rsi, -16(%rbp)
	.loc 8 192 37
	call	_ZSt21is_constant_evaluatedv
	.loc 8 192 7
	testb	%al, %al
	je	.L180
	.loc 8 193 39
	movq	-16(%rbp), %rdx
	movq	-8(%rbp), %rax
	movq	%rdx, %rsi
	movq	%rax, %rdi
	call	_ZNSt12_Destroy_auxILb0EE9__destroyIPP8TinyblobEEvT_S5_
	.loc 8 193 55
	jmp	.L179
.L180:
	.loc 8 196 11
	movq	-16(%rbp), %rdx
	movq	-8(%rbp), %rax
	movq	%rdx, %rsi
	movq	%rax, %rdi
	call	_ZNSt12_Destroy_auxILb1EE9__destroyIPP8TinyblobEEvT_S5_
.L179:
	.loc 8 197 5
	leave
	.cfi_def_cfa 7, 8
	ret
	.cfi_endproc
.LFE13290:
	.size	_ZSt8_DestroyIPP8TinyblobEvT_S3_, .-_ZSt8_DestroyIPP8TinyblobEvT_S3_
	.section	.text._ZN9__gnu_cxx13new_allocatorIP8TinyblobE10deallocateEPS2_m,"axG",@progbits,_ZN9__gnu_cxx13new_allocatorIP8TinyblobE10deallocateEPS2_m,comdat
	.align 2
	.weak	_ZN9__gnu_cxx13new_allocatorIP8TinyblobE10deallocateEPS2_m
	.type	_ZN9__gnu_cxx13new_allocatorIP8TinyblobE10deallocateEPS2_m, @function
_ZN9__gnu_cxx13new_allocatorIP8TinyblobE10deallocateEPS2_m:
.LFB13411:
	.loc 11 132 7
	.cfi_startproc
	endbr64
	pushq	%rbp
	.cfi_def_cfa_offset 16
	.cfi_offset 6, -16
	movq	%rsp, %rbp
	.cfi_def_cfa_register 6
	subq	$32, %rsp
	movq	%rdi, -8(%rbp)
	movq	%rsi, -16(%rbp)
	movq	%rdx, -24(%rbp)
	.loc 11 145 19
	movq	-24(%rbp), %rax
	leaq	0(,%rax,8), %rdx
	movq	-16(%rbp), %rax
	movq	%rdx, %rsi
	movq	%rax, %rdi
	call	_ZdlPvm@PLT
	.loc 11 150 7
	leave
	.cfi_def_cfa 7, 8
	ret
	.cfi_endproc
.LFE13411:
	.size	_ZN9__gnu_cxx13new_allocatorIP8TinyblobE10deallocateEPS2_m, .-_ZN9__gnu_cxx13new_allocatorIP8TinyblobE10deallocateEPS2_m
	.section	.text._ZNSt16allocator_traitsISaIP8TinyblobEE8max_sizeERKS2_,"axG",@progbits,_ZNSt16allocator_traitsISaIP8TinyblobEE8max_sizeERKS2_,comdat
	.weak	_ZNSt16allocator_traitsISaIP8TinyblobEE8max_sizeERKS2_
	.type	_ZNSt16allocator_traitsISaIP8TinyblobEE8max_sizeERKS2_, @function
_ZNSt16allocator_traitsISaIP8TinyblobEE8max_sizeERKS2_:
.LFB13413:
	.loc 9 547 7
	.cfi_startproc
	endbr64
	pushq	%rbp
	.cfi_def_cfa_offset 16
	.cfi_offset 6, -16
	movq	%rsp, %rbp
	.cfi_def_cfa_register 6
	movq	%rdi, -8(%rbp)
	.loc 9 552 39
	movabsq	$2305843009213693951, %rax
	.loc 9 554 7
	popq	%rbp
	.cfi_def_cfa 7, 8
	ret
	.cfi_endproc
.LFE13413:
	.size	_ZNSt16allocator_traitsISaIP8TinyblobEE8max_sizeERKS2_, .-_ZNSt16allocator_traitsISaIP8TinyblobEE8max_sizeERKS2_
	.section	.text._ZNSt6vectorIP8TinyblobSaIS1_EE11_S_max_sizeERKS2_,"axG",@progbits,_ZNSt6vectorIP8TinyblobSaIS1_EE11_S_max_sizeERKS2_,comdat
	.weak	_ZNSt6vectorIP8TinyblobSaIS1_EE11_S_max_sizeERKS2_
	.type	_ZNSt6vectorIP8TinyblobSaIS1_EE11_S_max_sizeERKS2_, @function
_ZNSt6vectorIP8TinyblobSaIS1_EE11_S_max_sizeERKS2_:
.LFB13412:
	.loc 5 1776 7
	.cfi_startproc
	endbr64
	pushq	%rbp
	.cfi_def_cfa_offset 16
	.cfi_offset 6, -16
	movq	%rsp, %rbp
	.cfi_def_cfa_register 6
	subq	$48, %rsp
	movq	%rdi, -40(%rbp)
	.loc 5 1776 7
	movq	%fs:40, %rax
	movq	%rax, -8(%rbp)
	xorl	%eax, %eax
	.loc 5 1781 15
	movabsq	$1152921504606846975, %rax
	movq	%rax, -24(%rbp)
	.loc 5 1783 51
	movq	-40(%rbp), %rax
	movq	%rax, %rdi
	call	_ZNSt16allocator_traitsISaIP8TinyblobEE8max_sizeERKS2_
	.loc 5 1783 15
	movq	%rax, -16(%rbp)
	.loc 5 1784 19
	leaq	-16(%rbp), %rdx
	leaq	-24(%rbp), %rax
	movq	%rdx, %rsi
	movq	%rax, %rdi
	call	_ZSt3minImERKT_S2_S2_
	.loc 5 1784 41
	movq	(%rax), %rax
	.loc 5 1785 7
	movq	-8(%rbp), %rdx
	subq	%fs:40, %rdx
	je	.L188
	call	__stack_chk_fail@PLT
.L188:
	leave
	.cfi_def_cfa 7, 8
	ret
	.cfi_endproc
.LFE13412:
	.size	_ZNSt6vectorIP8TinyblobSaIS1_EE11_S_max_sizeERKS2_, .-_ZNSt6vectorIP8TinyblobSaIS1_EE11_S_max_sizeERKS2_
	.section	.text._ZNKSt12_Vector_baseIP8TinyblobSaIS1_EE19_M_get_Tp_allocatorEv,"axG",@progbits,_ZNKSt12_Vector_baseIP8TinyblobSaIS1_EE19_M_get_Tp_allocatorEv,comdat
	.align 2
	.weak	_ZNKSt12_Vector_baseIP8TinyblobSaIS1_EE19_M_get_Tp_allocatorEv
	.type	_ZNKSt12_Vector_baseIP8TinyblobSaIS1_EE19_M_get_Tp_allocatorEv, @function
_ZNKSt12_Vector_baseIP8TinyblobSaIS1_EE19_M_get_Tp_allocatorEv:
.LFB13414:
	.loc 5 280 7
	.cfi_startproc
	endbr64
	pushq	%rbp
	.cfi_def_cfa_offset 16
	.cfi_offset 6, -16
	movq	%rsp, %rbp
	.cfi_def_cfa_register 6
	movq	%rdi, -8(%rbp)
	.loc 5 281 22
	movq	-8(%rbp), %rax
	.loc 5 281 31
	popq	%rbp
	.cfi_def_cfa 7, 8
	ret
	.cfi_endproc
.LFE13414:
	.size	_ZNKSt12_Vector_baseIP8TinyblobSaIS1_EE19_M_get_Tp_allocatorEv, .-_ZNKSt12_Vector_baseIP8TinyblobSaIS1_EE19_M_get_Tp_allocatorEv
	.section	.text._ZSt12__relocate_aIPP8TinyblobS2_SaIS1_EET0_T_S5_S4_RT1_,"axG",@progbits,_ZSt12__relocate_aIPP8TinyblobS2_SaIS1_EET0_T_S5_S4_RT1_,comdat
	.weak	_ZSt12__relocate_aIPP8TinyblobS2_SaIS1_EET0_T_S5_S4_RT1_
	.type	_ZSt12__relocate_aIPP8TinyblobS2_SaIS1_EET0_T_S5_S4_RT1_, @function
_ZSt12__relocate_aIPP8TinyblobS2_SaIS1_EET0_T_S5_S4_RT1_:
.LFB13416:
	.file 14 "/usr/include/c++/11/bits/stl_uninitialized.h"
	.loc 14 1040 5
	.cfi_startproc
	endbr64
	pushq	%rbp
	.cfi_def_cfa_offset 16
	.cfi_offset 6, -16
	movq	%rsp, %rbp
	.cfi_def_cfa_register 6
	pushq	%r12
	pushq	%rbx
	subq	$32, %rsp
	.cfi_offset 12, -24
	.cfi_offset 3, -32
	movq	%rdi, -24(%rbp)
	movq	%rsi, -32(%rbp)
	movq	%rdx, -40(%rbp)
	movq	%rcx, -48(%rbp)
	.loc 14 1046 28
	movq	-40(%rbp), %rax
	movq	%rax, %rdi
	call	_ZSt12__niter_baseIPP8TinyblobET_S3_
	movq	%rax, %r12
	movq	-32(%rbp), %rax
	movq	%rax, %rdi
	call	_ZSt12__niter_baseIPP8TinyblobET_S3_
	movq	%rax, %rbx
	movq	-24(%rbp), %rax
	movq	%rax, %rdi
	call	_ZSt12__niter_baseIPP8TinyblobET_S3_
	movq	%rax, %rdi
	movq	-48(%rbp), %rax
	movq	%rax, %rcx
	movq	%r12, %rdx
	movq	%rbx, %rsi
	call	_ZSt14__relocate_a_1IP8TinyblobS1_ENSt9enable_ifIXsrSt24__is_bitwise_relocatableIT_vE5valueEPS4_E4typeES6_S6_S6_RSaIT0_E
	.loc 14 1049 5
	addq	$32, %rsp
	popq	%rbx
	popq	%r12
	popq	%rbp
	.cfi_def_cfa 7, 8
	ret
	.cfi_endproc
.LFE13416:
	.size	_ZSt12__relocate_aIPP8TinyblobS2_SaIS1_EET0_T_S5_S4_RT1_, .-_ZSt12__relocate_aIPP8TinyblobS2_SaIS1_EET0_T_S5_S4_RT1_
	.section	.text._ZNSt12_Destroy_auxILb0EE9__destroyIPP8TinyblobEEvT_S5_,"axG",@progbits,_ZNSt12_Destroy_auxILb0EE9__destroyIPP8TinyblobEEvT_S5_,comdat
	.weak	_ZNSt12_Destroy_auxILb0EE9__destroyIPP8TinyblobEEvT_S5_
	.type	_ZNSt12_Destroy_auxILb0EE9__destroyIPP8TinyblobEEvT_S5_, @function
_ZNSt12_Destroy_auxILb0EE9__destroyIPP8TinyblobEEvT_S5_:
.LFB13417:
	.loc 8 160 2
	.cfi_startproc
	endbr64
	pushq	%rbp
	.cfi_def_cfa_offset 16
	.cfi_offset 6, -16
	movq	%rsp, %rbp
	.cfi_def_cfa_register 6
	subq	$16, %rsp
	movq	%rdi, -8(%rbp)
	movq	%rsi, -16(%rbp)
	.loc 8 162 4
	jmp	.L194
.L195:
	.loc 8 163 19 discriminator 2
	movq	-8(%rbp), %rax
	movq	%rax, %rdi
	call	_ZSt11__addressofIP8TinyblobEPT_RS2_
	movq	%rax, %rdi
	call	_ZSt8_DestroyIP8TinyblobEvPT_
	.loc 8 162 4 discriminator 2
	addq	$8, -8(%rbp)
.L194:
	.loc 8 162 19 discriminator 1
	movq	-8(%rbp), %rax
	cmpq	-16(%rbp), %rax
	jne	.L195
	.loc 8 164 2
	nop
	nop
	leave
	.cfi_def_cfa 7, 8
	ret
	.cfi_endproc
.LFE13417:
	.size	_ZNSt12_Destroy_auxILb0EE9__destroyIPP8TinyblobEEvT_S5_, .-_ZNSt12_Destroy_auxILb0EE9__destroyIPP8TinyblobEEvT_S5_
	.section	.text._ZNSt12_Destroy_auxILb1EE9__destroyIPP8TinyblobEEvT_S5_,"axG",@progbits,_ZNSt12_Destroy_auxILb1EE9__destroyIPP8TinyblobEEvT_S5_,comdat
	.weak	_ZNSt12_Destroy_auxILb1EE9__destroyIPP8TinyblobEEvT_S5_
	.type	_ZNSt12_Destroy_auxILb1EE9__destroyIPP8TinyblobEEvT_S5_, @function
_ZNSt12_Destroy_auxILb1EE9__destroyIPP8TinyblobEEvT_S5_:
.LFB13418:
	.loc 8 172 9
	.cfi_startproc
	endbr64
	pushq	%rbp
	.cfi_def_cfa_offset 16
	.cfi_offset 6, -16
	movq	%rsp, %rbp
	.cfi_def_cfa_register 6
	movq	%rdi, -8(%rbp)
	movq	%rsi, -16(%rbp)
	.loc 8 172 57
	nop
	popq	%rbp
	.cfi_def_cfa 7, 8
	ret
	.cfi_endproc
.LFE13418:
	.size	_ZNSt12_Destroy_auxILb1EE9__destroyIPP8TinyblobEEvT_S5_, .-_ZNSt12_Destroy_auxILb1EE9__destroyIPP8TinyblobEEvT_S5_
	.section	.text._ZNK9__gnu_cxx13new_allocatorIP8TinyblobE11_M_max_sizeEv,"axG",@progbits,_ZNK9__gnu_cxx13new_allocatorIP8TinyblobE11_M_max_sizeEv,comdat
	.align 2
	.weak	_ZNK9__gnu_cxx13new_allocatorIP8TinyblobE11_M_max_sizeEv
	.type	_ZNK9__gnu_cxx13new_allocatorIP8TinyblobE11_M_max_sizeEv, @function
_ZNK9__gnu_cxx13new_allocatorIP8TinyblobE11_M_max_sizeEv:
.LFB13536:
	.loc 11 197 7
	.cfi_startproc
	endbr64
	pushq	%rbp
	.cfi_def_cfa_offset 16
	.cfi_offset 6, -16
	movq	%rsp, %rbp
	.cfi_def_cfa_register 6
	movq	%rdi, -8(%rbp)
	.loc 11 200 50
	movabsq	$1152921504606846975, %rax
	.loc 11 204 7
	popq	%rbp
	.cfi_def_cfa 7, 8
	ret
	.cfi_endproc
.LFE13536:
	.size	_ZNK9__gnu_cxx13new_allocatorIP8TinyblobE11_M_max_sizeEv, .-_ZNK9__gnu_cxx13new_allocatorIP8TinyblobE11_M_max_sizeEv
	.section	.text._ZN9__gnu_cxx13new_allocatorIP8TinyblobE8allocateEmPKv,"axG",@progbits,_ZN9__gnu_cxx13new_allocatorIP8TinyblobE8allocateEmPKv,comdat
	.align 2
	.weak	_ZN9__gnu_cxx13new_allocatorIP8TinyblobE8allocateEmPKv
	.type	_ZN9__gnu_cxx13new_allocatorIP8TinyblobE8allocateEmPKv, @function
_ZN9__gnu_cxx13new_allocatorIP8TinyblobE8allocateEmPKv:
.LFB13535:
	.loc 11 103 7
	.cfi_startproc
	endbr64
	pushq	%rbp
	.cfi_def_cfa_offset 16
	.cfi_offset 6, -16
	movq	%rsp, %rbp
	.cfi_def_cfa_register 6
	subq	$32, %rsp
	movq	%rdi, -8(%rbp)
	movq	%rsi, -16(%rbp)
	movq	%rdx, -24(%rbp)
	.loc 11 111 46
	movq	-8(%rbp), %rax
	movq	%rax, %rdi
	call	_ZNK9__gnu_cxx13new_allocatorIP8TinyblobE11_M_max_sizeEv
	.loc 11 111 27
	cmpq	%rax, -16(%rbp)
	seta	%al
	.loc 11 111 22
	movzbl	%al, %eax
	testq	%rax, %rax
	setne	%al
	.loc 11 111 2
	testb	%al, %al
	je	.L200
	.loc 11 115 6
	movabsq	$2305843009213693951, %rax
	cmpq	%rax, -16(%rbp)
	jbe	.L201
	.loc 11 116 41
	call	_ZSt28__throw_bad_array_new_lengthv@PLT
.L201:
	.loc 11 117 28
	call	_ZSt17__throw_bad_allocv@PLT
.L200:
	.loc 11 127 41
	movq	-16(%rbp), %rax
	salq	$3, %rax
	movq	%rax, %rdi
	call	_Znwm@PLT
	.loc 11 127 60
	nop
	.loc 11 128 7
	leave
	.cfi_def_cfa 7, 8
	ret
	.cfi_endproc
.LFE13535:
	.size	_ZN9__gnu_cxx13new_allocatorIP8TinyblobE8allocateEmPKv, .-_ZN9__gnu_cxx13new_allocatorIP8TinyblobE8allocateEmPKv
	.section	.text._ZSt12__niter_baseIPP8TinyblobET_S3_,"axG",@progbits,_ZSt12__niter_baseIPP8TinyblobET_S3_,comdat
	.weak	_ZSt12__niter_baseIPP8TinyblobET_S3_
	.type	_ZSt12__niter_baseIPP8TinyblobET_S3_, @function
_ZSt12__niter_baseIPP8TinyblobET_S3_:
.LFB13537:
	.loc 3 313 5
	.cfi_startproc
	endbr64
	pushq	%rbp
	.cfi_def_cfa_offset 16
	.cfi_offset 6, -16
	movq	%rsp, %rbp
	.cfi_def_cfa_register 6
	movq	%rdi, -8(%rbp)
	.loc 3 315 14
	movq	-8(%rbp), %rax
	.loc 3 315 20
	popq	%rbp
	.cfi_def_cfa 7, 8
	ret
	.cfi_endproc
.LFE13537:
	.size	_ZSt12__niter_baseIPP8TinyblobET_S3_, .-_ZSt12__niter_baseIPP8TinyblobET_S3_
	.section	.text._ZSt14__relocate_a_1IP8TinyblobS1_ENSt9enable_ifIXsrSt24__is_bitwise_relocatableIT_vE5valueEPS4_E4typeES6_S6_S6_RSaIT0_E,"axG",@progbits,_ZSt14__relocate_a_1IP8TinyblobS1_ENSt9enable_ifIXsrSt24__is_bitwise_relocatableIT_vE5valueEPS4_E4typeES6_S6_S6_RSaIT0_E,comdat
	.weak	_ZSt14__relocate_a_1IP8TinyblobS1_ENSt9enable_ifIXsrSt24__is_bitwise_relocatableIT_vE5valueEPS4_E4typeES6_S6_S6_RSaIT0_E
	.type	_ZSt14__relocate_a_1IP8TinyblobS1_ENSt9enable_ifIXsrSt24__is_bitwise_relocatableIT_vE5valueEPS4_E4typeES6_S6_S6_RSaIT0_E, @function
_ZSt14__relocate_a_1IP8TinyblobS1_ENSt9enable_ifIXsrSt24__is_bitwise_relocatableIT_vE5valueEPS4_E4typeES6_S6_S6_RSaIT0_E:
.LFB13538:
	.loc 14 1006 5
	.cfi_startproc
	endbr64
	pushq	%rbp
	.cfi_def_cfa_offset 16
	.cfi_offset 6, -16
	movq	%rsp, %rbp
	.cfi_def_cfa_register 6
	subq	$48, %rsp
	movq	%rdi, -24(%rbp)
	movq	%rsi, -32(%rbp)
	movq	%rdx, -40(%rbp)
	movq	%rcx, -48(%rbp)
	.loc 14 1009 34
	movq	-32(%rbp), %rax
	subq	-24(%rbp), %rax
	.loc 14 1009 17
	sarq	$3, %rax
	movq	%rax, -8(%rbp)
	.loc 14 1010 7
	cmpq	$0, -8(%rbp)
	jle	.L206
	.loc 14 1011 39
	movq	-8(%rbp), %rax
	.loc 14 1011 19
	leaq	0(,%rax,8), %rdx
	movq	-24(%rbp), %rcx
	movq	-40(%rbp), %rax
	movq	%rcx, %rsi
	movq	%rax, %rdi
	call	memmove@PLT
.L206:
	.loc 14 1012 25
	movq	-8(%rbp), %rax
	.loc 14 1012 23
	leaq	0(,%rax,8), %rdx
	.loc 14 1012 25
	movq	-40(%rbp), %rax
	addq	%rdx, %rax
	.loc 14 1013 5
	leave
	.cfi_def_cfa 7, 8
	ret
	.cfi_endproc
.LFE13538:
	.size	_ZSt14__relocate_a_1IP8TinyblobS1_ENSt9enable_ifIXsrSt24__is_bitwise_relocatableIT_vE5valueEPS4_E4typeES6_S6_S6_RSaIT0_E, .-_ZSt14__relocate_a_1IP8TinyblobS1_ENSt9enable_ifIXsrSt24__is_bitwise_relocatableIT_vE5valueEPS4_E4typeES6_S6_S6_RSaIT0_E
	.section	.text._ZSt11__addressofIP8TinyblobEPT_RS2_,"axG",@progbits,_ZSt11__addressofIP8TinyblobEPT_RS2_,comdat
	.weak	_ZSt11__addressofIP8TinyblobEPT_RS2_
	.type	_ZSt11__addressofIP8TinyblobEPT_RS2_, @function
_ZSt11__addressofIP8TinyblobEPT_RS2_:
.LFB13539:
	.loc 12 49 5
	.cfi_startproc
	endbr64
	pushq	%rbp
	.cfi_def_cfa_offset 16
	.cfi_offset 6, -16
	movq	%rsp, %rbp
	.cfi_def_cfa_register 6
	movq	%rdi, -8(%rbp)
	.loc 12 50 37
	movq	-8(%rbp), %rax
	.loc 12 50 40
	popq	%rbp
	.cfi_def_cfa 7, 8
	ret
	.cfi_endproc
.LFE13539:
	.size	_ZSt11__addressofIP8TinyblobEPT_RS2_, .-_ZSt11__addressofIP8TinyblobEPT_RS2_
	.section	.text._ZSt8_DestroyIP8TinyblobEvPT_,"axG",@progbits,_ZSt8_DestroyIP8TinyblobEvPT_,comdat
	.weak	_ZSt8_DestroyIP8TinyblobEvPT_
	.type	_ZSt8_DestroyIP8TinyblobEvPT_, @function
_ZSt8_DestroyIP8TinyblobEvPT_:
.LFB13540:
	.loc 8 146 5
	.cfi_startproc
	endbr64
	pushq	%rbp
	.cfi_def_cfa_offset 16
	.cfi_offset 6, -16
	movq	%rsp, %rbp
	.cfi_def_cfa_register 6
	subq	$16, %rsp
	movq	%rdi, -8(%rbp)
	.loc 8 149 22
	movq	-8(%rbp), %rax
	movq	%rax, %rdi
	call	_ZSt10destroy_atIP8TinyblobEvPT_
	.loc 8 153 5
	nop
	leave
	.cfi_def_cfa 7, 8
	ret
	.cfi_endproc
.LFE13540:
	.size	_ZSt8_DestroyIP8TinyblobEvPT_, .-_ZSt8_DestroyIP8TinyblobEvPT_
	.text
	.type	_Z41__static_initialization_and_destruction_0ii, @function
_Z41__static_initialization_and_destruction_0ii:
.LFB13701:
	.loc 6 255 1
	.cfi_startproc
	endbr64
	pushq	%rbp
	.cfi_def_cfa_offset 16
	.cfi_offset 6, -16
	movq	%rsp, %rbp
	.cfi_def_cfa_register 6
	subq	$16, %rsp
	movl	%edi, -4(%rbp)
	movl	%esi, -8(%rbp)
	.loc 6 255 1
	cmpl	$1, -4(%rbp)
	jne	.L213
	.loc 6 255 1 is_stmt 0 discriminator 1
	cmpl	$65535, -8(%rbp)
	jne	.L213
	.file 15 "/usr/include/c++/11/iostream"
	.loc 15 74 25 is_stmt 1
	leaq	_ZStL8__ioinit(%rip), %rax
	movq	%rax, %rdi
	call	_ZNSt8ios_base4InitC1Ev@PLT
	leaq	__dso_handle(%rip), %rax
	movq	%rax, %rdx
	leaq	_ZStL8__ioinit(%rip), %rax
	movq	%rax, %rsi
	movq	_ZNSt8ios_base4InitD1Ev@GOTPCREL(%rip), %rax
	movq	%rax, %rdi
	call	__cxa_atexit@PLT
	.loc 6 5 24
	leaq	blobs(%rip), %rax
	movq	%rax, %rdi
	call	_ZNSt6vectorIP8TinyblobSaIS1_EEC1Ev
	leaq	__dso_handle(%rip), %rax
	movq	%rax, %rdx
	leaq	blobs(%rip), %rax
	movq	%rax, %rsi
	leaq	_ZNSt6vectorIP8TinyblobSaIS1_EED1Ev(%rip), %rax
	movq	%rax, %rdi
	call	__cxa_atexit@PLT
.L213:
	.loc 6 255 1
	nop
	leave
	.cfi_def_cfa 7, 8
	ret
	.cfi_endproc
.LFE13701:
	.size	_Z41__static_initialization_and_destruction_0ii, .-_Z41__static_initialization_and_destruction_0ii
	.section	.text._ZNSt6vectorIP8TinyblobSaIS1_EED2Ev,"axG",@progbits,_ZNSt6vectorIP8TinyblobSaIS1_EED5Ev,comdat
	.align 2
	.weak	_ZNSt6vectorIP8TinyblobSaIS1_EED2Ev
	.type	_ZNSt6vectorIP8TinyblobSaIS1_EED2Ev, @function
_ZNSt6vectorIP8TinyblobSaIS1_EED2Ev:
.LFB13717:
	.loc 5 678 7
	.cfi_startproc
	.cfi_personality 0x9b,DW.ref.__gxx_personality_v0
	.cfi_lsda 0x1b,.LLSDA13717
	endbr64
	pushq	%rbp
	.cfi_def_cfa_offset 16
	.cfi_offset 6, -16
	movq	%rsp, %rbp
	.cfi_def_cfa_register 6
	subq	$16, %rsp
	movq	%rdi, -8(%rbp)
.LBB67:
	.loc 5 681 28
	movq	-8(%rbp), %rax
	movq	%rax, %rdi
	call	_ZNSt12_Vector_baseIP8TinyblobSaIS1_EE19_M_get_Tp_allocatorEv
	movq	%rax, %rdx
	.loc 5 680 15
	movq	-8(%rbp), %rax
	movq	8(%rax), %rcx
	movq	-8(%rbp), %rax
	movq	(%rax), %rax
	movq	%rcx, %rsi
	movq	%rax, %rdi
	call	_ZSt8_DestroyIPP8TinyblobS1_EvT_S3_RSaIT0_E
	.loc 5 683 7
	movq	-8(%rbp), %rax
	movq	%rax, %rdi
	call	_ZNSt12_Vector_baseIP8TinyblobSaIS1_EED2Ev
.LBE67:
	nop
	leave
	.cfi_def_cfa 7, 8
	ret
	.cfi_endproc
.LFE13717:
	.section	.gcc_except_table
.LLSDA13717:
	.byte	0xff
	.byte	0xff
	.byte	0x1
	.uleb128 .LLSDACSE13717-.LLSDACSB13717
.LLSDACSB13717:
.LLSDACSE13717:
	.section	.text._ZNSt6vectorIP8TinyblobSaIS1_EED2Ev,"axG",@progbits,_ZNSt6vectorIP8TinyblobSaIS1_EED5Ev,comdat
	.size	_ZNSt6vectorIP8TinyblobSaIS1_EED2Ev, .-_ZNSt6vectorIP8TinyblobSaIS1_EED2Ev
	.weak	_ZNSt6vectorIP8TinyblobSaIS1_EED1Ev
	.set	_ZNSt6vectorIP8TinyblobSaIS1_EED1Ev,_ZNSt6vectorIP8TinyblobSaIS1_EED2Ev
	.text
	.type	_GLOBAL__sub_I_mode, @function
_GLOBAL__sub_I_mode:
.LFB13727:
	.loc 6 255 1
	.cfi_startproc
	endbr64
	pushq	%rbp
	.cfi_def_cfa_offset 16
	.cfi_offset 6, -16
	movq	%rsp, %rbp
	.cfi_def_cfa_register 6
	.loc 6 255 1
	movl	$65535, %esi
	movl	$1, %edi
	call	_Z41__static_initialization_and_destruction_0ii
	popq	%rbp
	.cfi_def_cfa 7, 8
	ret
	.cfi_endproc
.LFE13727:
	.size	_GLOBAL__sub_I_mode, .-_GLOBAL__sub_I_mode
	.section	.init_array,"aw"
	.align 8
	.quad	_GLOBAL__sub_I_mode
	.text
.Letext0:
	.file 16 "/usr/include/x86_64-linux-gnu/bits/types.h"
	.file 17 "/usr/include/x86_64-linux-gnu/bits/stdint-intn.h"
	.file 18 "/usr/include/x86_64-linux-gnu/bits/stdint-uintn.h"
	.file 19 "/usr/include/stdint.h"
	.file 20 "/usr/lib/gcc/x86_64-linux-gnu/11/include/stddef.h"
	.file 21 "/usr/lib/gcc/x86_64-linux-gnu/11/include/stdarg.h"
	.file 22 "<built-in>"
	.file 23 "/usr/include/x86_64-linux-gnu/bits/types/wint_t.h"
	.file 24 "/usr/include/x86_64-linux-gnu/bits/types/__mbstate_t.h"
	.file 25 "/usr/include/x86_64-linux-gnu/bits/types/mbstate_t.h"
	.file 26 "/usr/include/x86_64-linux-gnu/bits/types/__FILE.h"
	.file 27 "/usr/include/x86_64-linux-gnu/bits/types/struct_FILE.h"
	.file 28 "/usr/include/x86_64-linux-gnu/bits/types/FILE.h"
	.file 29 "/usr/include/c++/11/cwchar"
	.file 30 "/usr/include/c++/11/bits/exception_ptr.h"
	.file 31 "/usr/include/x86_64-linux-gnu/c++/11/bits/c++config.h"
	.file 32 "/usr/include/c++/11/concepts"
	.file 33 "/usr/include/c++/11/bits/iterator_concepts.h"
	.file 34 "/usr/include/c++/11/bits/ranges_cmp.h"
	.file 35 "/usr/include/c++/11/ranges"
	.file 36 "/usr/include/c++/11/compare"
	.file 37 "/usr/include/c++/11/bits/atomic_wait.h"
	.file 38 "/usr/include/c++/11/bits/regex_automaton.h"
	.file 39 "/usr/include/c++/11/bits/basic_string.h"
	.file 40 "/usr/include/c++/11/debug/debug.h"
	.file 41 "/usr/include/c++/11/bits/char_traits.h"
	.file 42 "/usr/include/c++/11/cstdint"
	.file 43 "/usr/include/c++/11/clocale"
	.file 44 "/usr/include/c++/11/cstdlib"
	.file 45 "/usr/include/c++/11/numbers"
	.file 46 "/usr/include/c++/11/string_view"
	.file 47 "/usr/include/c++/11/cstdio"
	.file 48 "/usr/include/c++/11/initializer_list"
	.file 49 "/usr/include/c++/11/bits/stringfwd.h"
	.file 50 "/usr/include/c++/11/bits/ios_base.h"
	.file 51 "/usr/include/c++/11/cwctype"
	.file 52 "/usr/include/c++/11/ostream"
	.file 53 "/usr/include/c++/11/iosfwd"
	.file 54 "/usr/include/c++/11/bits/std_abs.h"
	.file 55 "/usr/include/c++/11/cmath"
	.file 56 "/usr/include/c++/11/csetjmp"
	.file 57 "/usr/include/c++/11/csignal"
	.file 58 "/usr/include/c++/11/cstdarg"
	.file 59 "/usr/include/c++/11/cstddef"
	.file 60 "/usr/include/c++/11/cstring"
	.file 61 "/usr/include/c++/11/ctime"
	.file 62 "/usr/include/c++/11/fenv.h"
	.file 63 "/usr/include/c++/11/cfenv"
	.file 64 "/usr/include/c++/11/cinttypes"
	.file 65 "/usr/include/c++/11/cuchar"
	.file 66 "/usr/include/c++/11/functional"
	.file 67 "/usr/include/c++/11/bits/postypes.h"
	.file 68 "/usr/include/c++/11/bits/stl_iterator_base_types.h"
	.file 69 "/usr/include/c++/11/bits/shared_ptr_base.h"
	.file 70 "/usr/include/c++/11/chrono"
	.file 71 "/usr/include/c++/11/bits/algorithmfwd.h"
	.file 72 "/usr/include/c++/11/bits/parse_numbers.h"
	.file 73 "/usr/include/c++/11/bits/fs_fwd.h"
	.file 74 "/usr/include/c++/11/bits/fs_path.h"
	.file 75 "/usr/include/c++/11/future"
	.file 76 "/usr/include/c++/11/bits/regex_constants.h"
	.file 77 "/usr/include/c++/11/bits/regex_error.h"
	.file 78 "/usr/include/c++/11/coroutine"
	.file 79 "/usr/include/c++/11/bits/functexcept.h"
	.file 80 "/usr/include/wchar.h"
	.file 81 "/usr/include/x86_64-linux-gnu/bits/types/struct_tm.h"
	.file 82 "/usr/include/c++/11/bits/predefined_ops.h"
	.file 83 "/usr/include/c++/11/ext/alloc_traits.h"
	.file 84 "/usr/include/c++/11/ext/concurrence.h"
	.file 85 "/usr/include/c++/11/bits/ptr_traits.h"
	.file 86 "/usr/include/locale.h"
	.file 87 "/usr/include/x86_64-linux-gnu/bits/types/time_t.h"
	.file 88 "/usr/include/x86_64-linux-gnu/bits/types/struct_timespec.h"
	.file 89 "/usr/include/x86_64-linux-gnu/bits/types/clock_t.h"
	.file 90 "/usr/include/x86_64-linux-gnu/bits/thread-shared-types.h"
	.file 91 "/usr/include/x86_64-linux-gnu/bits/struct_mutex.h"
	.file 92 "/usr/include/x86_64-linux-gnu/bits/pthreadtypes.h"
	.file 93 "/usr/include/x86_64-linux-gnu/bits/setjmp.h"
	.file 94 "/usr/include/x86_64-linux-gnu/bits/types/__sigset_t.h"
	.file 95 "/usr/include/x86_64-linux-gnu/bits/types/struct___jmp_buf_tag.h"
	.file 96 "/usr/include/stdlib.h"
	.file 97 "/usr/include/x86_64-linux-gnu/sys/types.h"
	.file 98 "/usr/include/x86_64-linux-gnu/bits/types/__fpos_t.h"
	.file 99 "/usr/include/stdio.h"
	.file 100 "/usr/include/x86_64-linux-gnu/bits/wctype-wchar.h"
	.file 101 "/usr/include/wctype.h"
	.file 102 "/usr/include/c++/11/stdlib.h"
	.file 103 "/usr/include/x86_64-linux-gnu/bits/dirent.h"
	.file 104 "/usr/include/math.h"
	.file 105 "/usr/include/setjmp.h"
	.file 106 "/usr/include/x86_64-linux-gnu/bits/types/sig_atomic_t.h"
	.file 107 "/usr/include/signal.h"
	.file 108 "/usr/include/string.h"
	.file 109 "/usr/include/time.h"
	.file 110 "/usr/include/x86_64-linux-gnu/bits/fenv.h"
	.file 111 "/usr/include/inttypes.h"
	.file 112 "/usr/include/uchar.h"
	.file 113 "/usr/include/c++/11/pstl/execution_defs.h"
	.file 114 "/usr/include/dirent.h"
	.file 115 "/usr/include/unistd.h"
	.file 116 "/usr/include/pthread.h"
	.file 117 "/usr/include/x86_64-linux-gnu/bits/fcntl-linux.h"
	.file 118 "/usr/include/c++/11/string"
	.section	.data.rel.local.DW.ref.__gxx_personality_v0,"awG",@progbits,DW.ref.__gxx_personality_v0,comdat
	.align 8
	.type	DW.ref.__gxx_personality_v0, @object
	.size	DW.ref.__gxx_personality_v0, 8
DW.ref.__gxx_personality_v0:
	.quad	__gxx_personality_v0
	.hidden	__dso_handle
	.ident	"GCC: (Ubuntu 11.2.0-19ubuntu1) 11.2.0"
	.section	.note.GNU-stack,"",@progbits
	.section	.note.gnu.property,"a"
	.align 8
	.long	1f - 0f
	.long	4f - 1f
	.long	5
0:
	.string	"GNU"
1:
	.align 8
	.long	0xc0000002
	.long	3f - 2f
2:
	.long	0x3
3:
	.align 8
4:
