	.file	"ti.cpp"
	.text
.Ltext0:
	.file 0 "/home/manos/YCSB-C/cs647/assignment2" "ti.cpp"
	.section	.text._ZSt21is_constant_evaluatedv,"axG",@progbits,_ZSt21is_constant_evaluatedv,comdat
	.weak	_ZSt21is_constant_evaluatedv
	.type	_ZSt21is_constant_evaluatedv, @function
_ZSt21is_constant_evaluatedv:
.LFB75:
	.file 1 "/usr/include/c++/11/type_traits"
	.loc 1 3419 3
	.cfi_startproc
	endbr64
	pushq	%rbp
	.cfi_def_cfa_offset 16
	.cfi_offset 6, -16
	movq	%rsp, %rbp
	.cfi_def_cfa_register 6
	.loc 1 3419 44
	movl	$0, %eax
	.loc 1 3419 47
	popq	%rbp
	.cfi_def_cfa 7, 8
	ret
	.cfi_endproc
.LFE75:
	.size	_ZSt21is_constant_evaluatedv, .-_ZSt21is_constant_evaluatedv
	.section	.text._ZNSt11char_traitsIcE6assignERcRKc,"axG",@progbits,_ZNSt11char_traitsIcE6assignERcRKc,comdat
	.weak	_ZNSt11char_traitsIcE6assignERcRKc
	.type	_ZNSt11char_traitsIcE6assignERcRKc, @function
_ZNSt11char_traitsIcE6assignERcRKc:
.LFB585:
	.file 2 "/usr/include/c++/11/bits/char_traits.h"
	.loc 2 356 7
	.cfi_startproc
	endbr64
	pushq	%rbp
	.cfi_def_cfa_offset 16
	.cfi_offset 6, -16
	movq	%rsp, %rbp
	.cfi_def_cfa_register 6
	movq	%rdi, -8(%rbp)
	movq	%rsi, -16(%rbp)
	.loc 2 357 16
	movq	-16(%rbp), %rax
	movzbl	(%rax), %edx
	.loc 2 357 14
	movq	-8(%rbp), %rax
	movb	%dl, (%rax)
	.loc 2 357 22
	nop
	popq	%rbp
	.cfi_def_cfa 7, 8
	ret
	.cfi_endproc
.LFE585:
	.size	_ZNSt11char_traitsIcE6assignERcRKc, .-_ZNSt11char_traitsIcE6assignERcRKc
	.local	_ZStL8__ioinit
	.comm	_ZStL8__ioinit,1,1
	.section	.text._ZNSt8__detail15_Hash_node_baseC2Ev,"axG",@progbits,_ZNSt8__detail15_Hash_node_baseC5Ev,comdat
	.align 2
	.weak	_ZNSt8__detail15_Hash_node_baseC2Ev
	.type	_ZNSt8__detail15_Hash_node_baseC2Ev, @function
_ZNSt8__detail15_Hash_node_baseC2Ev:
.LFB2553:
	.file 3 "/usr/include/c++/11/bits/hashtable_policy.h"
	.loc 3 219 5
	.cfi_startproc
	endbr64
	pushq	%rbp
	.cfi_def_cfa_offset 16
	.cfi_offset 6, -16
	movq	%rsp, %rbp
	.cfi_def_cfa_register 6
	movq	%rdi, -8(%rbp)
.LBB10:
	.loc 3 219 34
	movq	-8(%rbp), %rax
	movq	$0, (%rax)
.LBE10:
	.loc 3 219 45
	nop
	popq	%rbp
	.cfi_def_cfa 7, 8
	ret
	.cfi_endproc
.LFE2553:
	.size	_ZNSt8__detail15_Hash_node_baseC2Ev, .-_ZNSt8__detail15_Hash_node_baseC2Ev
	.weak	_ZNSt8__detail15_Hash_node_baseC1Ev
	.set	_ZNSt8__detail15_Hash_node_baseC1Ev,_ZNSt8__detail15_Hash_node_baseC2Ev
	.section	.text._ZNSt8__detail20_Prime_rehash_policyC2Ef,"axG",@progbits,_ZNSt8__detail20_Prime_rehash_policyC5Ef,comdat
	.align 2
	.weak	_ZNSt8__detail20_Prime_rehash_policyC2Ef
	.type	_ZNSt8__detail20_Prime_rehash_policyC2Ef, @function
_ZNSt8__detail20_Prime_rehash_policyC2Ef:
.LFB2580:
	.loc 3 446 5
	.cfi_startproc
	endbr64
	pushq	%rbp
	.cfi_def_cfa_offset 16
	.cfi_offset 6, -16
	movq	%rsp, %rbp
	.cfi_def_cfa_register 6
	movq	%rdi, -8(%rbp)
	movss	%xmm0, -12(%rbp)
.LBB11:
	.loc 3 447 7
	movq	-8(%rbp), %rax
	movss	-12(%rbp), %xmm0
	movss	%xmm0, (%rax)
	.loc 3 447 32
	movq	-8(%rbp), %rax
	movq	$0, 8(%rax)
.LBE11:
	.loc 3 447 52
	nop
	popq	%rbp
	.cfi_def_cfa 7, 8
	ret
	.cfi_endproc
.LFE2580:
	.size	_ZNSt8__detail20_Prime_rehash_policyC2Ef, .-_ZNSt8__detail20_Prime_rehash_policyC2Ef
	.weak	_ZNSt8__detail20_Prime_rehash_policyC1Ef
	.set	_ZNSt8__detail20_Prime_rehash_policyC1Ef,_ZNSt8__detail20_Prime_rehash_policyC2Ef
	.section	.rodata
	.type	_ZN6__pstl9execution2v1L3seqE, @object
	.size	_ZN6__pstl9execution2v1L3seqE, 1
_ZN6__pstl9execution2v1L3seqE:
	.zero	1
	.type	_ZN6__pstl9execution2v1L3parE, @object
	.size	_ZN6__pstl9execution2v1L3parE, 1
_ZN6__pstl9execution2v1L3parE:
	.zero	1
	.type	_ZN6__pstl9execution2v1L9par_unseqE, @object
	.size	_ZN6__pstl9execution2v1L9par_unseqE, 1
_ZN6__pstl9execution2v1L9par_unseqE:
	.zero	1
	.type	_ZN6__pstl9execution2v1L5unseqE, @object
	.size	_ZN6__pstl9execution2v1L5unseqE, 1
_ZN6__pstl9execution2v1L5unseqE:
	.zero	1
	.align 4
	.type	_ZN9__gnu_cxxL21__default_lock_policyE, @object
	.size	_ZN9__gnu_cxxL21__default_lock_policyE, 4
_ZN9__gnu_cxxL21__default_lock_policyE:
	.long	2
	.align 8
	.type	_ZNSt8__detailL25__platform_wait_alignmentE, @object
	.size	_ZNSt8__detailL25__platform_wait_alignmentE, 8
_ZNSt8__detailL25__platform_wait_alignmentE:
	.quad	4
	.align 4
	.type	_ZNSt8__detailL21__atomic_spin_count_1E, @object
	.size	_ZNSt8__detailL21__atomic_spin_count_1E, 4
_ZNSt8__detailL21__atomic_spin_count_1E:
	.long	12
	.align 4
	.type	_ZNSt8__detailL21__atomic_spin_count_2E, @object
	.size	_ZNSt8__detailL21__atomic_spin_count_2E, 4
_ZNSt8__detailL21__atomic_spin_count_2E:
	.long	4
	.align 4
	.type	_ZNSt15regex_constantsL13error_collateE, @object
	.size	_ZNSt15regex_constantsL13error_collateE, 4
_ZNSt15regex_constantsL13error_collateE:
	.zero	4
	.align 4
	.type	_ZNSt15regex_constantsL11error_ctypeE, @object
	.size	_ZNSt15regex_constantsL11error_ctypeE, 4
_ZNSt15regex_constantsL11error_ctypeE:
	.long	1
	.align 4
	.type	_ZNSt15regex_constantsL12error_escapeE, @object
	.size	_ZNSt15regex_constantsL12error_escapeE, 4
_ZNSt15regex_constantsL12error_escapeE:
	.long	2
	.align 4
	.type	_ZNSt15regex_constantsL13error_backrefE, @object
	.size	_ZNSt15regex_constantsL13error_backrefE, 4
_ZNSt15regex_constantsL13error_backrefE:
	.long	3
	.align 4
	.type	_ZNSt15regex_constantsL11error_brackE, @object
	.size	_ZNSt15regex_constantsL11error_brackE, 4
_ZNSt15regex_constantsL11error_brackE:
	.long	4
	.align 4
	.type	_ZNSt15regex_constantsL11error_parenE, @object
	.size	_ZNSt15regex_constantsL11error_parenE, 4
_ZNSt15regex_constantsL11error_parenE:
	.long	5
	.align 4
	.type	_ZNSt15regex_constantsL11error_braceE, @object
	.size	_ZNSt15regex_constantsL11error_braceE, 4
_ZNSt15regex_constantsL11error_braceE:
	.long	6
	.align 4
	.type	_ZNSt15regex_constantsL14error_badbraceE, @object
	.size	_ZNSt15regex_constantsL14error_badbraceE, 4
_ZNSt15regex_constantsL14error_badbraceE:
	.long	7
	.align 4
	.type	_ZNSt15regex_constantsL11error_rangeE, @object
	.size	_ZNSt15regex_constantsL11error_rangeE, 4
_ZNSt15regex_constantsL11error_rangeE:
	.long	8
	.align 4
	.type	_ZNSt15regex_constantsL11error_spaceE, @object
	.size	_ZNSt15regex_constantsL11error_spaceE, 4
_ZNSt15regex_constantsL11error_spaceE:
	.long	9
	.align 4
	.type	_ZNSt15regex_constantsL15error_badrepeatE, @object
	.size	_ZNSt15regex_constantsL15error_badrepeatE, 4
_ZNSt15regex_constantsL15error_badrepeatE:
	.long	10
	.align 4
	.type	_ZNSt15regex_constantsL16error_complexityE, @object
	.size	_ZNSt15regex_constantsL16error_complexityE, 4
_ZNSt15regex_constantsL16error_complexityE:
	.long	11
	.align 4
	.type	_ZNSt15regex_constantsL11error_stackE, @object
	.size	_ZNSt15regex_constantsL11error_stackE, 4
_ZNSt15regex_constantsL11error_stackE:
	.long	12
	.align 8
	.type	_ZNSt8__detailL19_S_invalid_state_idE, @object
	.size	_ZNSt8__detailL19_S_invalid_state_idE, 8
_ZNSt8__detailL19_S_invalid_state_idE:
	.quad	-1
	.section	.text._ZNSt8__detail15_Hash_code_baseINSt7__cxx1112basic_stringIcSt11char_traitsIcESaIcEEESt4pairIKS6_St6vectorIP8TinyblobSaISB_EEENS_10_Select1stESt4hashIS6_ENS_18_Mod_range_hashingENS_20_Default_ranged_hashELb1EEC2Ev,"axG",@progbits,_ZNSt8__detail15_Hash_code_baseINSt7__cxx1112basic_stringIcSt11char_traitsIcESaIcEEESt4pairIKS6_St6vectorIP8TinyblobSaISB_EEENS_10_Select1stESt4hashIS6_ENS_18_Mod_range_hashingENS_20_Default_ranged_hashELb1EEC5Ev,comdat
	.align 2
	.weak	_ZNSt8__detail15_Hash_code_baseINSt7__cxx1112basic_stringIcSt11char_traitsIcESaIcEEESt4pairIKS6_St6vectorIP8TinyblobSaISB_EEENS_10_Select1stESt4hashIS6_ENS_18_Mod_range_hashingENS_20_Default_ranged_hashELb1EEC2Ev
	.type	_ZNSt8__detail15_Hash_code_baseINSt7__cxx1112basic_stringIcSt11char_traitsIcESaIcEEESt4pairIKS6_St6vectorIP8TinyblobSaISB_EEENS_10_Select1stESt4hashIS6_ENS_18_Mod_range_hashingENS_20_Default_ranged_hashELb1EEC2Ev, @function
_ZNSt8__detail15_Hash_code_baseINSt7__cxx1112basic_stringIcSt11char_traitsIcESaIcEEESt4pairIKS6_St6vectorIP8TinyblobSaISB_EEENS_10_Select1stESt4hashIS6_ENS_18_Mod_range_hashingENS_20_Default_ranged_hashELb1EEC2Ev:
.LFB13368:
	.loc 3 1210 7
	.cfi_startproc
	endbr64
	pushq	%rbp
	.cfi_def_cfa_offset 16
	.cfi_offset 6, -16
	movq	%rsp, %rbp
	.cfi_def_cfa_register 6
	subq	$16, %rsp
	movq	%rdi, -8(%rbp)
.LBB12:
	.loc 3 1210 7
	movq	-8(%rbp), %rax
	movq	%rax, %rdi
	call	_ZNSt8__detail21_Hashtable_ebo_helperILi1ESt4hashINSt7__cxx1112basic_stringIcSt11char_traitsIcESaIcEEEELb1EEC2Ev
.LBE12:
	nop
	leave
	.cfi_def_cfa 7, 8
	ret
	.cfi_endproc
.LFE13368:
	.size	_ZNSt8__detail15_Hash_code_baseINSt7__cxx1112basic_stringIcSt11char_traitsIcESaIcEEESt4pairIKS6_St6vectorIP8TinyblobSaISB_EEENS_10_Select1stESt4hashIS6_ENS_18_Mod_range_hashingENS_20_Default_ranged_hashELb1EEC2Ev, .-_ZNSt8__detail15_Hash_code_baseINSt7__cxx1112basic_stringIcSt11char_traitsIcESaIcEEESt4pairIKS6_St6vectorIP8TinyblobSaISB_EEENS_10_Select1stESt4hashIS6_ENS_18_Mod_range_hashingENS_20_Default_ranged_hashELb1EEC2Ev
	.weak	_ZNSt8__detail15_Hash_code_baseINSt7__cxx1112basic_stringIcSt11char_traitsIcESaIcEEESt4pairIKS6_St6vectorIP8TinyblobSaISB_EEENS_10_Select1stESt4hashIS6_ENS_18_Mod_range_hashingENS_20_Default_ranged_hashELb1EEC1Ev
	.set	_ZNSt8__detail15_Hash_code_baseINSt7__cxx1112basic_stringIcSt11char_traitsIcESaIcEEESt4pairIKS6_St6vectorIP8TinyblobSaISB_EEENS_10_Select1stESt4hashIS6_ENS_18_Mod_range_hashingENS_20_Default_ranged_hashELb1EEC1Ev,_ZNSt8__detail15_Hash_code_baseINSt7__cxx1112basic_stringIcSt11char_traitsIcESaIcEEESt4pairIKS6_St6vectorIP8TinyblobSaISB_EEENS_10_Select1stESt4hashIS6_ENS_18_Mod_range_hashingENS_20_Default_ranged_hashELb1EEC2Ev
	.section	.text._ZNSt8__detail15_Hashtable_baseINSt7__cxx1112basic_stringIcSt11char_traitsIcESaIcEEESt4pairIKS6_St6vectorIP8TinyblobSaISB_EEENS_10_Select1stESt8equal_toIS6_ESt4hashIS6_ENS_18_Mod_range_hashingENS_20_Default_ranged_hashENS_17_Hashtable_traitsILb1ELb0ELb1EEEEC2Ev,"axG",@progbits,_ZNSt8__detail15_Hashtable_baseINSt7__cxx1112basic_stringIcSt11char_traitsIcESaIcEEESt4pairIKS6_St6vectorIP8TinyblobSaISB_EEENS_10_Select1stESt8equal_toIS6_ESt4hashIS6_ENS_18_Mod_range_hashingENS_20_Default_ranged_hashENS_17_Hashtable_traitsILb1ELb0ELb1EEEEC5Ev,comdat
	.align 2
	.weak	_ZNSt8__detail15_Hashtable_baseINSt7__cxx1112basic_stringIcSt11char_traitsIcESaIcEEESt4pairIKS6_St6vectorIP8TinyblobSaISB_EEENS_10_Select1stESt8equal_toIS6_ESt4hashIS6_ENS_18_Mod_range_hashingENS_20_Default_ranged_hashENS_17_Hashtable_traitsILb1ELb0ELb1EEEEC2Ev
	.type	_ZNSt8__detail15_Hashtable_baseINSt7__cxx1112basic_stringIcSt11char_traitsIcESaIcEEESt4pairIKS6_St6vectorIP8TinyblobSaISB_EEENS_10_Select1stESt8equal_toIS6_ESt4hashIS6_ENS_18_Mod_range_hashingENS_20_Default_ranged_hashENS_17_Hashtable_traitsILb1ELb0ELb1EEEEC2Ev, @function
_ZNSt8__detail15_Hashtable_baseINSt7__cxx1112basic_stringIcSt11char_traitsIcESaIcEEESt4pairIKS6_St6vectorIP8TinyblobSaISB_EEENS_10_Select1stESt8equal_toIS6_ESt4hashIS6_ENS_18_Mod_range_hashingENS_20_Default_ranged_hashENS_17_Hashtable_traitsILb1ELb0ELb1EEEEC2Ev:
.LFB13370:
	.loc 3 1604 7
	.cfi_startproc
	endbr64
	pushq	%rbp
	.cfi_def_cfa_offset 16
	.cfi_offset 6, -16
	movq	%rsp, %rbp
	.cfi_def_cfa_register 6
	subq	$16, %rsp
	movq	%rdi, -8(%rbp)
.LBB13:
	.loc 3 1604 7
	movq	-8(%rbp), %rax
	movq	%rax, %rdi
	call	_ZNSt8__detail15_Hash_code_baseINSt7__cxx1112basic_stringIcSt11char_traitsIcESaIcEEESt4pairIKS6_St6vectorIP8TinyblobSaISB_EEENS_10_Select1stESt4hashIS6_ENS_18_Mod_range_hashingENS_20_Default_ranged_hashELb1EEC2Ev
	movq	-8(%rbp), %rax
	movq	%rax, %rdi
	call	_ZNSt8__detail21_Hashtable_ebo_helperILi0ESt8equal_toINSt7__cxx1112basic_stringIcSt11char_traitsIcESaIcEEEELb1EEC2Ev
.LBE13:
	nop
	leave
	.cfi_def_cfa 7, 8
	ret
	.cfi_endproc
.LFE13370:
	.size	_ZNSt8__detail15_Hashtable_baseINSt7__cxx1112basic_stringIcSt11char_traitsIcESaIcEEESt4pairIKS6_St6vectorIP8TinyblobSaISB_EEENS_10_Select1stESt8equal_toIS6_ESt4hashIS6_ENS_18_Mod_range_hashingENS_20_Default_ranged_hashENS_17_Hashtable_traitsILb1ELb0ELb1EEEEC2Ev, .-_ZNSt8__detail15_Hashtable_baseINSt7__cxx1112basic_stringIcSt11char_traitsIcESaIcEEESt4pairIKS6_St6vectorIP8TinyblobSaISB_EEENS_10_Select1stESt8equal_toIS6_ESt4hashIS6_ENS_18_Mod_range_hashingENS_20_Default_ranged_hashENS_17_Hashtable_traitsILb1ELb0ELb1EEEEC2Ev
	.weak	_ZNSt8__detail15_Hashtable_baseINSt7__cxx1112basic_stringIcSt11char_traitsIcESaIcEEESt4pairIKS6_St6vectorIP8TinyblobSaISB_EEENS_10_Select1stESt8equal_toIS6_ESt4hashIS6_ENS_18_Mod_range_hashingENS_20_Default_ranged_hashENS_17_Hashtable_traitsILb1ELb0ELb1EEEEC1Ev
	.set	_ZNSt8__detail15_Hashtable_baseINSt7__cxx1112basic_stringIcSt11char_traitsIcESaIcEEESt4pairIKS6_St6vectorIP8TinyblobSaISB_EEENS_10_Select1stESt8equal_toIS6_ESt4hashIS6_ENS_18_Mod_range_hashingENS_20_Default_ranged_hashENS_17_Hashtable_traitsILb1ELb0ELb1EEEEC1Ev,_ZNSt8__detail15_Hashtable_baseINSt7__cxx1112basic_stringIcSt11char_traitsIcESaIcEEESt4pairIKS6_St6vectorIP8TinyblobSaISB_EEENS_10_Select1stESt8equal_toIS6_ESt4hashIS6_ENS_18_Mod_range_hashingENS_20_Default_ranged_hashENS_17_Hashtable_traitsILb1ELb0ELb1EEEEC2Ev
	.section	.text._ZNSt8__detail21_Hashtable_ebo_helperILi0ESaINS_10_Hash_nodeISt4pairIKNSt7__cxx1112basic_stringIcSt11char_traitsIcESaIcEEESt6vectorIP8TinyblobSaISC_EEELb1EEEELb1EED2Ev,"axG",@progbits,_ZNSt8__detail21_Hashtable_ebo_helperILi0ESaINS_10_Hash_nodeISt4pairIKNSt7__cxx1112basic_stringIcSt11char_traitsIcESaIcEEESt6vectorIP8TinyblobSaISC_EEELb1EEEELb1EED5Ev,comdat
	.align 2
	.weak	_ZNSt8__detail21_Hashtable_ebo_helperILi0ESaINS_10_Hash_nodeISt4pairIKNSt7__cxx1112basic_stringIcSt11char_traitsIcESaIcEEESt6vectorIP8TinyblobSaISC_EEELb1EEEELb1EED2Ev
	.type	_ZNSt8__detail21_Hashtable_ebo_helperILi0ESaINS_10_Hash_nodeISt4pairIKNSt7__cxx1112basic_stringIcSt11char_traitsIcESaIcEEESt6vectorIP8TinyblobSaISC_EEELb1EEEELb1EED2Ev, @function
_ZNSt8__detail21_Hashtable_ebo_helperILi0ESaINS_10_Hash_nodeISt4pairIKNSt7__cxx1112basic_stringIcSt11char_traitsIcESaIcEEESt6vectorIP8TinyblobSaISC_EEELb1EEEELb1EED2Ev:
.LFB13374:
	.loc 3 1124 12
	.cfi_startproc
	endbr64
	pushq	%rbp
	.cfi_def_cfa_offset 16
	.cfi_offset 6, -16
	movq	%rsp, %rbp
	.cfi_def_cfa_register 6
	subq	$16, %rsp
	movq	%rdi, -8(%rbp)
.LBB14:
	.loc 3 1124 12
	movq	-8(%rbp), %rax
	movq	%rax, %rdi
	call	_ZNSaINSt8__detail10_Hash_nodeISt4pairIKNSt7__cxx1112basic_stringIcSt11char_traitsIcESaIcEEESt6vectorIP8TinyblobSaISB_EEELb1EEEED2Ev
.LBE14:
	nop
	leave
	.cfi_def_cfa 7, 8
	ret
	.cfi_endproc
.LFE13374:
	.size	_ZNSt8__detail21_Hashtable_ebo_helperILi0ESaINS_10_Hash_nodeISt4pairIKNSt7__cxx1112basic_stringIcSt11char_traitsIcESaIcEEESt6vectorIP8TinyblobSaISC_EEELb1EEEELb1EED2Ev, .-_ZNSt8__detail21_Hashtable_ebo_helperILi0ESaINS_10_Hash_nodeISt4pairIKNSt7__cxx1112basic_stringIcSt11char_traitsIcESaIcEEESt6vectorIP8TinyblobSaISC_EEELb1EEEELb1EED2Ev
	.weak	_ZNSt8__detail21_Hashtable_ebo_helperILi0ESaINS_10_Hash_nodeISt4pairIKNSt7__cxx1112basic_stringIcSt11char_traitsIcESaIcEEESt6vectorIP8TinyblobSaISC_EEELb1EEEELb1EED1Ev
	.set	_ZNSt8__detail21_Hashtable_ebo_helperILi0ESaINS_10_Hash_nodeISt4pairIKNSt7__cxx1112basic_stringIcSt11char_traitsIcESaIcEEESt6vectorIP8TinyblobSaISC_EEELb1EEEELb1EED1Ev,_ZNSt8__detail21_Hashtable_ebo_helperILi0ESaINS_10_Hash_nodeISt4pairIKNSt7__cxx1112basic_stringIcSt11char_traitsIcESaIcEEESt6vectorIP8TinyblobSaISC_EEELb1EEEELb1EED2Ev
	.section	.text._ZNSt8__detail16_Hashtable_allocISaINS_10_Hash_nodeISt4pairIKNSt7__cxx1112basic_stringIcSt11char_traitsIcESaIcEEESt6vectorIP8TinyblobSaISC_EEELb1EEEEEC2Ev,"axG",@progbits,_ZNSt8__detail16_Hashtable_allocISaINS_10_Hash_nodeISt4pairIKNSt7__cxx1112basic_stringIcSt11char_traitsIcESaIcEEESt6vectorIP8TinyblobSaISC_EEELb1EEEEEC5Ev,comdat
	.align 2
	.weak	_ZNSt8__detail16_Hashtable_allocISaINS_10_Hash_nodeISt4pairIKNSt7__cxx1112basic_stringIcSt11char_traitsIcESaIcEEESt6vectorIP8TinyblobSaISC_EEELb1EEEEEC2Ev
	.type	_ZNSt8__detail16_Hashtable_allocISaINS_10_Hash_nodeISt4pairIKNSt7__cxx1112basic_stringIcSt11char_traitsIcESaIcEEESt6vectorIP8TinyblobSaISC_EEELb1EEEEEC2Ev, @function
_ZNSt8__detail16_Hashtable_allocISaINS_10_Hash_nodeISt4pairIKNSt7__cxx1112basic_stringIcSt11char_traitsIcESaIcEEESt6vectorIP8TinyblobSaISC_EEELb1EEEEEC2Ev:
.LFB13376:
	.loc 3 1823 7
	.cfi_startproc
	endbr64
	pushq	%rbp
	.cfi_def_cfa_offset 16
	.cfi_offset 6, -16
	movq	%rsp, %rbp
	.cfi_def_cfa_register 6
	subq	$16, %rsp
	movq	%rdi, -8(%rbp)
.LBB15:
	.loc 3 1823 7
	movq	-8(%rbp), %rax
	movq	%rax, %rdi
	call	_ZNSt8__detail21_Hashtable_ebo_helperILi0ESaINS_10_Hash_nodeISt4pairIKNSt7__cxx1112basic_stringIcSt11char_traitsIcESaIcEEESt6vectorIP8TinyblobSaISC_EEELb1EEEELb1EEC2Ev
.LBE15:
	nop
	leave
	.cfi_def_cfa 7, 8
	ret
	.cfi_endproc
.LFE13376:
	.size	_ZNSt8__detail16_Hashtable_allocISaINS_10_Hash_nodeISt4pairIKNSt7__cxx1112basic_stringIcSt11char_traitsIcESaIcEEESt6vectorIP8TinyblobSaISC_EEELb1EEEEEC2Ev, .-_ZNSt8__detail16_Hashtable_allocISaINS_10_Hash_nodeISt4pairIKNSt7__cxx1112basic_stringIcSt11char_traitsIcESaIcEEESt6vectorIP8TinyblobSaISC_EEELb1EEEEEC2Ev
	.weak	_ZNSt8__detail16_Hashtable_allocISaINS_10_Hash_nodeISt4pairIKNSt7__cxx1112basic_stringIcSt11char_traitsIcESaIcEEESt6vectorIP8TinyblobSaISC_EEELb1EEEEEC1Ev
	.set	_ZNSt8__detail16_Hashtable_allocISaINS_10_Hash_nodeISt4pairIKNSt7__cxx1112basic_stringIcSt11char_traitsIcESaIcEEESt6vectorIP8TinyblobSaISC_EEELb1EEEEEC1Ev,_ZNSt8__detail16_Hashtable_allocISaINS_10_Hash_nodeISt4pairIKNSt7__cxx1112basic_stringIcSt11char_traitsIcESaIcEEESt6vectorIP8TinyblobSaISC_EEELb1EEEEEC2Ev
	.section	.text._ZNSt8__detail16_Hashtable_allocISaINS_10_Hash_nodeISt4pairIKNSt7__cxx1112basic_stringIcSt11char_traitsIcESaIcEEESt6vectorIP8TinyblobSaISC_EEELb1EEEEED2Ev,"axG",@progbits,_ZNSt8__detail16_Hashtable_allocISaINS_10_Hash_nodeISt4pairIKNSt7__cxx1112basic_stringIcSt11char_traitsIcESaIcEEESt6vectorIP8TinyblobSaISC_EEELb1EEEEED5Ev,comdat
	.align 2
	.weak	_ZNSt8__detail16_Hashtable_allocISaINS_10_Hash_nodeISt4pairIKNSt7__cxx1112basic_stringIcSt11char_traitsIcESaIcEEESt6vectorIP8TinyblobSaISC_EEELb1EEEEED2Ev
	.type	_ZNSt8__detail16_Hashtable_allocISaINS_10_Hash_nodeISt4pairIKNSt7__cxx1112basic_stringIcSt11char_traitsIcESaIcEEESt6vectorIP8TinyblobSaISC_EEELb1EEEEED2Ev, @function
_ZNSt8__detail16_Hashtable_allocISaINS_10_Hash_nodeISt4pairIKNSt7__cxx1112basic_stringIcSt11char_traitsIcESaIcEEESt6vectorIP8TinyblobSaISC_EEELb1EEEEED2Ev:
.LFB13379:
	.loc 3 1802 12
	.cfi_startproc
	endbr64
	pushq	%rbp
	.cfi_def_cfa_offset 16
	.cfi_offset 6, -16
	movq	%rsp, %rbp
	.cfi_def_cfa_register 6
	subq	$16, %rsp
	movq	%rdi, -8(%rbp)
.LBB16:
	.loc 3 1802 12
	movq	-8(%rbp), %rax
	movq	%rax, %rdi
	call	_ZNSt8__detail21_Hashtable_ebo_helperILi0ESaINS_10_Hash_nodeISt4pairIKNSt7__cxx1112basic_stringIcSt11char_traitsIcESaIcEEESt6vectorIP8TinyblobSaISC_EEELb1EEEELb1EED2Ev
.LBE16:
	nop
	leave
	.cfi_def_cfa 7, 8
	ret
	.cfi_endproc
.LFE13379:
	.size	_ZNSt8__detail16_Hashtable_allocISaINS_10_Hash_nodeISt4pairIKNSt7__cxx1112basic_stringIcSt11char_traitsIcESaIcEEESt6vectorIP8TinyblobSaISC_EEELb1EEEEED2Ev, .-_ZNSt8__detail16_Hashtable_allocISaINS_10_Hash_nodeISt4pairIKNSt7__cxx1112basic_stringIcSt11char_traitsIcESaIcEEESt6vectorIP8TinyblobSaISC_EEELb1EEEEED2Ev
	.weak	_ZNSt8__detail16_Hashtable_allocISaINS_10_Hash_nodeISt4pairIKNSt7__cxx1112basic_stringIcSt11char_traitsIcESaIcEEESt6vectorIP8TinyblobSaISC_EEELb1EEEEED1Ev
	.set	_ZNSt8__detail16_Hashtable_allocISaINS_10_Hash_nodeISt4pairIKNSt7__cxx1112basic_stringIcSt11char_traitsIcESaIcEEESt6vectorIP8TinyblobSaISC_EEELb1EEEEED1Ev,_ZNSt8__detail16_Hashtable_allocISaINS_10_Hash_nodeISt4pairIKNSt7__cxx1112basic_stringIcSt11char_traitsIcESaIcEEESt6vectorIP8TinyblobSaISC_EEELb1EEEEED2Ev
	.section	.text._ZNSt10_HashtableINSt7__cxx1112basic_stringIcSt11char_traitsIcESaIcEEESt4pairIKS5_St6vectorIP8TinyblobSaISA_EEESaISD_ENSt8__detail10_Select1stESt8equal_toIS5_ESt4hashIS5_ENSF_18_Mod_range_hashingENSF_20_Default_ranged_hashENSF_20_Prime_rehash_policyENSF_17_Hashtable_traitsILb1ELb0ELb1EEEEC2Ev,"axG",@progbits,_ZNSt10_HashtableINSt7__cxx1112basic_stringIcSt11char_traitsIcESaIcEEESt4pairIKS5_St6vectorIP8TinyblobSaISA_EEESaISD_ENSt8__detail10_Select1stESt8equal_toIS5_ESt4hashIS5_ENSF_18_Mod_range_hashingENSF_20_Default_ranged_hashENSF_20_Prime_rehash_policyENSF_17_Hashtable_traitsILb1ELb0ELb1EEEEC5Ev,comdat
	.align 2
	.weak	_ZNSt10_HashtableINSt7__cxx1112basic_stringIcSt11char_traitsIcESaIcEEESt4pairIKS5_St6vectorIP8TinyblobSaISA_EEESaISD_ENSt8__detail10_Select1stESt8equal_toIS5_ESt4hashIS5_ENSF_18_Mod_range_hashingENSF_20_Default_ranged_hashENSF_20_Prime_rehash_policyENSF_17_Hashtable_traitsILb1ELb0ELb1EEEEC2Ev
	.type	_ZNSt10_HashtableINSt7__cxx1112basic_stringIcSt11char_traitsIcESaIcEEESt4pairIKS5_St6vectorIP8TinyblobSaISA_EEESaISD_ENSt8__detail10_Select1stESt8equal_toIS5_ESt4hashIS5_ENSF_18_Mod_range_hashingENSF_20_Default_ranged_hashENSF_20_Prime_rehash_policyENSF_17_Hashtable_traitsILb1ELb0ELb1EEEEC2Ev, @function
_ZNSt10_HashtableINSt7__cxx1112basic_stringIcSt11char_traitsIcESaIcEEESt4pairIKS5_St6vectorIP8TinyblobSaISA_EEESaISD_ENSt8__detail10_Select1stESt8equal_toIS5_ESt4hashIS5_ENSF_18_Mod_range_hashingENSF_20_Default_ranged_hashENSF_20_Prime_rehash_policyENSF_17_Hashtable_traitsILb1ELb0ELb1EEEEC2Ev:
.LFB13381:
	.file 4 "/usr/include/c++/11/bits/hashtable.h"
	.loc 4 528 7
	.cfi_startproc
	endbr64
	pushq	%rbp
	.cfi_def_cfa_offset 16
	.cfi_offset 6, -16
	movq	%rsp, %rbp
	.cfi_def_cfa_register 6
	subq	$16, %rsp
	movq	%rdi, -8(%rbp)
.LBB17:
	.loc 4 528 7
	movq	-8(%rbp), %rax
	movq	%rax, %rdi
	call	_ZNSt8__detail15_Hashtable_baseINSt7__cxx1112basic_stringIcSt11char_traitsIcESaIcEEESt4pairIKS6_St6vectorIP8TinyblobSaISB_EEENS_10_Select1stESt8equal_toIS6_ESt4hashIS6_ENS_18_Mod_range_hashingENS_20_Default_ranged_hashENS_17_Hashtable_traitsILb1ELb0ELb1EEEEC2Ev
	movq	-8(%rbp), %rax
	movq	%rax, %rdi
	call	_ZNSt8__detail16_Hashtable_allocISaINS_10_Hash_nodeISt4pairIKNSt7__cxx1112basic_stringIcSt11char_traitsIcESaIcEEESt6vectorIP8TinyblobSaISC_EEELb1EEEEEC2Ev
	movq	-8(%rbp), %rax
	leaq	48(%rax), %rdx
	movq	-8(%rbp), %rax
	movq	%rdx, (%rax)
	movq	-8(%rbp), %rax
	movq	$1, 8(%rax)
	movq	-8(%rbp), %rax
	addq	$16, %rax
	movq	%rax, %rdi
	call	_ZNSt8__detail15_Hash_node_baseC1Ev
	movq	-8(%rbp), %rax
	movq	$0, 24(%rax)
	movq	-8(%rbp), %rax
	leaq	32(%rax), %rdx
	movl	.LC0(%rip), %eax
	movd	%eax, %xmm0
	movq	%rdx, %rdi
	call	_ZNSt8__detail20_Prime_rehash_policyC1Ef
	movq	-8(%rbp), %rax
	movq	$0, 48(%rax)
.LBE17:
	nop
	leave
	.cfi_def_cfa 7, 8
	ret
	.cfi_endproc
.LFE13381:
	.size	_ZNSt10_HashtableINSt7__cxx1112basic_stringIcSt11char_traitsIcESaIcEEESt4pairIKS5_St6vectorIP8TinyblobSaISA_EEESaISD_ENSt8__detail10_Select1stESt8equal_toIS5_ESt4hashIS5_ENSF_18_Mod_range_hashingENSF_20_Default_ranged_hashENSF_20_Prime_rehash_policyENSF_17_Hashtable_traitsILb1ELb0ELb1EEEEC2Ev, .-_ZNSt10_HashtableINSt7__cxx1112basic_stringIcSt11char_traitsIcESaIcEEESt4pairIKS5_St6vectorIP8TinyblobSaISA_EEESaISD_ENSt8__detail10_Select1stESt8equal_toIS5_ESt4hashIS5_ENSF_18_Mod_range_hashingENSF_20_Default_ranged_hashENSF_20_Prime_rehash_policyENSF_17_Hashtable_traitsILb1ELb0ELb1EEEEC2Ev
	.weak	_ZNSt10_HashtableINSt7__cxx1112basic_stringIcSt11char_traitsIcESaIcEEESt4pairIKS5_St6vectorIP8TinyblobSaISA_EEESaISD_ENSt8__detail10_Select1stESt8equal_toIS5_ESt4hashIS5_ENSF_18_Mod_range_hashingENSF_20_Default_ranged_hashENSF_20_Prime_rehash_policyENSF_17_Hashtable_traitsILb1ELb0ELb1EEEEC1Ev
	.set	_ZNSt10_HashtableINSt7__cxx1112basic_stringIcSt11char_traitsIcESaIcEEESt4pairIKS5_St6vectorIP8TinyblobSaISA_EEESaISD_ENSt8__detail10_Select1stESt8equal_toIS5_ESt4hashIS5_ENSF_18_Mod_range_hashingENSF_20_Default_ranged_hashENSF_20_Prime_rehash_policyENSF_17_Hashtable_traitsILb1ELb0ELb1EEEEC1Ev,_ZNSt10_HashtableINSt7__cxx1112basic_stringIcSt11char_traitsIcESaIcEEESt4pairIKS5_St6vectorIP8TinyblobSaISA_EEESaISD_ENSt8__detail10_Select1stESt8equal_toIS5_ESt4hashIS5_ENSF_18_Mod_range_hashingENSF_20_Default_ranged_hashENSF_20_Prime_rehash_policyENSF_17_Hashtable_traitsILb1ELb0ELb1EEEEC2Ev
	.section	.text._ZNSt13unordered_mapINSt7__cxx1112basic_stringIcSt11char_traitsIcESaIcEEESt6vectorIP8TinyblobSaIS8_EESt4hashIS5_ESt8equal_toIS5_ESaISt4pairIKS5_SA_EEEC2Ev,"axG",@progbits,_ZNSt13unordered_mapINSt7__cxx1112basic_stringIcSt11char_traitsIcESaIcEEESt6vectorIP8TinyblobSaIS8_EESt4hashIS5_ESt8equal_toIS5_ESaISt4pairIKS5_SA_EEEC5Ev,comdat
	.align 2
	.weak	_ZNSt13unordered_mapINSt7__cxx1112basic_stringIcSt11char_traitsIcESaIcEEESt6vectorIP8TinyblobSaIS8_EESt4hashIS5_ESt8equal_toIS5_ESaISt4pairIKS5_SA_EEEC2Ev
	.type	_ZNSt13unordered_mapINSt7__cxx1112basic_stringIcSt11char_traitsIcESaIcEEESt6vectorIP8TinyblobSaIS8_EESt4hashIS5_ESt8equal_toIS5_ESaISt4pairIKS5_SA_EEEC2Ev, @function
_ZNSt13unordered_mapINSt7__cxx1112basic_stringIcSt11char_traitsIcESaIcEEESt6vectorIP8TinyblobSaIS8_EESt4hashIS5_ESt8equal_toIS5_ESaISt4pairIKS5_SA_EEEC2Ev:
.LFB13383:
	.file 5 "/usr/include/c++/11/bits/unordered_map.h"
	.loc 5 141 7
	.cfi_startproc
	endbr64
	pushq	%rbp
	.cfi_def_cfa_offset 16
	.cfi_offset 6, -16
	movq	%rsp, %rbp
	.cfi_def_cfa_register 6
	subq	$16, %rsp
	movq	%rdi, -8(%rbp)
.LBB18:
	.loc 5 141 7
	movq	-8(%rbp), %rax
	movq	%rax, %rdi
	call	_ZNSt10_HashtableINSt7__cxx1112basic_stringIcSt11char_traitsIcESaIcEEESt4pairIKS5_St6vectorIP8TinyblobSaISA_EEESaISD_ENSt8__detail10_Select1stESt8equal_toIS5_ESt4hashIS5_ENSF_18_Mod_range_hashingENSF_20_Default_ranged_hashENSF_20_Prime_rehash_policyENSF_17_Hashtable_traitsILb1ELb0ELb1EEEEC1Ev
.LBE18:
	nop
	leave
	.cfi_def_cfa 7, 8
	ret
	.cfi_endproc
.LFE13383:
	.size	_ZNSt13unordered_mapINSt7__cxx1112basic_stringIcSt11char_traitsIcESaIcEEESt6vectorIP8TinyblobSaIS8_EESt4hashIS5_ESt8equal_toIS5_ESaISt4pairIKS5_SA_EEEC2Ev, .-_ZNSt13unordered_mapINSt7__cxx1112basic_stringIcSt11char_traitsIcESaIcEEESt6vectorIP8TinyblobSaIS8_EESt4hashIS5_ESt8equal_toIS5_ESaISt4pairIKS5_SA_EEEC2Ev
	.weak	_ZNSt13unordered_mapINSt7__cxx1112basic_stringIcSt11char_traitsIcESaIcEEESt6vectorIP8TinyblobSaIS8_EESt4hashIS5_ESt8equal_toIS5_ESaISt4pairIKS5_SA_EEEC1Ev
	.set	_ZNSt13unordered_mapINSt7__cxx1112basic_stringIcSt11char_traitsIcESaIcEEESt6vectorIP8TinyblobSaIS8_EESt4hashIS5_ESt8equal_toIS5_ESaISt4pairIKS5_SA_EEEC1Ev,_ZNSt13unordered_mapINSt7__cxx1112basic_stringIcSt11char_traitsIcESaIcEEESt6vectorIP8TinyblobSaIS8_EESt4hashIS5_ESt8equal_toIS5_ESaISt4pairIKS5_SA_EEEC2Ev
	.section	.text._ZNSt13unordered_mapINSt7__cxx1112basic_stringIcSt11char_traitsIcESaIcEEESt6vectorIP8TinyblobSaIS8_EESt4hashIS5_ESt8equal_toIS5_ESaISt4pairIKS5_SA_EEED2Ev,"axG",@progbits,_ZNSt13unordered_mapINSt7__cxx1112basic_stringIcSt11char_traitsIcESaIcEEESt6vectorIP8TinyblobSaIS8_EESt4hashIS5_ESt8equal_toIS5_ESaISt4pairIKS5_SA_EEED5Ev,comdat
	.align 2
	.weak	_ZNSt13unordered_mapINSt7__cxx1112basic_stringIcSt11char_traitsIcESaIcEEESt6vectorIP8TinyblobSaIS8_EESt4hashIS5_ESt8equal_toIS5_ESaISt4pairIKS5_SA_EEED2Ev
	.type	_ZNSt13unordered_mapINSt7__cxx1112basic_stringIcSt11char_traitsIcESaIcEEESt6vectorIP8TinyblobSaIS8_EESt4hashIS5_ESt8equal_toIS5_ESaISt4pairIKS5_SA_EEED2Ev, @function
_ZNSt13unordered_mapINSt7__cxx1112basic_stringIcSt11char_traitsIcESaIcEEESt6vectorIP8TinyblobSaIS8_EESt4hashIS5_ESt8equal_toIS5_ESaISt4pairIKS5_SA_EEED2Ev:
.LFB13386:
	.loc 5 102 11
	.cfi_startproc
	endbr64
	pushq	%rbp
	.cfi_def_cfa_offset 16
	.cfi_offset 6, -16
	movq	%rsp, %rbp
	.cfi_def_cfa_register 6
	subq	$16, %rsp
	movq	%rdi, -8(%rbp)
.LBB19:
	.loc 5 102 11
	movq	-8(%rbp), %rax
	movq	%rax, %rdi
	call	_ZNSt10_HashtableINSt7__cxx1112basic_stringIcSt11char_traitsIcESaIcEEESt4pairIKS5_St6vectorIP8TinyblobSaISA_EEESaISD_ENSt8__detail10_Select1stESt8equal_toIS5_ESt4hashIS5_ENSF_18_Mod_range_hashingENSF_20_Default_ranged_hashENSF_20_Prime_rehash_policyENSF_17_Hashtable_traitsILb1ELb0ELb1EEEED1Ev
.LBE19:
	nop
	leave
	.cfi_def_cfa 7, 8
	ret
	.cfi_endproc
.LFE13386:
	.size	_ZNSt13unordered_mapINSt7__cxx1112basic_stringIcSt11char_traitsIcESaIcEEESt6vectorIP8TinyblobSaIS8_EESt4hashIS5_ESt8equal_toIS5_ESaISt4pairIKS5_SA_EEED2Ev, .-_ZNSt13unordered_mapINSt7__cxx1112basic_stringIcSt11char_traitsIcESaIcEEESt6vectorIP8TinyblobSaIS8_EESt4hashIS5_ESt8equal_toIS5_ESaISt4pairIKS5_SA_EEED2Ev
	.weak	_ZNSt13unordered_mapINSt7__cxx1112basic_stringIcSt11char_traitsIcESaIcEEESt6vectorIP8TinyblobSaIS8_EESt4hashIS5_ESt8equal_toIS5_ESaISt4pairIKS5_SA_EEED1Ev
	.set	_ZNSt13unordered_mapINSt7__cxx1112basic_stringIcSt11char_traitsIcESaIcEEESt6vectorIP8TinyblobSaIS8_EESt4hashIS5_ESt8equal_toIS5_ESaISt4pairIKS5_SA_EEED1Ev,_ZNSt13unordered_mapINSt7__cxx1112basic_stringIcSt11char_traitsIcESaIcEEESt6vectorIP8TinyblobSaIS8_EESt4hashIS5_ESt8equal_toIS5_ESaISt4pairIKS5_SA_EEED2Ev
	.section	.text._ZNSt12_Vector_baseIP8TinyblobSaIS1_EE12_Vector_implD2Ev,"axG",@progbits,_ZNSt12_Vector_baseIP8TinyblobSaIS1_EE12_Vector_implD5Ev,comdat
	.align 2
	.weak	_ZNSt12_Vector_baseIP8TinyblobSaIS1_EE12_Vector_implD2Ev
	.type	_ZNSt12_Vector_baseIP8TinyblobSaIS1_EE12_Vector_implD2Ev, @function
_ZNSt12_Vector_baseIP8TinyblobSaIS1_EE12_Vector_implD2Ev:
.LFB13393:
	.file 6 "/usr/include/c++/11/bits/stl_vector.h"
	.loc 6 128 14
	.cfi_startproc
	endbr64
	pushq	%rbp
	.cfi_def_cfa_offset 16
	.cfi_offset 6, -16
	movq	%rsp, %rbp
	.cfi_def_cfa_register 6
	subq	$16, %rsp
	movq	%rdi, -8(%rbp)
.LBB20:
	.loc 6 128 14
	movq	-8(%rbp), %rax
	movq	%rax, %rdi
	call	_ZNSaIP8TinyblobED2Ev
.LBE20:
	nop
	leave
	.cfi_def_cfa 7, 8
	ret
	.cfi_endproc
.LFE13393:
	.size	_ZNSt12_Vector_baseIP8TinyblobSaIS1_EE12_Vector_implD2Ev, .-_ZNSt12_Vector_baseIP8TinyblobSaIS1_EE12_Vector_implD2Ev
	.weak	_ZNSt12_Vector_baseIP8TinyblobSaIS1_EE12_Vector_implD1Ev
	.set	_ZNSt12_Vector_baseIP8TinyblobSaIS1_EE12_Vector_implD1Ev,_ZNSt12_Vector_baseIP8TinyblobSaIS1_EE12_Vector_implD2Ev
	.section	.text._ZNSt12_Vector_baseIP8TinyblobSaIS1_EEC2Ev,"axG",@progbits,_ZNSt12_Vector_baseIP8TinyblobSaIS1_EEC5Ev,comdat
	.align 2
	.weak	_ZNSt12_Vector_baseIP8TinyblobSaIS1_EEC2Ev
	.type	_ZNSt12_Vector_baseIP8TinyblobSaIS1_EEC2Ev, @function
_ZNSt12_Vector_baseIP8TinyblobSaIS1_EEC2Ev:
.LFB13395:
	.loc 6 288 7
	.cfi_startproc
	endbr64
	pushq	%rbp
	.cfi_def_cfa_offset 16
	.cfi_offset 6, -16
	movq	%rsp, %rbp
	.cfi_def_cfa_register 6
	subq	$16, %rsp
	movq	%rdi, -8(%rbp)
.LBB21:
	.loc 6 288 7
	movq	-8(%rbp), %rax
	movq	%rax, %rdi
	call	_ZNSt12_Vector_baseIP8TinyblobSaIS1_EE12_Vector_implC1Ev
.LBE21:
	nop
	leave
	.cfi_def_cfa 7, 8
	ret
	.cfi_endproc
.LFE13395:
	.size	_ZNSt12_Vector_baseIP8TinyblobSaIS1_EEC2Ev, .-_ZNSt12_Vector_baseIP8TinyblobSaIS1_EEC2Ev
	.weak	_ZNSt12_Vector_baseIP8TinyblobSaIS1_EEC1Ev
	.set	_ZNSt12_Vector_baseIP8TinyblobSaIS1_EEC1Ev,_ZNSt12_Vector_baseIP8TinyblobSaIS1_EEC2Ev
	.section	.text._ZNSt6vectorIP8TinyblobSaIS1_EEC2Ev,"axG",@progbits,_ZNSt6vectorIP8TinyblobSaIS1_EEC5Ev,comdat
	.align 2
	.weak	_ZNSt6vectorIP8TinyblobSaIS1_EEC2Ev
	.type	_ZNSt6vectorIP8TinyblobSaIS1_EEC2Ev, @function
_ZNSt6vectorIP8TinyblobSaIS1_EEC2Ev:
.LFB13397:
	.loc 6 487 7
	.cfi_startproc
	endbr64
	pushq	%rbp
	.cfi_def_cfa_offset 16
	.cfi_offset 6, -16
	movq	%rsp, %rbp
	.cfi_def_cfa_register 6
	subq	$16, %rsp
	movq	%rdi, -8(%rbp)
.LBB22:
	.loc 6 487 7
	movq	-8(%rbp), %rax
	movq	%rax, %rdi
	call	_ZNSt12_Vector_baseIP8TinyblobSaIS1_EEC2Ev
.LBE22:
	nop
	leave
	.cfi_def_cfa 7, 8
	ret
	.cfi_endproc
.LFE13397:
	.size	_ZNSt6vectorIP8TinyblobSaIS1_EEC2Ev, .-_ZNSt6vectorIP8TinyblobSaIS1_EEC2Ev
	.weak	_ZNSt6vectorIP8TinyblobSaIS1_EEC1Ev
	.set	_ZNSt6vectorIP8TinyblobSaIS1_EEC1Ev,_ZNSt6vectorIP8TinyblobSaIS1_EEC2Ev
	.section	.text._ZN11Thread_infoC2Ev,"axG",@progbits,_ZN11Thread_infoC5Ev,comdat
	.align 2
	.weak	_ZN11Thread_infoC2Ev
	.type	_ZN11Thread_infoC2Ev, @function
_ZN11Thread_infoC2Ev:
.LFB13399:
	.file 7 "ti.hpp"
	.loc 7 14 7
	.cfi_startproc
	endbr64
	pushq	%rbp
	.cfi_def_cfa_offset 16
	.cfi_offset 6, -16
	movq	%rsp, %rbp
	.cfi_def_cfa_register 6
	subq	$16, %rsp
	movq	%rdi, -8(%rbp)
.LBB23:
	.loc 7 14 7
	movq	-8(%rbp), %rax
	movq	%rax, %rdi
	call	_ZNSt6vectorIP8TinyblobSaIS1_EEC1Ev
	movq	-8(%rbp), %rax
	addq	$24, %rax
	movq	%rax, %rdi
	call	_ZNSt7__cxx1112basic_stringIcSt11char_traitsIcESaIcEEC1Ev
	movq	-8(%rbp), %rax
	addq	$56, %rax
	movq	%rax, %rdi
	call	_ZNSt7__cxx1112basic_stringIcSt11char_traitsIcESaIcEEC1Ev
.LBE23:
	nop
	leave
	.cfi_def_cfa 7, 8
	ret
	.cfi_endproc
.LFE13399:
	.size	_ZN11Thread_infoC2Ev, .-_ZN11Thread_infoC2Ev
	.weak	_ZN11Thread_infoC1Ev
	.set	_ZN11Thread_infoC1Ev,_ZN11Thread_infoC2Ev
	.text
	.align 2
	.globl	_ZN9TinyindexC2Ev
	.type	_ZN9TinyindexC2Ev, @function
_ZN9TinyindexC2Ev:
.LFB13401:
	.file 8 "ti.cpp"
	.loc 8 3 1
	.cfi_startproc
	.cfi_personality 0x9b,DW.ref.__gxx_personality_v0
	.cfi_lsda 0x1b,.LLSDA13401
	endbr64
	pushq	%rbp
	.cfi_def_cfa_offset 16
	.cfi_offset 6, -16
	movq	%rsp, %rbp
	.cfi_def_cfa_register 6
	pushq	%rbx
	subq	$24, %rsp
	.cfi_offset 3, -24
	movq	%rdi, -24(%rbp)
.LBB24:
	.loc 8 3 22
	movq	-24(%rbp), %rax
	movq	%rax, %rdi
	call	_ZNSt13unordered_mapINSt7__cxx1112basic_stringIcSt11char_traitsIcESaIcEEESt6vectorIP8TinyblobSaIS8_EESt4hashIS5_ESt8equal_toIS5_ESaISt4pairIKS5_SA_EEEC1Ev
	movq	-24(%rbp), %rax
	addq	$56, %rax
	movq	%rax, %rdi
	call	_ZNSt7__cxx1112basic_stringIcSt11char_traitsIcESaIcEEC1Ev
	movq	-24(%rbp), %rax
	addq	$88, %rax
	movq	%rax, %rdi
.LEHB0:
	call	_ZNSt14basic_ifstreamIcSt11char_traitsIcEEC1Ev@PLT
.LEHE0:
	.loc 8 4 26
	movl	$96, %edi
.LEHB1:
	call	_Znwm@PLT
.LEHE1:
	movq	%rax, %rbx
	movq	%rbx, %rsi
	movl	$0, %eax
	movl	$12, %edx
	movq	%rsi, %rdi
	movq	%rdx, %rcx
	rep stosq
	movq	%rbx, %rdi
	call	_ZN11Thread_infoC1Ev
	.loc 8 4 8
	movq	-24(%rbp), %rax
	movq	%rbx, 608(%rax)
.LBE24:
	.loc 8 5 1
	jmp	.L23
.L22:
	endbr64
.LBB25:
	movq	%rax, %rbx
	movq	-24(%rbp), %rax
	addq	$88, %rax
	movq	%rax, %rdi
	call	_ZNSt14basic_ifstreamIcSt11char_traitsIcEED1Ev@PLT
	jmp	.L20
.L21:
	endbr64
	movq	%rax, %rbx
.L20:
	movq	-24(%rbp), %rax
	addq	$56, %rax
	movq	%rax, %rdi
	call	_ZNSt7__cxx1112basic_stringIcSt11char_traitsIcESaIcEED1Ev
	movq	-24(%rbp), %rax
	movq	%rax, %rdi
	call	_ZNSt13unordered_mapINSt7__cxx1112basic_stringIcSt11char_traitsIcESaIcEEESt6vectorIP8TinyblobSaIS8_EESt4hashIS5_ESt8equal_toIS5_ESaISt4pairIKS5_SA_EEED1Ev
	movq	%rbx, %rax
	movq	%rax, %rdi
.LEHB2:
	call	_Unwind_Resume@PLT
.LEHE2:
.L23:
.LBE25:
	movq	-8(%rbp), %rbx
	leave
	.cfi_def_cfa 7, 8
	ret
	.cfi_endproc
.LFE13401:
	.globl	__gxx_personality_v0
	.section	.gcc_except_table,"a",@progbits
.LLSDA13401:
	.byte	0xff
	.byte	0xff
	.byte	0x1
	.uleb128 .LLSDACSE13401-.LLSDACSB13401
.LLSDACSB13401:
	.uleb128 .LEHB0-.LFB13401
	.uleb128 .LEHE0-.LEHB0
	.uleb128 .L21-.LFB13401
	.uleb128 0
	.uleb128 .LEHB1-.LFB13401
	.uleb128 .LEHE1-.LEHB1
	.uleb128 .L22-.LFB13401
	.uleb128 0
	.uleb128 .LEHB2-.LFB13401
	.uleb128 .LEHE2-.LEHB2
	.uleb128 0
	.uleb128 0
.LLSDACSE13401:
	.text
	.size	_ZN9TinyindexC2Ev, .-_ZN9TinyindexC2Ev
	.globl	_ZN9TinyindexC1Ev
	.set	_ZN9TinyindexC1Ev,_ZN9TinyindexC2Ev
	.align 2
	.globl	_ZN9TinyindexD2Ev
	.type	_ZN9TinyindexD2Ev, @function
_ZN9TinyindexD2Ev:
.LFB13404:
	.loc 8 7 1
	.cfi_startproc
	endbr64
	pushq	%rbp
	.cfi_def_cfa_offset 16
	.cfi_offset 6, -16
	movq	%rsp, %rbp
	.cfi_def_cfa_register 6
	subq	$16, %rsp
	movq	%rdi, -8(%rbp)
.LBB26:
	.loc 8 7 25
	movq	-8(%rbp), %rax
	addq	$88, %rax
	movq	%rax, %rdi
	call	_ZNSt14basic_ifstreamIcSt11char_traitsIcEED1Ev@PLT
	movq	-8(%rbp), %rax
	addq	$56, %rax
	movq	%rax, %rdi
	call	_ZNSt7__cxx1112basic_stringIcSt11char_traitsIcESaIcEED1Ev
	movq	-8(%rbp), %rax
	movq	%rax, %rdi
	call	_ZNSt13unordered_mapINSt7__cxx1112basic_stringIcSt11char_traitsIcESaIcEEESt6vectorIP8TinyblobSaIS8_EESt4hashIS5_ESt8equal_toIS5_ESaISt4pairIKS5_SA_EEED1Ev
.LBE26:
	nop
	leave
	.cfi_def_cfa 7, 8
	ret
	.cfi_endproc
.LFE13404:
	.size	_ZN9TinyindexD2Ev, .-_ZN9TinyindexD2Ev
	.globl	_ZN9TinyindexD1Ev
	.set	_ZN9TinyindexD1Ev,_ZN9TinyindexD2Ev
	.section	.text._ZNSt7__cxx1112basic_stringIcSt11char_traitsIcESaIcEE12_Alloc_hiderD2Ev,"axG",@progbits,_ZNSt7__cxx1112basic_stringIcSt11char_traitsIcESaIcEE12_Alloc_hiderD5Ev,comdat
	.align 2
	.weak	_ZNSt7__cxx1112basic_stringIcSt11char_traitsIcESaIcEE12_Alloc_hiderD2Ev
	.type	_ZNSt7__cxx1112basic_stringIcSt11char_traitsIcESaIcEE12_Alloc_hiderD2Ev, @function
_ZNSt7__cxx1112basic_stringIcSt11char_traitsIcESaIcEE12_Alloc_hiderD2Ev:
.LFB13545:
	.file 9 "/usr/include/c++/11/bits/basic_string.h"
	.loc 9 158 14
	.cfi_startproc
	endbr64
	pushq	%rbp
	.cfi_def_cfa_offset 16
	.cfi_offset 6, -16
	movq	%rsp, %rbp
	.cfi_def_cfa_register 6
	subq	$16, %rsp
	movq	%rdi, -8(%rbp)
.LBB27:
	.loc 9 158 14
	movq	-8(%rbp), %rax
	movq	%rax, %rdi
	call	_ZNSaIcED2Ev@PLT
.LBE27:
	nop
	leave
	.cfi_def_cfa 7, 8
	ret
	.cfi_endproc
.LFE13545:
	.size	_ZNSt7__cxx1112basic_stringIcSt11char_traitsIcESaIcEE12_Alloc_hiderD2Ev, .-_ZNSt7__cxx1112basic_stringIcSt11char_traitsIcESaIcEE12_Alloc_hiderD2Ev
	.weak	_ZNSt7__cxx1112basic_stringIcSt11char_traitsIcESaIcEE12_Alloc_hiderD1Ev
	.set	_ZNSt7__cxx1112basic_stringIcSt11char_traitsIcESaIcEE12_Alloc_hiderD1Ev,_ZNSt7__cxx1112basic_stringIcSt11char_traitsIcESaIcEE12_Alloc_hiderD2Ev
	.section	.text._ZNSt7__cxx1112basic_stringIcSt11char_traitsIcESaIcEED2Ev,"axG",@progbits,_ZNSt7__cxx1112basic_stringIcSt11char_traitsIcESaIcEED5Ev,comdat
	.align 2
	.weak	_ZNSt7__cxx1112basic_stringIcSt11char_traitsIcESaIcEED2Ev
	.type	_ZNSt7__cxx1112basic_stringIcSt11char_traitsIcESaIcEED2Ev, @function
_ZNSt7__cxx1112basic_stringIcSt11char_traitsIcESaIcEED2Ev:
.LFB13550:
	.loc 9 671 7
	.cfi_startproc
	.cfi_personality 0x9b,DW.ref.__gxx_personality_v0
	.cfi_lsda 0x1b,.LLSDA13550
	endbr64
	pushq	%rbp
	.cfi_def_cfa_offset 16
	.cfi_offset 6, -16
	movq	%rsp, %rbp
	.cfi_def_cfa_register 6
	subq	$16, %rsp
	movq	%rdi, -8(%rbp)
.LBB28:
	.loc 9 672 19
	movq	-8(%rbp), %rax
	movq	%rax, %rdi
	call	_ZNSt7__cxx1112basic_stringIcSt11char_traitsIcESaIcEE10_M_disposeEv
	.loc 9 672 23
	movq	-8(%rbp), %rax
	movq	%rax, %rdi
	call	_ZNSt7__cxx1112basic_stringIcSt11char_traitsIcESaIcEE12_Alloc_hiderD1Ev
.LBE28:
	nop
	leave
	.cfi_def_cfa 7, 8
	ret
	.cfi_endproc
.LFE13550:
	.section	.gcc_except_table
.LLSDA13550:
	.byte	0xff
	.byte	0xff
	.byte	0x1
	.uleb128 .LLSDACSE13550-.LLSDACSB13550
.LLSDACSB13550:
.LLSDACSE13550:
	.section	.text._ZNSt7__cxx1112basic_stringIcSt11char_traitsIcESaIcEED2Ev,"axG",@progbits,_ZNSt7__cxx1112basic_stringIcSt11char_traitsIcESaIcEED5Ev,comdat
	.size	_ZNSt7__cxx1112basic_stringIcSt11char_traitsIcESaIcEED2Ev, .-_ZNSt7__cxx1112basic_stringIcSt11char_traitsIcESaIcEED2Ev
	.weak	_ZNSt7__cxx1112basic_stringIcSt11char_traitsIcESaIcEED1Ev
	.set	_ZNSt7__cxx1112basic_stringIcSt11char_traitsIcESaIcEED1Ev,_ZNSt7__cxx1112basic_stringIcSt11char_traitsIcESaIcEED2Ev
	.section	.text._ZNSt7__cxx1112basic_stringIcSt11char_traitsIcESaIcEEC2Ev,"axG",@progbits,_ZNSt7__cxx1112basic_stringIcSt11char_traitsIcESaIcEEC5Ev,comdat
	.align 2
	.weak	_ZNSt7__cxx1112basic_stringIcSt11char_traitsIcESaIcEEC2Ev
	.type	_ZNSt7__cxx1112basic_stringIcSt11char_traitsIcESaIcEEC2Ev, @function
_ZNSt7__cxx1112basic_stringIcSt11char_traitsIcESaIcEEC2Ev:
.LFB14183:
	.loc 9 439 7
	.cfi_startproc
	endbr64
	pushq	%rbp
	.cfi_def_cfa_offset 16
	.cfi_offset 6, -16
	movq	%rsp, %rbp
	.cfi_def_cfa_register 6
	pushq	%rbx
	subq	$40, %rsp
	.cfi_offset 3, -24
	movq	%rdi, -40(%rbp)
	.loc 9 439 7
	movq	%fs:40, %rax
	movq	%rax, -24(%rbp)
	xorl	%eax, %eax
.LBB29:
	.loc 9 441 9
	movq	-40(%rbp), %rbx
	leaq	-25(%rbp), %rax
	movq	%rax, %rdi
	call	_ZNSaIcEC1Ev@PLT
	movq	-40(%rbp), %rax
	movq	%rax, %rdi
	call	_ZNSt7__cxx1112basic_stringIcSt11char_traitsIcESaIcEE13_M_local_dataEv
	movq	%rax, %rcx
	leaq	-25(%rbp), %rax
	movq	%rax, %rdx
	movq	%rcx, %rsi
	movq	%rbx, %rdi
	call	_ZNSt7__cxx1112basic_stringIcSt11char_traitsIcESaIcEE12_Alloc_hiderC1EPcOS3_
	leaq	-25(%rbp), %rax
	movq	%rax, %rdi
	call	_ZNSaIcED1Ev@PLT
	.loc 9 442 22
	movq	-40(%rbp), %rax
	movl	$0, %esi
	movq	%rax, %rdi
	call	_ZNSt7__cxx1112basic_stringIcSt11char_traitsIcESaIcEE13_M_set_lengthEm
.LBE29:
	.loc 9 442 27
	nop
	movq	-24(%rbp), %rax
	subq	%fs:40, %rax
	je	.L28
	call	__stack_chk_fail@PLT
.L28:
	movq	-8(%rbp), %rbx
	leave
	.cfi_def_cfa 7, 8
	ret
	.cfi_endproc
.LFE14183:
	.size	_ZNSt7__cxx1112basic_stringIcSt11char_traitsIcESaIcEEC2Ev, .-_ZNSt7__cxx1112basic_stringIcSt11char_traitsIcESaIcEEC2Ev
	.weak	_ZNSt7__cxx1112basic_stringIcSt11char_traitsIcESaIcEEC1Ev
	.set	_ZNSt7__cxx1112basic_stringIcSt11char_traitsIcESaIcEEC1Ev,_ZNSt7__cxx1112basic_stringIcSt11char_traitsIcESaIcEEC2Ev
	.section	.text._ZNSt8__detail21_Hashtable_ebo_helperILi1ESt4hashINSt7__cxx1112basic_stringIcSt11char_traitsIcESaIcEEEELb1EEC2Ev,"axG",@progbits,_ZNSt8__detail21_Hashtable_ebo_helperILi1ESt4hashINSt7__cxx1112basic_stringIcSt11char_traitsIcESaIcEEEELb1EEC5Ev,comdat
	.align 2
	.weak	_ZNSt8__detail21_Hashtable_ebo_helperILi1ESt4hashINSt7__cxx1112basic_stringIcSt11char_traitsIcESaIcEEEELb1EEC2Ev
	.type	_ZNSt8__detail21_Hashtable_ebo_helperILi1ESt4hashINSt7__cxx1112basic_stringIcSt11char_traitsIcESaIcEEEELb1EEC2Ev, @function
_ZNSt8__detail21_Hashtable_ebo_helperILi1ESt4hashINSt7__cxx1112basic_stringIcSt11char_traitsIcESaIcEEEELb1EEC2Ev:
.LFB14272:
	.loc 3 1127 7
	.cfi_startproc
	endbr64
	pushq	%rbp
	.cfi_def_cfa_offset 16
	.cfi_offset 6, -16
	movq	%rsp, %rbp
	.cfi_def_cfa_register 6
	movq	%rdi, -8(%rbp)
	.loc 3 1127 67
	nop
	popq	%rbp
	.cfi_def_cfa 7, 8
	ret
	.cfi_endproc
.LFE14272:
	.size	_ZNSt8__detail21_Hashtable_ebo_helperILi1ESt4hashINSt7__cxx1112basic_stringIcSt11char_traitsIcESaIcEEEELb1EEC2Ev, .-_ZNSt8__detail21_Hashtable_ebo_helperILi1ESt4hashINSt7__cxx1112basic_stringIcSt11char_traitsIcESaIcEEEELb1EEC2Ev
	.weak	_ZNSt8__detail21_Hashtable_ebo_helperILi1ESt4hashINSt7__cxx1112basic_stringIcSt11char_traitsIcESaIcEEEELb1EEC1Ev
	.set	_ZNSt8__detail21_Hashtable_ebo_helperILi1ESt4hashINSt7__cxx1112basic_stringIcSt11char_traitsIcESaIcEEEELb1EEC1Ev,_ZNSt8__detail21_Hashtable_ebo_helperILi1ESt4hashINSt7__cxx1112basic_stringIcSt11char_traitsIcESaIcEEEELb1EEC2Ev
	.section	.text._ZNSt8__detail21_Hashtable_ebo_helperILi0ESt8equal_toINSt7__cxx1112basic_stringIcSt11char_traitsIcESaIcEEEELb1EEC2Ev,"axG",@progbits,_ZNSt8__detail21_Hashtable_ebo_helperILi0ESt8equal_toINSt7__cxx1112basic_stringIcSt11char_traitsIcESaIcEEEELb1EEC5Ev,comdat
	.align 2
	.weak	_ZNSt8__detail21_Hashtable_ebo_helperILi0ESt8equal_toINSt7__cxx1112basic_stringIcSt11char_traitsIcESaIcEEEELb1EEC2Ev
	.type	_ZNSt8__detail21_Hashtable_ebo_helperILi0ESt8equal_toINSt7__cxx1112basic_stringIcSt11char_traitsIcESaIcEEEELb1EEC2Ev, @function
_ZNSt8__detail21_Hashtable_ebo_helperILi0ESt8equal_toINSt7__cxx1112basic_stringIcSt11char_traitsIcESaIcEEEELb1EEC2Ev:
.LFB14275:
	.loc 3 1127 7
	.cfi_startproc
	endbr64
	pushq	%rbp
	.cfi_def_cfa_offset 16
	.cfi_offset 6, -16
	movq	%rsp, %rbp
	.cfi_def_cfa_register 6
	movq	%rdi, -8(%rbp)
	.loc 3 1127 67
	nop
	popq	%rbp
	.cfi_def_cfa 7, 8
	ret
	.cfi_endproc
.LFE14275:
	.size	_ZNSt8__detail21_Hashtable_ebo_helperILi0ESt8equal_toINSt7__cxx1112basic_stringIcSt11char_traitsIcESaIcEEEELb1EEC2Ev, .-_ZNSt8__detail21_Hashtable_ebo_helperILi0ESt8equal_toINSt7__cxx1112basic_stringIcSt11char_traitsIcESaIcEEEELb1EEC2Ev
	.weak	_ZNSt8__detail21_Hashtable_ebo_helperILi0ESt8equal_toINSt7__cxx1112basic_stringIcSt11char_traitsIcESaIcEEEELb1EEC1Ev
	.set	_ZNSt8__detail21_Hashtable_ebo_helperILi0ESt8equal_toINSt7__cxx1112basic_stringIcSt11char_traitsIcESaIcEEEELb1EEC1Ev,_ZNSt8__detail21_Hashtable_ebo_helperILi0ESt8equal_toINSt7__cxx1112basic_stringIcSt11char_traitsIcESaIcEEEELb1EEC2Ev
	.section	.text._ZNSt8__detail21_Hashtable_ebo_helperILi0ESaINS_10_Hash_nodeISt4pairIKNSt7__cxx1112basic_stringIcSt11char_traitsIcESaIcEEESt6vectorIP8TinyblobSaISC_EEELb1EEEELb1EEC2Ev,"axG",@progbits,_ZNSt8__detail21_Hashtable_ebo_helperILi0ESaINS_10_Hash_nodeISt4pairIKNSt7__cxx1112basic_stringIcSt11char_traitsIcESaIcEEESt6vectorIP8TinyblobSaISC_EEELb1EEEELb1EEC5Ev,comdat
	.align 2
	.weak	_ZNSt8__detail21_Hashtable_ebo_helperILi0ESaINS_10_Hash_nodeISt4pairIKNSt7__cxx1112basic_stringIcSt11char_traitsIcESaIcEEESt6vectorIP8TinyblobSaISC_EEELb1EEEELb1EEC2Ev
	.type	_ZNSt8__detail21_Hashtable_ebo_helperILi0ESaINS_10_Hash_nodeISt4pairIKNSt7__cxx1112basic_stringIcSt11char_traitsIcESaIcEEESt6vectorIP8TinyblobSaISC_EEELb1EEEELb1EEC2Ev, @function
_ZNSt8__detail21_Hashtable_ebo_helperILi0ESaINS_10_Hash_nodeISt4pairIKNSt7__cxx1112basic_stringIcSt11char_traitsIcESaIcEEESt6vectorIP8TinyblobSaISC_EEELb1EEEELb1EEC2Ev:
.LFB14278:
	.loc 3 1127 7
	.cfi_startproc
	endbr64
	pushq	%rbp
	.cfi_def_cfa_offset 16
	.cfi_offset 6, -16
	movq	%rsp, %rbp
	.cfi_def_cfa_register 6
	subq	$16, %rsp
	movq	%rdi, -8(%rbp)
.LBB30:
	.loc 3 1127 63
	movq	-8(%rbp), %rax
	movq	%rax, %rdi
	call	_ZNSaINSt8__detail10_Hash_nodeISt4pairIKNSt7__cxx1112basic_stringIcSt11char_traitsIcESaIcEEESt6vectorIP8TinyblobSaISB_EEELb1EEEEC2Ev
.LBE30:
	.loc 3 1127 67
	nop
	leave
	.cfi_def_cfa 7, 8
	ret
	.cfi_endproc
.LFE14278:
	.size	_ZNSt8__detail21_Hashtable_ebo_helperILi0ESaINS_10_Hash_nodeISt4pairIKNSt7__cxx1112basic_stringIcSt11char_traitsIcESaIcEEESt6vectorIP8TinyblobSaISC_EEELb1EEEELb1EEC2Ev, .-_ZNSt8__detail21_Hashtable_ebo_helperILi0ESaINS_10_Hash_nodeISt4pairIKNSt7__cxx1112basic_stringIcSt11char_traitsIcESaIcEEESt6vectorIP8TinyblobSaISC_EEELb1EEEELb1EEC2Ev
	.weak	_ZNSt8__detail21_Hashtable_ebo_helperILi0ESaINS_10_Hash_nodeISt4pairIKNSt7__cxx1112basic_stringIcSt11char_traitsIcESaIcEEESt6vectorIP8TinyblobSaISC_EEELb1EEEELb1EEC1Ev
	.set	_ZNSt8__detail21_Hashtable_ebo_helperILi0ESaINS_10_Hash_nodeISt4pairIKNSt7__cxx1112basic_stringIcSt11char_traitsIcESaIcEEESt6vectorIP8TinyblobSaISC_EEELb1EEEELb1EEC1Ev,_ZNSt8__detail21_Hashtable_ebo_helperILi0ESaINS_10_Hash_nodeISt4pairIKNSt7__cxx1112basic_stringIcSt11char_traitsIcESaIcEEESt6vectorIP8TinyblobSaISC_EEELb1EEEELb1EEC2Ev
	.section	.text._ZNSaINSt8__detail10_Hash_nodeISt4pairIKNSt7__cxx1112basic_stringIcSt11char_traitsIcESaIcEEESt6vectorIP8TinyblobSaISB_EEELb1EEEED2Ev,"axG",@progbits,_ZNSaINSt8__detail10_Hash_nodeISt4pairIKNSt7__cxx1112basic_stringIcSt11char_traitsIcESaIcEEESt6vectorIP8TinyblobSaISB_EEELb1EEEED5Ev,comdat
	.align 2
	.weak	_ZNSaINSt8__detail10_Hash_nodeISt4pairIKNSt7__cxx1112basic_stringIcSt11char_traitsIcESaIcEEESt6vectorIP8TinyblobSaISB_EEELb1EEEED2Ev
	.type	_ZNSaINSt8__detail10_Hash_nodeISt4pairIKNSt7__cxx1112basic_stringIcSt11char_traitsIcESaIcEEESt6vectorIP8TinyblobSaISB_EEELb1EEEED2Ev, @function
_ZNSaINSt8__detail10_Hash_nodeISt4pairIKNSt7__cxx1112basic_stringIcSt11char_traitsIcESaIcEEESt6vectorIP8TinyblobSaISB_EEELb1EEEED2Ev:
.LFB14281:
	.file 10 "/usr/include/c++/11/bits/allocator.h"
	.loc 10 174 7
	.cfi_startproc
	endbr64
	pushq	%rbp
	.cfi_def_cfa_offset 16
	.cfi_offset 6, -16
	movq	%rsp, %rbp
	.cfi_def_cfa_register 6
	movq	%rdi, -8(%rbp)
	.loc 10 174 39
	nop
	popq	%rbp
	.cfi_def_cfa 7, 8
	ret
	.cfi_endproc
.LFE14281:
	.size	_ZNSaINSt8__detail10_Hash_nodeISt4pairIKNSt7__cxx1112basic_stringIcSt11char_traitsIcESaIcEEESt6vectorIP8TinyblobSaISB_EEELb1EEEED2Ev, .-_ZNSaINSt8__detail10_Hash_nodeISt4pairIKNSt7__cxx1112basic_stringIcSt11char_traitsIcESaIcEEESt6vectorIP8TinyblobSaISB_EEELb1EEEED2Ev
	.weak	_ZNSaINSt8__detail10_Hash_nodeISt4pairIKNSt7__cxx1112basic_stringIcSt11char_traitsIcESaIcEEESt6vectorIP8TinyblobSaISB_EEELb1EEEED1Ev
	.set	_ZNSaINSt8__detail10_Hash_nodeISt4pairIKNSt7__cxx1112basic_stringIcSt11char_traitsIcESaIcEEESt6vectorIP8TinyblobSaISB_EEELb1EEEED1Ev,_ZNSaINSt8__detail10_Hash_nodeISt4pairIKNSt7__cxx1112basic_stringIcSt11char_traitsIcESaIcEEESt6vectorIP8TinyblobSaISB_EEELb1EEEED2Ev
	.section	.text._ZNSt10_HashtableINSt7__cxx1112basic_stringIcSt11char_traitsIcESaIcEEESt4pairIKS5_St6vectorIP8TinyblobSaISA_EEESaISD_ENSt8__detail10_Select1stESt8equal_toIS5_ESt4hashIS5_ENSF_18_Mod_range_hashingENSF_20_Default_ranged_hashENSF_20_Prime_rehash_policyENSF_17_Hashtable_traitsILb1ELb0ELb1EEEED2Ev,"axG",@progbits,_ZNSt10_HashtableINSt7__cxx1112basic_stringIcSt11char_traitsIcESaIcEEESt4pairIKS5_St6vectorIP8TinyblobSaISA_EEESaISD_ENSt8__detail10_Select1stESt8equal_toIS5_ESt4hashIS5_ENSF_18_Mod_range_hashingENSF_20_Default_ranged_hashENSF_20_Prime_rehash_policyENSF_17_Hashtable_traitsILb1ELb0ELb1EEEED5Ev,comdat
	.align 2
	.weak	_ZNSt10_HashtableINSt7__cxx1112basic_stringIcSt11char_traitsIcESaIcEEESt4pairIKS5_St6vectorIP8TinyblobSaISA_EEESaISD_ENSt8__detail10_Select1stESt8equal_toIS5_ESt4hashIS5_ENSF_18_Mod_range_hashingENSF_20_Default_ranged_hashENSF_20_Prime_rehash_policyENSF_17_Hashtable_traitsILb1ELb0ELb1EEEED2Ev
	.type	_ZNSt10_HashtableINSt7__cxx1112basic_stringIcSt11char_traitsIcESaIcEEESt4pairIKS5_St6vectorIP8TinyblobSaISA_EEESaISD_ENSt8__detail10_Select1stESt8equal_toIS5_ESt4hashIS5_ENSF_18_Mod_range_hashingENSF_20_Default_ranged_hashENSF_20_Prime_rehash_policyENSF_17_Hashtable_traitsILb1ELb0ELb1EEEED2Ev, @function
_ZNSt10_HashtableINSt7__cxx1112basic_stringIcSt11char_traitsIcESaIcEEESt4pairIKS5_St6vectorIP8TinyblobSaISA_EEESaISD_ENSt8__detail10_Select1stESt8equal_toIS5_ESt4hashIS5_ENSF_18_Mod_range_hashingENSF_20_Default_ranged_hashENSF_20_Prime_rehash_policyENSF_17_Hashtable_traitsILb1ELb0ELb1EEEED2Ev:
.LFB14284:
	.loc 4 1528 5
	.cfi_startproc
	.cfi_personality 0x9b,DW.ref.__gxx_personality_v0
	.cfi_lsda 0x1b,.LLSDA14284
	endbr64
	pushq	%rbp
	.cfi_def_cfa_offset 16
	.cfi_offset 6, -16
	movq	%rsp, %rbp
	.cfi_def_cfa_register 6
	subq	$16, %rsp
	movq	%rdi, -8(%rbp)
.LBB31:
	.loc 4 1532 12
	movq	-8(%rbp), %rax
	movq	%rax, %rdi
	call	_ZNSt10_HashtableINSt7__cxx1112basic_stringIcSt11char_traitsIcESaIcEEESt4pairIKS5_St6vectorIP8TinyblobSaISA_EEESaISD_ENSt8__detail10_Select1stESt8equal_toIS5_ESt4hashIS5_ENSF_18_Mod_range_hashingENSF_20_Default_ranged_hashENSF_20_Prime_rehash_policyENSF_17_Hashtable_traitsILb1ELb0ELb1EEEE5clearEv
	.loc 4 1533 28
	movq	-8(%rbp), %rax
	movq	%rax, %rdi
	call	_ZNSt10_HashtableINSt7__cxx1112basic_stringIcSt11char_traitsIcESaIcEEESt4pairIKS5_St6vectorIP8TinyblobSaISA_EEESaISD_ENSt8__detail10_Select1stESt8equal_toIS5_ESt4hashIS5_ENSF_18_Mod_range_hashingENSF_20_Default_ranged_hashENSF_20_Prime_rehash_policyENSF_17_Hashtable_traitsILb1ELb0ELb1EEEE21_M_deallocate_bucketsEv
	.loc 4 1534 5
	movq	-8(%rbp), %rax
	movq	%rax, %rdi
	call	_ZNSt8__detail16_Hashtable_allocISaINS_10_Hash_nodeISt4pairIKNSt7__cxx1112basic_stringIcSt11char_traitsIcESaIcEEESt6vectorIP8TinyblobSaISC_EEELb1EEEEED2Ev
.LBE31:
	nop
	leave
	.cfi_def_cfa 7, 8
	ret
	.cfi_endproc
.LFE14284:
	.section	.gcc_except_table
.LLSDA14284:
	.byte	0xff
	.byte	0xff
	.byte	0x1
	.uleb128 .LLSDACSE14284-.LLSDACSB14284
.LLSDACSB14284:
.LLSDACSE14284:
	.section	.text._ZNSt10_HashtableINSt7__cxx1112basic_stringIcSt11char_traitsIcESaIcEEESt4pairIKS5_St6vectorIP8TinyblobSaISA_EEESaISD_ENSt8__detail10_Select1stESt8equal_toIS5_ESt4hashIS5_ENSF_18_Mod_range_hashingENSF_20_Default_ranged_hashENSF_20_Prime_rehash_policyENSF_17_Hashtable_traitsILb1ELb0ELb1EEEED2Ev,"axG",@progbits,_ZNSt10_HashtableINSt7__cxx1112basic_stringIcSt11char_traitsIcESaIcEEESt4pairIKS5_St6vectorIP8TinyblobSaISA_EEESaISD_ENSt8__detail10_Select1stESt8equal_toIS5_ESt4hashIS5_ENSF_18_Mod_range_hashingENSF_20_Default_ranged_hashENSF_20_Prime_rehash_policyENSF_17_Hashtable_traitsILb1ELb0ELb1EEEED5Ev,comdat
	.size	_ZNSt10_HashtableINSt7__cxx1112basic_stringIcSt11char_traitsIcESaIcEEESt4pairIKS5_St6vectorIP8TinyblobSaISA_EEESaISD_ENSt8__detail10_Select1stESt8equal_toIS5_ESt4hashIS5_ENSF_18_Mod_range_hashingENSF_20_Default_ranged_hashENSF_20_Prime_rehash_policyENSF_17_Hashtable_traitsILb1ELb0ELb1EEEED2Ev, .-_ZNSt10_HashtableINSt7__cxx1112basic_stringIcSt11char_traitsIcESaIcEEESt4pairIKS5_St6vectorIP8TinyblobSaISA_EEESaISD_ENSt8__detail10_Select1stESt8equal_toIS5_ESt4hashIS5_ENSF_18_Mod_range_hashingENSF_20_Default_ranged_hashENSF_20_Prime_rehash_policyENSF_17_Hashtable_traitsILb1ELb0ELb1EEEED2Ev
	.weak	_ZNSt10_HashtableINSt7__cxx1112basic_stringIcSt11char_traitsIcESaIcEEESt4pairIKS5_St6vectorIP8TinyblobSaISA_EEESaISD_ENSt8__detail10_Select1stESt8equal_toIS5_ESt4hashIS5_ENSF_18_Mod_range_hashingENSF_20_Default_ranged_hashENSF_20_Prime_rehash_policyENSF_17_Hashtable_traitsILb1ELb0ELb1EEEED1Ev
	.set	_ZNSt10_HashtableINSt7__cxx1112basic_stringIcSt11char_traitsIcESaIcEEESt4pairIKS5_St6vectorIP8TinyblobSaISA_EEESaISD_ENSt8__detail10_Select1stESt8equal_toIS5_ESt4hashIS5_ENSF_18_Mod_range_hashingENSF_20_Default_ranged_hashENSF_20_Prime_rehash_policyENSF_17_Hashtable_traitsILb1ELb0ELb1EEEED1Ev,_ZNSt10_HashtableINSt7__cxx1112basic_stringIcSt11char_traitsIcESaIcEEESt4pairIKS5_St6vectorIP8TinyblobSaISA_EEESaISD_ENSt8__detail10_Select1stESt8equal_toIS5_ESt4hashIS5_ENSF_18_Mod_range_hashingENSF_20_Default_ranged_hashENSF_20_Prime_rehash_policyENSF_17_Hashtable_traitsILb1ELb0ELb1EEEED2Ev
	.section	.text._ZNSt12_Vector_baseIP8TinyblobSaIS1_EE12_Vector_implC2Ev,"axG",@progbits,_ZNSt12_Vector_baseIP8TinyblobSaIS1_EE12_Vector_implC5Ev,comdat
	.align 2
	.weak	_ZNSt12_Vector_baseIP8TinyblobSaIS1_EE12_Vector_implC2Ev
	.type	_ZNSt12_Vector_baseIP8TinyblobSaIS1_EE12_Vector_implC2Ev, @function
_ZNSt12_Vector_baseIP8TinyblobSaIS1_EE12_Vector_implC2Ev:
.LFB14294:
	.loc 6 131 2
	.cfi_startproc
	endbr64
	pushq	%rbp
	.cfi_def_cfa_offset 16
	.cfi_offset 6, -16
	movq	%rsp, %rbp
	.cfi_def_cfa_register 6
	subq	$16, %rsp
	movq	%rdi, -8(%rbp)
.LBB32:
	.loc 6 133 19
	movq	-8(%rbp), %rax
	movq	%rax, %rdi
	call	_ZNSaIP8TinyblobEC2Ev
	movq	-8(%rbp), %rax
	movq	%rax, %rdi
	call	_ZNSt12_Vector_baseIP8TinyblobSaIS1_EE17_Vector_impl_dataC2Ev
.LBE32:
	.loc 6 134 4
	nop
	leave
	.cfi_def_cfa 7, 8
	ret
	.cfi_endproc
.LFE14294:
	.size	_ZNSt12_Vector_baseIP8TinyblobSaIS1_EE12_Vector_implC2Ev, .-_ZNSt12_Vector_baseIP8TinyblobSaIS1_EE12_Vector_implC2Ev
	.weak	_ZNSt12_Vector_baseIP8TinyblobSaIS1_EE12_Vector_implC1Ev
	.set	_ZNSt12_Vector_baseIP8TinyblobSaIS1_EE12_Vector_implC1Ev,_ZNSt12_Vector_baseIP8TinyblobSaIS1_EE12_Vector_implC2Ev
	.section	.text._ZNSaIP8TinyblobED2Ev,"axG",@progbits,_ZNSaIP8TinyblobED5Ev,comdat
	.align 2
	.weak	_ZNSaIP8TinyblobED2Ev
	.type	_ZNSaIP8TinyblobED2Ev, @function
_ZNSaIP8TinyblobED2Ev:
.LFB14297:
	.loc 10 174 7
	.cfi_startproc
	endbr64
	pushq	%rbp
	.cfi_def_cfa_offset 16
	.cfi_offset 6, -16
	movq	%rsp, %rbp
	.cfi_def_cfa_register 6
	movq	%rdi, -8(%rbp)
	.loc 10 174 39
	nop
	popq	%rbp
	.cfi_def_cfa 7, 8
	ret
	.cfi_endproc
.LFE14297:
	.size	_ZNSaIP8TinyblobED2Ev, .-_ZNSaIP8TinyblobED2Ev
	.weak	_ZNSaIP8TinyblobED1Ev
	.set	_ZNSaIP8TinyblobED1Ev,_ZNSaIP8TinyblobED2Ev
	.section	.text._ZNSt12_Vector_baseIP8TinyblobSaIS1_EED2Ev,"axG",@progbits,_ZNSt12_Vector_baseIP8TinyblobSaIS1_EED5Ev,comdat
	.align 2
	.weak	_ZNSt12_Vector_baseIP8TinyblobSaIS1_EED2Ev
	.type	_ZNSt12_Vector_baseIP8TinyblobSaIS1_EED2Ev, @function
_ZNSt12_Vector_baseIP8TinyblobSaIS1_EED2Ev:
.LFB14300:
	.loc 6 333 7
	.cfi_startproc
	.cfi_personality 0x9b,DW.ref.__gxx_personality_v0
	.cfi_lsda 0x1b,.LLSDA14300
	endbr64
	pushq	%rbp
	.cfi_def_cfa_offset 16
	.cfi_offset 6, -16
	movq	%rsp, %rbp
	.cfi_def_cfa_register 6
	subq	$16, %rsp
	movq	%rdi, -8(%rbp)
.LBB33:
	.loc 6 336 17
	movq	-8(%rbp), %rax
	movq	16(%rax), %rdx
	.loc 6 336 45
	movq	-8(%rbp), %rax
	movq	(%rax), %rcx
	.loc 6 336 35
	movq	%rdx, %rax
	subq	%rcx, %rax
	sarq	$3, %rax
	.loc 6 335 15
	movq	%rax, %rdx
	movq	-8(%rbp), %rax
	movq	(%rax), %rcx
	movq	-8(%rbp), %rax
	movq	%rcx, %rsi
	movq	%rax, %rdi
	call	_ZNSt12_Vector_baseIP8TinyblobSaIS1_EE13_M_deallocateEPS1_m
	.loc 6 337 7
	movq	-8(%rbp), %rax
	movq	%rax, %rdi
	call	_ZNSt12_Vector_baseIP8TinyblobSaIS1_EE12_Vector_implD1Ev
.LBE33:
	nop
	leave
	.cfi_def_cfa 7, 8
	ret
	.cfi_endproc
.LFE14300:
	.section	.gcc_except_table
.LLSDA14300:
	.byte	0xff
	.byte	0xff
	.byte	0x1
	.uleb128 .LLSDACSE14300-.LLSDACSB14300
.LLSDACSB14300:
.LLSDACSE14300:
	.section	.text._ZNSt12_Vector_baseIP8TinyblobSaIS1_EED2Ev,"axG",@progbits,_ZNSt12_Vector_baseIP8TinyblobSaIS1_EED5Ev,comdat
	.size	_ZNSt12_Vector_baseIP8TinyblobSaIS1_EED2Ev, .-_ZNSt12_Vector_baseIP8TinyblobSaIS1_EED2Ev
	.weak	_ZNSt12_Vector_baseIP8TinyblobSaIS1_EED1Ev
	.set	_ZNSt12_Vector_baseIP8TinyblobSaIS1_EED1Ev,_ZNSt12_Vector_baseIP8TinyblobSaIS1_EED2Ev
	.section	.text._ZNSt6vectorIP8TinyblobSaIS1_EED2Ev,"axG",@progbits,_ZNSt6vectorIP8TinyblobSaIS1_EED5Ev,comdat
	.align 2
	.weak	_ZNSt6vectorIP8TinyblobSaIS1_EED2Ev
	.type	_ZNSt6vectorIP8TinyblobSaIS1_EED2Ev, @function
_ZNSt6vectorIP8TinyblobSaIS1_EED2Ev:
.LFB14303:
	.loc 6 678 7
	.cfi_startproc
	.cfi_personality 0x9b,DW.ref.__gxx_personality_v0
	.cfi_lsda 0x1b,.LLSDA14303
	endbr64
	pushq	%rbp
	.cfi_def_cfa_offset 16
	.cfi_offset 6, -16
	movq	%rsp, %rbp
	.cfi_def_cfa_register 6
	subq	$16, %rsp
	movq	%rdi, -8(%rbp)
.LBB34:
	.loc 6 681 28
	movq	-8(%rbp), %rax
	movq	%rax, %rdi
	call	_ZNSt12_Vector_baseIP8TinyblobSaIS1_EE19_M_get_Tp_allocatorEv
	movq	%rax, %rdx
	.loc 6 680 15
	movq	-8(%rbp), %rax
	movq	8(%rax), %rcx
	movq	-8(%rbp), %rax
	movq	(%rax), %rax
	movq	%rcx, %rsi
	movq	%rax, %rdi
	call	_ZSt8_DestroyIPP8TinyblobS1_EvT_S3_RSaIT0_E
	.loc 6 683 7
	movq	-8(%rbp), %rax
	movq	%rax, %rdi
	call	_ZNSt12_Vector_baseIP8TinyblobSaIS1_EED2Ev
.LBE34:
	nop
	leave
	.cfi_def_cfa 7, 8
	ret
	.cfi_endproc
.LFE14303:
	.section	.gcc_except_table
.LLSDA14303:
	.byte	0xff
	.byte	0xff
	.byte	0x1
	.uleb128 .LLSDACSE14303-.LLSDACSB14303
.LLSDACSB14303:
.LLSDACSE14303:
	.section	.text._ZNSt6vectorIP8TinyblobSaIS1_EED2Ev,"axG",@progbits,_ZNSt6vectorIP8TinyblobSaIS1_EED5Ev,comdat
	.size	_ZNSt6vectorIP8TinyblobSaIS1_EED2Ev, .-_ZNSt6vectorIP8TinyblobSaIS1_EED2Ev
	.weak	_ZNSt6vectorIP8TinyblobSaIS1_EED1Ev
	.set	_ZNSt6vectorIP8TinyblobSaIS1_EED1Ev,_ZNSt6vectorIP8TinyblobSaIS1_EED2Ev
	.section	.text._ZNKSt7__cxx1112basic_stringIcSt11char_traitsIcESaIcEE7_M_dataEv,"axG",@progbits,_ZNKSt7__cxx1112basic_stringIcSt11char_traitsIcESaIcEE7_M_dataEv,comdat
	.align 2
	.weak	_ZNKSt7__cxx1112basic_stringIcSt11char_traitsIcESaIcEE7_M_dataEv
	.type	_ZNKSt7__cxx1112basic_stringIcSt11char_traitsIcESaIcEE7_M_dataEv, @function
_ZNKSt7__cxx1112basic_stringIcSt11char_traitsIcESaIcEE7_M_dataEv:
.LFB14329:
	.loc 9 194 7
	.cfi_startproc
	endbr64
	pushq	%rbp
	.cfi_def_cfa_offset 16
	.cfi_offset 6, -16
	movq	%rsp, %rbp
	.cfi_def_cfa_register 6
	movq	%rdi, -8(%rbp)
	.loc 9 195 28
	movq	-8(%rbp), %rax
	movq	(%rax), %rax
	.loc 9 195 34
	popq	%rbp
	.cfi_def_cfa 7, 8
	ret
	.cfi_endproc
.LFE14329:
	.size	_ZNKSt7__cxx1112basic_stringIcSt11char_traitsIcESaIcEE7_M_dataEv, .-_ZNKSt7__cxx1112basic_stringIcSt11char_traitsIcESaIcEE7_M_dataEv
	.section	.text._ZNSt7__cxx1112basic_stringIcSt11char_traitsIcESaIcEE13_M_local_dataEv,"axG",@progbits,_ZNSt7__cxx1112basic_stringIcSt11char_traitsIcESaIcEE13_M_local_dataEv,comdat
	.align 2
	.weak	_ZNSt7__cxx1112basic_stringIcSt11char_traitsIcESaIcEE13_M_local_dataEv
	.type	_ZNSt7__cxx1112basic_stringIcSt11char_traitsIcESaIcEE13_M_local_dataEv, @function
_ZNSt7__cxx1112basic_stringIcSt11char_traitsIcESaIcEE13_M_local_dataEv:
.LFB14333:
	.loc 9 198 7
	.cfi_startproc
	endbr64
	pushq	%rbp
	.cfi_def_cfa_offset 16
	.cfi_offset 6, -16
	movq	%rsp, %rbp
	.cfi_def_cfa_register 6
	subq	$16, %rsp
	movq	%rdi, -8(%rbp)
	.loc 9 201 51
	movq	-8(%rbp), %rax
	addq	$16, %rax
	.loc 9 201 49
	movq	%rax, %rdi
	call	_ZNSt14pointer_traitsIPcE10pointer_toERc
	.loc 9 205 7
	leave
	.cfi_def_cfa 7, 8
	ret
	.cfi_endproc
.LFE14333:
	.size	_ZNSt7__cxx1112basic_stringIcSt11char_traitsIcESaIcEE13_M_local_dataEv, .-_ZNSt7__cxx1112basic_stringIcSt11char_traitsIcESaIcEE13_M_local_dataEv
	.section	.text._ZNSt7__cxx1112basic_stringIcSt11char_traitsIcESaIcEE10_M_disposeEv,"axG",@progbits,_ZNSt7__cxx1112basic_stringIcSt11char_traitsIcESaIcEE10_M_disposeEv,comdat
	.align 2
	.weak	_ZNSt7__cxx1112basic_stringIcSt11char_traitsIcESaIcEE10_M_disposeEv
	.type	_ZNSt7__cxx1112basic_stringIcSt11char_traitsIcESaIcEE10_M_disposeEv, @function
_ZNSt7__cxx1112basic_stringIcSt11char_traitsIcESaIcEE10_M_disposeEv:
.LFB14338:
	.loc 9 237 7
	.cfi_startproc
	endbr64
	pushq	%rbp
	.cfi_def_cfa_offset 16
	.cfi_offset 6, -16
	movq	%rsp, %rbp
	.cfi_def_cfa_register 6
	subq	$16, %rsp
	movq	%rdi, -8(%rbp)
	.loc 9 239 18
	movq	-8(%rbp), %rax
	movq	%rax, %rdi
	call	_ZNKSt7__cxx1112basic_stringIcSt11char_traitsIcESaIcEE11_M_is_localEv
	xorl	$1, %eax
	.loc 9 239 2
	testb	%al, %al
	je	.L44
	.loc 9 240 14
	movq	-8(%rbp), %rax
	movq	16(%rax), %rdx
	movq	-8(%rbp), %rax
	movq	%rdx, %rsi
	movq	%rax, %rdi
	call	_ZNSt7__cxx1112basic_stringIcSt11char_traitsIcESaIcEE10_M_destroyEm
.L44:
	.loc 9 241 7
	nop
	leave
	.cfi_def_cfa 7, 8
	ret
	.cfi_endproc
.LFE14338:
	.size	_ZNSt7__cxx1112basic_stringIcSt11char_traitsIcESaIcEE10_M_disposeEv, .-_ZNSt7__cxx1112basic_stringIcSt11char_traitsIcESaIcEE10_M_disposeEv
	.section	.text._ZNSt7__cxx1112basic_stringIcSt11char_traitsIcESaIcEE16_M_get_allocatorEv,"axG",@progbits,_ZNSt7__cxx1112basic_stringIcSt11char_traitsIcESaIcEE16_M_get_allocatorEv,comdat
	.align 2
	.weak	_ZNSt7__cxx1112basic_stringIcSt11char_traitsIcESaIcEE16_M_get_allocatorEv
	.type	_ZNSt7__cxx1112basic_stringIcSt11char_traitsIcESaIcEE16_M_get_allocatorEv, @function
_ZNSt7__cxx1112basic_stringIcSt11char_traitsIcESaIcEE16_M_get_allocatorEv:
.LFB14339:
	.loc 9 294 7
	.cfi_startproc
	endbr64
	pushq	%rbp
	.cfi_def_cfa_offset 16
	.cfi_offset 6, -16
	movq	%rsp, %rbp
	.cfi_def_cfa_register 6
	movq	%rdi, -8(%rbp)
	.loc 9 295 16
	movq	-8(%rbp), %rax
	.loc 9 295 29
	popq	%rbp
	.cfi_def_cfa 7, 8
	ret
	.cfi_endproc
.LFE14339:
	.size	_ZNSt7__cxx1112basic_stringIcSt11char_traitsIcESaIcEE16_M_get_allocatorEv, .-_ZNSt7__cxx1112basic_stringIcSt11char_traitsIcESaIcEE16_M_get_allocatorEv
	.section	.text._ZSt4moveIRSaIcEEONSt16remove_referenceIT_E4typeEOS3_,"axG",@progbits,_ZSt4moveIRSaIcEEONSt16remove_referenceIT_E4typeEOS3_,comdat
	.weak	_ZSt4moveIRSaIcEEONSt16remove_referenceIT_E4typeEOS3_
	.type	_ZSt4moveIRSaIcEEONSt16remove_referenceIT_E4typeEOS3_, @function
_ZSt4moveIRSaIcEEONSt16remove_referenceIT_E4typeEOS3_:
.LFB14340:
	.file 11 "/usr/include/c++/11/bits/move.h"
	.loc 11 104 5
	.cfi_startproc
	endbr64
	pushq	%rbp
	.cfi_def_cfa_offset 16
	.cfi_offset 6, -16
	movq	%rsp, %rbp
	.cfi_def_cfa_register 6
	movq	%rdi, -8(%rbp)
	.loc 11 105 74
	movq	-8(%rbp), %rax
	.loc 11 105 77
	popq	%rbp
	.cfi_def_cfa 7, 8
	ret
	.cfi_endproc
.LFE14340:
	.size	_ZSt4moveIRSaIcEEONSt16remove_referenceIT_E4typeEOS3_, .-_ZSt4moveIRSaIcEEONSt16remove_referenceIT_E4typeEOS3_
	.section	.text._ZNSt7__cxx1112basic_stringIcSt11char_traitsIcESaIcEE12_Alloc_hiderC2EPcOS3_,"axG",@progbits,_ZNSt7__cxx1112basic_stringIcSt11char_traitsIcESaIcEE12_Alloc_hiderC5EPcOS3_,comdat
	.align 2
	.weak	_ZNSt7__cxx1112basic_stringIcSt11char_traitsIcESaIcEE12_Alloc_hiderC2EPcOS3_
	.type	_ZNSt7__cxx1112basic_stringIcSt11char_traitsIcESaIcEE12_Alloc_hiderC2EPcOS3_, @function
_ZNSt7__cxx1112basic_stringIcSt11char_traitsIcESaIcEE12_Alloc_hiderC2EPcOS3_:
.LFB14342:
	.loc 9 167 2
	.cfi_startproc
	endbr64
	pushq	%rbp
	.cfi_def_cfa_offset 16
	.cfi_offset 6, -16
	movq	%rsp, %rbp
	.cfi_def_cfa_register 6
	subq	$32, %rsp
	movq	%rdi, -8(%rbp)
	movq	%rsi, -16(%rbp)
	movq	%rdx, -24(%rbp)
.LBB35:
	.loc 9 168 28
	movq	-24(%rbp), %rax
	movq	%rax, %rdi
	call	_ZSt4moveIRSaIcEEONSt16remove_referenceIT_E4typeEOS3_
	movq	%rax, %rdx
	.loc 9 168 46
	movq	-8(%rbp), %rax
	movq	%rdx, %rsi
	movq	%rax, %rdi
	call	_ZNSaIcEC2ERKS_@PLT
	.loc 9 168 36
	movq	-8(%rbp), %rax
	movq	-16(%rbp), %rdx
	movq	%rdx, (%rax)
.LBE35:
	.loc 9 168 50
	nop
	leave
	.cfi_def_cfa 7, 8
	ret
	.cfi_endproc
.LFE14342:
	.size	_ZNSt7__cxx1112basic_stringIcSt11char_traitsIcESaIcEE12_Alloc_hiderC2EPcOS3_, .-_ZNSt7__cxx1112basic_stringIcSt11char_traitsIcESaIcEE12_Alloc_hiderC2EPcOS3_
	.weak	_ZNSt7__cxx1112basic_stringIcSt11char_traitsIcESaIcEE12_Alloc_hiderC1EPcOS3_
	.set	_ZNSt7__cxx1112basic_stringIcSt11char_traitsIcESaIcEE12_Alloc_hiderC1EPcOS3_,_ZNSt7__cxx1112basic_stringIcSt11char_traitsIcESaIcEE12_Alloc_hiderC2EPcOS3_
	.section	.text._ZNKSt7__cxx1112basic_stringIcSt11char_traitsIcESaIcEE11_M_is_localEv,"axG",@progbits,_ZNKSt7__cxx1112basic_stringIcSt11char_traitsIcESaIcEE11_M_is_localEv,comdat
	.align 2
	.weak	_ZNKSt7__cxx1112basic_stringIcSt11char_traitsIcESaIcEE11_M_is_localEv
	.type	_ZNKSt7__cxx1112basic_stringIcSt11char_traitsIcESaIcEE11_M_is_localEv, @function
_ZNKSt7__cxx1112basic_stringIcSt11char_traitsIcESaIcEE11_M_is_localEv:
.LFB14344:
	.loc 9 229 7
	.cfi_startproc
	endbr64
	pushq	%rbp
	.cfi_def_cfa_offset 16
	.cfi_offset 6, -16
	movq	%rsp, %rbp
	.cfi_def_cfa_register 6
	pushq	%rbx
	subq	$24, %rsp
	.cfi_offset 3, -24
	movq	%rdi, -24(%rbp)
	.loc 9 230 23
	movq	-24(%rbp), %rax
	movq	%rax, %rdi
	call	_ZNKSt7__cxx1112basic_stringIcSt11char_traitsIcESaIcEE7_M_dataEv
	movq	%rax, %rbx
	.loc 9 230 42
	movq	-24(%rbp), %rax
	movq	%rax, %rdi
	call	_ZNKSt7__cxx1112basic_stringIcSt11char_traitsIcESaIcEE13_M_local_dataEv
	.loc 9 230 43
	cmpq	%rax, %rbx
	sete	%al
	.loc 9 230 46
	movq	-8(%rbp), %rbx
	leave
	.cfi_def_cfa 7, 8
	ret
	.cfi_endproc
.LFE14344:
	.size	_ZNKSt7__cxx1112basic_stringIcSt11char_traitsIcESaIcEE11_M_is_localEv, .-_ZNKSt7__cxx1112basic_stringIcSt11char_traitsIcESaIcEE11_M_is_localEv
	.section	.text._ZNSt7__cxx1112basic_stringIcSt11char_traitsIcESaIcEE9_M_lengthEm,"axG",@progbits,_ZNSt7__cxx1112basic_stringIcSt11char_traitsIcESaIcEE9_M_lengthEm,comdat
	.align 2
	.weak	_ZNSt7__cxx1112basic_stringIcSt11char_traitsIcESaIcEE9_M_lengthEm
	.type	_ZNSt7__cxx1112basic_stringIcSt11char_traitsIcESaIcEE9_M_lengthEm, @function
_ZNSt7__cxx1112basic_stringIcSt11char_traitsIcESaIcEE9_M_lengthEm:
.LFB14347:
	.loc 9 190 7
	.cfi_startproc
	endbr64
	pushq	%rbp
	.cfi_def_cfa_offset 16
	.cfi_offset 6, -16
	movq	%rsp, %rbp
	.cfi_def_cfa_register 6
	movq	%rdi, -8(%rbp)
	movq	%rsi, -16(%rbp)
	.loc 9 191 26
	movq	-8(%rbp), %rax
	movq	-16(%rbp), %rdx
	movq	%rdx, 8(%rax)
	.loc 9 191 38
	nop
	popq	%rbp
	.cfi_def_cfa 7, 8
	ret
	.cfi_endproc
.LFE14347:
	.size	_ZNSt7__cxx1112basic_stringIcSt11char_traitsIcESaIcEE9_M_lengthEm, .-_ZNSt7__cxx1112basic_stringIcSt11char_traitsIcESaIcEE9_M_lengthEm
	.section	.text._ZNSt7__cxx1112basic_stringIcSt11char_traitsIcESaIcEE13_M_set_lengthEm,"axG",@progbits,_ZNSt7__cxx1112basic_stringIcSt11char_traitsIcESaIcEE13_M_set_lengthEm,comdat
	.align 2
	.weak	_ZNSt7__cxx1112basic_stringIcSt11char_traitsIcESaIcEE13_M_set_lengthEm
	.type	_ZNSt7__cxx1112basic_stringIcSt11char_traitsIcESaIcEE13_M_set_lengthEm, @function
_ZNSt7__cxx1112basic_stringIcSt11char_traitsIcESaIcEE13_M_set_lengthEm:
.LFB14348:
	.loc 9 222 7
	.cfi_startproc
	endbr64
	pushq	%rbp
	.cfi_def_cfa_offset 16
	.cfi_offset 6, -16
	movq	%rsp, %rbp
	.cfi_def_cfa_register 6
	subq	$32, %rsp
	movq	%rdi, -24(%rbp)
	movq	%rsi, -32(%rbp)
	.loc 9 222 7
	movq	%fs:40, %rax
	movq	%rax, -8(%rbp)
	xorl	%eax, %eax
	.loc 9 224 11
	movq	-32(%rbp), %rdx
	movq	-24(%rbp), %rax
	movq	%rdx, %rsi
	movq	%rax, %rdi
	call	_ZNSt7__cxx1112basic_stringIcSt11char_traitsIcESaIcEE9_M_lengthEm
	.loc 9 225 21
	movb	$0, -9(%rbp)
	.loc 9 225 29
	movq	-24(%rbp), %rax
	movq	%rax, %rdi
	call	_ZNKSt7__cxx1112basic_stringIcSt11char_traitsIcESaIcEE7_M_dataEv
	.loc 9 225 31
	movq	-32(%rbp), %rdx
	addq	%rax, %rdx
	.loc 9 225 21
	leaq	-9(%rbp), %rax
	movq	%rax, %rsi
	movq	%rdx, %rdi
	call	_ZNSt11char_traitsIcE6assignERcRKc
	.loc 9 226 7
	nop
	movq	-8(%rbp), %rax
	subq	%fs:40, %rax
	je	.L54
	call	__stack_chk_fail@PLT
.L54:
	leave
	.cfi_def_cfa 7, 8
	ret
	.cfi_endproc
.LFE14348:
	.size	_ZNSt7__cxx1112basic_stringIcSt11char_traitsIcESaIcEE13_M_set_lengthEm, .-_ZNSt7__cxx1112basic_stringIcSt11char_traitsIcESaIcEE13_M_set_lengthEm
	.section	.text._ZNSt7__cxx1112basic_stringIcSt11char_traitsIcESaIcEE10_M_destroyEm,"axG",@progbits,_ZNSt7__cxx1112basic_stringIcSt11char_traitsIcESaIcEE10_M_destroyEm,comdat
	.align 2
	.weak	_ZNSt7__cxx1112basic_stringIcSt11char_traitsIcESaIcEE10_M_destroyEm
	.type	_ZNSt7__cxx1112basic_stringIcSt11char_traitsIcESaIcEE10_M_destroyEm, @function
_ZNSt7__cxx1112basic_stringIcSt11char_traitsIcESaIcEE10_M_destroyEm:
.LFB14685:
	.loc 9 244 7
	.cfi_startproc
	.cfi_personality 0x9b,DW.ref.__gxx_personality_v0
	.cfi_lsda 0x1b,.LLSDA14685
	endbr64
	pushq	%rbp
	.cfi_def_cfa_offset 16
	.cfi_offset 6, -16
	movq	%rsp, %rbp
	.cfi_def_cfa_register 6
	pushq	%r12
	pushq	%rbx
	subq	$16, %rsp
	.cfi_offset 12, -24
	.cfi_offset 3, -32
	movq	%rdi, -24(%rbp)
	movq	%rsi, -32(%rbp)
	.loc 9 245 34
	movq	-32(%rbp), %rax
	leaq	1(%rax), %rbx
	movq	-24(%rbp), %rax
	movq	%rax, %rdi
	call	_ZNKSt7__cxx1112basic_stringIcSt11char_traitsIcESaIcEE7_M_dataEv
	movq	%rax, %r12
	.loc 9 245 51
	movq	-24(%rbp), %rax
	movq	%rax, %rdi
	call	_ZNSt7__cxx1112basic_stringIcSt11char_traitsIcESaIcEE16_M_get_allocatorEv
	.loc 9 245 34
	movq	%rbx, %rdx
	movq	%r12, %rsi
	movq	%rax, %rdi
	call	_ZNSt16allocator_traitsISaIcEE10deallocateERS0_Pcm
	.loc 9 245 79
	nop
	addq	$16, %rsp
	popq	%rbx
	popq	%r12
	popq	%rbp
	.cfi_def_cfa 7, 8
	ret
	.cfi_endproc
.LFE14685:
	.section	.gcc_except_table
.LLSDA14685:
	.byte	0xff
	.byte	0xff
	.byte	0x1
	.uleb128 .LLSDACSE14685-.LLSDACSB14685
.LLSDACSB14685:
.LLSDACSE14685:
	.section	.text._ZNSt7__cxx1112basic_stringIcSt11char_traitsIcESaIcEE10_M_destroyEm,"axG",@progbits,_ZNSt7__cxx1112basic_stringIcSt11char_traitsIcESaIcEE10_M_destroyEm,comdat
	.size	_ZNSt7__cxx1112basic_stringIcSt11char_traitsIcESaIcEE10_M_destroyEm, .-_ZNSt7__cxx1112basic_stringIcSt11char_traitsIcESaIcEE10_M_destroyEm
	.section	.text._ZNSaINSt8__detail10_Hash_nodeISt4pairIKNSt7__cxx1112basic_stringIcSt11char_traitsIcESaIcEEESt6vectorIP8TinyblobSaISB_EEELb1EEEEC2Ev,"axG",@progbits,_ZNSaINSt8__detail10_Hash_nodeISt4pairIKNSt7__cxx1112basic_stringIcSt11char_traitsIcESaIcEEESt6vectorIP8TinyblobSaISB_EEELb1EEEEC5Ev,comdat
	.align 2
	.weak	_ZNSaINSt8__detail10_Hash_nodeISt4pairIKNSt7__cxx1112basic_stringIcSt11char_traitsIcESaIcEEESt6vectorIP8TinyblobSaISB_EEELb1EEEEC2Ev
	.type	_ZNSaINSt8__detail10_Hash_nodeISt4pairIKNSt7__cxx1112basic_stringIcSt11char_traitsIcESaIcEEESt6vectorIP8TinyblobSaISB_EEELb1EEEEC2Ev, @function
_ZNSaINSt8__detail10_Hash_nodeISt4pairIKNSt7__cxx1112basic_stringIcSt11char_traitsIcESaIcEEESt6vectorIP8TinyblobSaISB_EEELb1EEEEC2Ev:
.LFB14769:
	.loc 10 156 7
	.cfi_startproc
	endbr64
	pushq	%rbp
	.cfi_def_cfa_offset 16
	.cfi_offset 6, -16
	movq	%rsp, %rbp
	.cfi_def_cfa_register 6
	subq	$16, %rsp
	movq	%rdi, -8(%rbp)
.LBB36:
	.loc 10 156 36
	movq	-8(%rbp), %rax
	movq	%rax, %rdi
	call	_ZN9__gnu_cxx13new_allocatorINSt8__detail10_Hash_nodeISt4pairIKNSt7__cxx1112basic_stringIcSt11char_traitsIcESaIcEEESt6vectorIP8TinyblobSaISD_EEELb1EEEEC2Ev
.LBE36:
	.loc 10 156 38
	nop
	leave
	.cfi_def_cfa 7, 8
	ret
	.cfi_endproc
.LFE14769:
	.size	_ZNSaINSt8__detail10_Hash_nodeISt4pairIKNSt7__cxx1112basic_stringIcSt11char_traitsIcESaIcEEESt6vectorIP8TinyblobSaISB_EEELb1EEEEC2Ev, .-_ZNSaINSt8__detail10_Hash_nodeISt4pairIKNSt7__cxx1112basic_stringIcSt11char_traitsIcESaIcEEESt6vectorIP8TinyblobSaISB_EEELb1EEEEC2Ev
	.weak	_ZNSaINSt8__detail10_Hash_nodeISt4pairIKNSt7__cxx1112basic_stringIcSt11char_traitsIcESaIcEEESt6vectorIP8TinyblobSaISB_EEELb1EEEEC1Ev
	.set	_ZNSaINSt8__detail10_Hash_nodeISt4pairIKNSt7__cxx1112basic_stringIcSt11char_traitsIcESaIcEEESt6vectorIP8TinyblobSaISB_EEELb1EEEEC1Ev,_ZNSaINSt8__detail10_Hash_nodeISt4pairIKNSt7__cxx1112basic_stringIcSt11char_traitsIcESaIcEEESt6vectorIP8TinyblobSaISB_EEELb1EEEEC2Ev
	.section	.text._ZNSt10_HashtableINSt7__cxx1112basic_stringIcSt11char_traitsIcESaIcEEESt4pairIKS5_St6vectorIP8TinyblobSaISA_EEESaISD_ENSt8__detail10_Select1stESt8equal_toIS5_ESt4hashIS5_ENSF_18_Mod_range_hashingENSF_20_Default_ranged_hashENSF_20_Prime_rehash_policyENSF_17_Hashtable_traitsILb1ELb0ELb1EEEE5clearEv,"axG",@progbits,_ZNSt10_HashtableINSt7__cxx1112basic_stringIcSt11char_traitsIcESaIcEEESt4pairIKS5_St6vectorIP8TinyblobSaISA_EEESaISD_ENSt8__detail10_Select1stESt8equal_toIS5_ESt4hashIS5_ENSF_18_Mod_range_hashingENSF_20_Default_ranged_hashENSF_20_Prime_rehash_policyENSF_17_Hashtable_traitsILb1ELb0ELb1EEEE5clearEv,comdat
	.align 2
	.weak	_ZNSt10_HashtableINSt7__cxx1112basic_stringIcSt11char_traitsIcESaIcEEESt4pairIKS5_St6vectorIP8TinyblobSaISA_EEESaISD_ENSt8__detail10_Select1stESt8equal_toIS5_ESt4hashIS5_ENSF_18_Mod_range_hashingENSF_20_Default_ranged_hashENSF_20_Prime_rehash_policyENSF_17_Hashtable_traitsILb1ELb0ELb1EEEE5clearEv
	.type	_ZNSt10_HashtableINSt7__cxx1112basic_stringIcSt11char_traitsIcESaIcEEESt4pairIKS5_St6vectorIP8TinyblobSaISA_EEESaISD_ENSt8__detail10_Select1stESt8equal_toIS5_ESt4hashIS5_ENSF_18_Mod_range_hashingENSF_20_Default_ranged_hashENSF_20_Prime_rehash_policyENSF_17_Hashtable_traitsILb1ELb0ELb1EEEE5clearEv, @function
_ZNSt10_HashtableINSt7__cxx1112basic_stringIcSt11char_traitsIcESaIcEEESt4pairIKS5_St6vectorIP8TinyblobSaISA_EEESaISD_ENSt8__detail10_Select1stESt8equal_toIS5_ESt4hashIS5_ENSF_18_Mod_range_hashingENSF_20_Default_ranged_hashENSF_20_Prime_rehash_policyENSF_17_Hashtable_traitsILb1ELb0ELb1EEEE5clearEv:
.LFB14771:
	.loc 4 2316 5
	.cfi_startproc
	.cfi_personality 0x9b,DW.ref.__gxx_personality_v0
	.cfi_lsda 0x1b,.LLSDA14771
	endbr64
	pushq	%rbp
	.cfi_def_cfa_offset 16
	.cfi_offset 6, -16
	movq	%rsp, %rbp
	.cfi_def_cfa_register 6
	subq	$16, %rsp
	movq	%rdi, -8(%rbp)
	.loc 4 2320 32
	movq	-8(%rbp), %rax
	movq	%rax, %rdi
	call	_ZNKSt10_HashtableINSt7__cxx1112basic_stringIcSt11char_traitsIcESaIcEEESt4pairIKS5_St6vectorIP8TinyblobSaISA_EEESaISD_ENSt8__detail10_Select1stESt8equal_toIS5_ESt4hashIS5_ENSF_18_Mod_range_hashingENSF_20_Default_ranged_hashENSF_20_Prime_rehash_policyENSF_17_Hashtable_traitsILb1ELb0ELb1EEEE8_M_beginEv
	movq	%rax, %rdx
	movq	-8(%rbp), %rax
	movq	%rdx, %rsi
	movq	%rax, %rdi
	call	_ZNSt8__detail16_Hashtable_allocISaINS_10_Hash_nodeISt4pairIKNSt7__cxx1112basic_stringIcSt11char_traitsIcESaIcEEESt6vectorIP8TinyblobSaISC_EEELb1EEEEE19_M_deallocate_nodesEPSG_
	.loc 4 2322 10
	movq	-8(%rbp), %rax
	movq	8(%rax), %rax
	.loc 4 2321 23
	leaq	0(,%rax,8), %rdx
	.loc 4 2321 24
	movq	-8(%rbp), %rax
	movq	(%rax), %rax
	.loc 4 2321 23
	movl	$0, %esi
	movq	%rax, %rdi
	call	memset@PLT
	.loc 4 2323 24
	movq	-8(%rbp), %rax
	movq	$0, 24(%rax)
	.loc 4 2324 30
	movq	-8(%rbp), %rax
	movq	$0, 16(%rax)
	.loc 4 2325 5
	nop
	leave
	.cfi_def_cfa 7, 8
	ret
	.cfi_endproc
.LFE14771:
	.section	.gcc_except_table
.LLSDA14771:
	.byte	0xff
	.byte	0xff
	.byte	0x1
	.uleb128 .LLSDACSE14771-.LLSDACSB14771
.LLSDACSB14771:
.LLSDACSE14771:
	.section	.text._ZNSt10_HashtableINSt7__cxx1112basic_stringIcSt11char_traitsIcESaIcEEESt4pairIKS5_St6vectorIP8TinyblobSaISA_EEESaISD_ENSt8__detail10_Select1stESt8equal_toIS5_ESt4hashIS5_ENSF_18_Mod_range_hashingENSF_20_Default_ranged_hashENSF_20_Prime_rehash_policyENSF_17_Hashtable_traitsILb1ELb0ELb1EEEE5clearEv,"axG",@progbits,_ZNSt10_HashtableINSt7__cxx1112basic_stringIcSt11char_traitsIcESaIcEEESt4pairIKS5_St6vectorIP8TinyblobSaISA_EEESaISD_ENSt8__detail10_Select1stESt8equal_toIS5_ESt4hashIS5_ENSF_18_Mod_range_hashingENSF_20_Default_ranged_hashENSF_20_Prime_rehash_policyENSF_17_Hashtable_traitsILb1ELb0ELb1EEEE5clearEv,comdat
	.size	_ZNSt10_HashtableINSt7__cxx1112basic_stringIcSt11char_traitsIcESaIcEEESt4pairIKS5_St6vectorIP8TinyblobSaISA_EEESaISD_ENSt8__detail10_Select1stESt8equal_toIS5_ESt4hashIS5_ENSF_18_Mod_range_hashingENSF_20_Default_ranged_hashENSF_20_Prime_rehash_policyENSF_17_Hashtable_traitsILb1ELb0ELb1EEEE5clearEv, .-_ZNSt10_HashtableINSt7__cxx1112basic_stringIcSt11char_traitsIcESaIcEEESt4pairIKS5_St6vectorIP8TinyblobSaISA_EEESaISD_ENSt8__detail10_Select1stESt8equal_toIS5_ESt4hashIS5_ENSF_18_Mod_range_hashingENSF_20_Default_ranged_hashENSF_20_Prime_rehash_policyENSF_17_Hashtable_traitsILb1ELb0ELb1EEEE5clearEv
	.section	.text._ZNSt10_HashtableINSt7__cxx1112basic_stringIcSt11char_traitsIcESaIcEEESt4pairIKS5_St6vectorIP8TinyblobSaISA_EEESaISD_ENSt8__detail10_Select1stESt8equal_toIS5_ESt4hashIS5_ENSF_18_Mod_range_hashingENSF_20_Default_ranged_hashENSF_20_Prime_rehash_policyENSF_17_Hashtable_traitsILb1ELb0ELb1EEEE21_M_deallocate_bucketsEv,"axG",@progbits,_ZNSt10_HashtableINSt7__cxx1112basic_stringIcSt11char_traitsIcESaIcEEESt4pairIKS5_St6vectorIP8TinyblobSaISA_EEESaISD_ENSt8__detail10_Select1stESt8equal_toIS5_ESt4hashIS5_ENSF_18_Mod_range_hashingENSF_20_Default_ranged_hashENSF_20_Prime_rehash_policyENSF_17_Hashtable_traitsILb1ELb0ELb1EEEE21_M_deallocate_bucketsEv,comdat
	.align 2
	.weak	_ZNSt10_HashtableINSt7__cxx1112basic_stringIcSt11char_traitsIcESaIcEEESt4pairIKS5_St6vectorIP8TinyblobSaISA_EEESaISD_ENSt8__detail10_Select1stESt8equal_toIS5_ESt4hashIS5_ENSF_18_Mod_range_hashingENSF_20_Default_ranged_hashENSF_20_Prime_rehash_policyENSF_17_Hashtable_traitsILb1ELb0ELb1EEEE21_M_deallocate_bucketsEv
	.type	_ZNSt10_HashtableINSt7__cxx1112basic_stringIcSt11char_traitsIcESaIcEEESt4pairIKS5_St6vectorIP8TinyblobSaISA_EEESaISD_ENSt8__detail10_Select1stESt8equal_toIS5_ESt4hashIS5_ENSF_18_Mod_range_hashingENSF_20_Default_ranged_hashENSF_20_Prime_rehash_policyENSF_17_Hashtable_traitsILb1ELb0ELb1EEEE21_M_deallocate_bucketsEv, @function
_ZNSt10_HashtableINSt7__cxx1112basic_stringIcSt11char_traitsIcESaIcEEESt4pairIKS5_St6vectorIP8TinyblobSaISA_EEESaISD_ENSt8__detail10_Select1stESt8equal_toIS5_ESt4hashIS5_ENSF_18_Mod_range_hashingENSF_20_Default_ranged_hashENSF_20_Prime_rehash_policyENSF_17_Hashtable_traitsILb1ELb0ELb1EEEE21_M_deallocate_bucketsEv:
.LFB14772:
	.loc 4 453 7
	.cfi_startproc
	endbr64
	pushq	%rbp
	.cfi_def_cfa_offset 16
	.cfi_offset 6, -16
	movq	%rsp, %rbp
	.cfi_def_cfa_register 6
	subq	$16, %rsp
	movq	%rdi, -8(%rbp)
	.loc 4 454 30
	movq	-8(%rbp), %rax
	movq	8(%rax), %rdx
	movq	-8(%rbp), %rax
	movq	(%rax), %rcx
	movq	-8(%rbp), %rax
	movq	%rcx, %rsi
	movq	%rax, %rdi
	call	_ZNSt10_HashtableINSt7__cxx1112basic_stringIcSt11char_traitsIcESaIcEEESt4pairIKS5_St6vectorIP8TinyblobSaISA_EEESaISD_ENSt8__detail10_Select1stESt8equal_toIS5_ESt4hashIS5_ENSF_18_Mod_range_hashingENSF_20_Default_ranged_hashENSF_20_Prime_rehash_policyENSF_17_Hashtable_traitsILb1ELb0ELb1EEEE21_M_deallocate_bucketsEPPNSF_15_Hash_node_baseEm
	.loc 4 454 61
	nop
	leave
	.cfi_def_cfa 7, 8
	ret
	.cfi_endproc
.LFE14772:
	.size	_ZNSt10_HashtableINSt7__cxx1112basic_stringIcSt11char_traitsIcESaIcEEESt4pairIKS5_St6vectorIP8TinyblobSaISA_EEESaISD_ENSt8__detail10_Select1stESt8equal_toIS5_ESt4hashIS5_ENSF_18_Mod_range_hashingENSF_20_Default_ranged_hashENSF_20_Prime_rehash_policyENSF_17_Hashtable_traitsILb1ELb0ELb1EEEE21_M_deallocate_bucketsEv, .-_ZNSt10_HashtableINSt7__cxx1112basic_stringIcSt11char_traitsIcESaIcEEESt4pairIKS5_St6vectorIP8TinyblobSaISA_EEESaISD_ENSt8__detail10_Select1stESt8equal_toIS5_ESt4hashIS5_ENSF_18_Mod_range_hashingENSF_20_Default_ranged_hashENSF_20_Prime_rehash_policyENSF_17_Hashtable_traitsILb1ELb0ELb1EEEE21_M_deallocate_bucketsEv
	.section	.text._ZNSaIP8TinyblobEC2Ev,"axG",@progbits,_ZNSaIP8TinyblobEC5Ev,comdat
	.align 2
	.weak	_ZNSaIP8TinyblobEC2Ev
	.type	_ZNSaIP8TinyblobEC2Ev, @function
_ZNSaIP8TinyblobEC2Ev:
.LFB14792:
	.loc 10 156 7
	.cfi_startproc
	endbr64
	pushq	%rbp
	.cfi_def_cfa_offset 16
	.cfi_offset 6, -16
	movq	%rsp, %rbp
	.cfi_def_cfa_register 6
	subq	$16, %rsp
	movq	%rdi, -8(%rbp)
.LBB37:
	.loc 10 156 36
	movq	-8(%rbp), %rax
	movq	%rax, %rdi
	call	_ZN9__gnu_cxx13new_allocatorIP8TinyblobEC2Ev
.LBE37:
	.loc 10 156 38
	nop
	leave
	.cfi_def_cfa 7, 8
	ret
	.cfi_endproc
.LFE14792:
	.size	_ZNSaIP8TinyblobEC2Ev, .-_ZNSaIP8TinyblobEC2Ev
	.weak	_ZNSaIP8TinyblobEC1Ev
	.set	_ZNSaIP8TinyblobEC1Ev,_ZNSaIP8TinyblobEC2Ev
	.section	.text._ZNSt12_Vector_baseIP8TinyblobSaIS1_EE17_Vector_impl_dataC2Ev,"axG",@progbits,_ZNSt12_Vector_baseIP8TinyblobSaIS1_EE17_Vector_impl_dataC5Ev,comdat
	.align 2
	.weak	_ZNSt12_Vector_baseIP8TinyblobSaIS1_EE17_Vector_impl_dataC2Ev
	.type	_ZNSt12_Vector_baseIP8TinyblobSaIS1_EE17_Vector_impl_dataC2Ev, @function
_ZNSt12_Vector_baseIP8TinyblobSaIS1_EE17_Vector_impl_dataC2Ev:
.LFB14795:
	.loc 6 97 2
	.cfi_startproc
	endbr64
	pushq	%rbp
	.cfi_def_cfa_offset 16
	.cfi_offset 6, -16
	movq	%rsp, %rbp
	.cfi_def_cfa_register 6
	movq	%rdi, -8(%rbp)
.LBB38:
	.loc 6 98 4
	movq	-8(%rbp), %rax
	movq	$0, (%rax)
	.loc 6 98 16
	movq	-8(%rbp), %rax
	movq	$0, 8(%rax)
	.loc 6 98 29
	movq	-8(%rbp), %rax
	movq	$0, 16(%rax)
.LBE38:
	.loc 6 99 4
	nop
	popq	%rbp
	.cfi_def_cfa 7, 8
	ret
	.cfi_endproc
.LFE14795:
	.size	_ZNSt12_Vector_baseIP8TinyblobSaIS1_EE17_Vector_impl_dataC2Ev, .-_ZNSt12_Vector_baseIP8TinyblobSaIS1_EE17_Vector_impl_dataC2Ev
	.weak	_ZNSt12_Vector_baseIP8TinyblobSaIS1_EE17_Vector_impl_dataC1Ev
	.set	_ZNSt12_Vector_baseIP8TinyblobSaIS1_EE17_Vector_impl_dataC1Ev,_ZNSt12_Vector_baseIP8TinyblobSaIS1_EE17_Vector_impl_dataC2Ev
	.section	.text._ZNSt12_Vector_baseIP8TinyblobSaIS1_EE13_M_deallocateEPS1_m,"axG",@progbits,_ZNSt12_Vector_baseIP8TinyblobSaIS1_EE13_M_deallocateEPS1_m,comdat
	.align 2
	.weak	_ZNSt12_Vector_baseIP8TinyblobSaIS1_EE13_M_deallocateEPS1_m
	.type	_ZNSt12_Vector_baseIP8TinyblobSaIS1_EE13_M_deallocateEPS1_m, @function
_ZNSt12_Vector_baseIP8TinyblobSaIS1_EE13_M_deallocateEPS1_m:
.LFB14797:
	.loc 6 350 7
	.cfi_startproc
	endbr64
	pushq	%rbp
	.cfi_def_cfa_offset 16
	.cfi_offset 6, -16
	movq	%rsp, %rbp
	.cfi_def_cfa_register 6
	subq	$32, %rsp
	movq	%rdi, -8(%rbp)
	movq	%rsi, -16(%rbp)
	movq	%rdx, -24(%rbp)
	.loc 6 353 2
	cmpq	$0, -16(%rbp)
	je	.L63
	.loc 6 354 20
	movq	-8(%rbp), %rax
	.loc 6 354 19
	movq	-24(%rbp), %rdx
	movq	-16(%rbp), %rcx
	movq	%rcx, %rsi
	movq	%rax, %rdi
	call	_ZNSt16allocator_traitsISaIP8TinyblobEE10deallocateERS2_PS1_m
.L63:
	.loc 6 355 7
	nop
	leave
	.cfi_def_cfa 7, 8
	ret
	.cfi_endproc
.LFE14797:
	.size	_ZNSt12_Vector_baseIP8TinyblobSaIS1_EE13_M_deallocateEPS1_m, .-_ZNSt12_Vector_baseIP8TinyblobSaIS1_EE13_M_deallocateEPS1_m
	.section	.text._ZNSt12_Vector_baseIP8TinyblobSaIS1_EE19_M_get_Tp_allocatorEv,"axG",@progbits,_ZNSt12_Vector_baseIP8TinyblobSaIS1_EE19_M_get_Tp_allocatorEv,comdat
	.align 2
	.weak	_ZNSt12_Vector_baseIP8TinyblobSaIS1_EE19_M_get_Tp_allocatorEv
	.type	_ZNSt12_Vector_baseIP8TinyblobSaIS1_EE19_M_get_Tp_allocatorEv, @function
_ZNSt12_Vector_baseIP8TinyblobSaIS1_EE19_M_get_Tp_allocatorEv:
.LFB14798:
	.loc 6 276 7
	.cfi_startproc
	endbr64
	pushq	%rbp
	.cfi_def_cfa_offset 16
	.cfi_offset 6, -16
	movq	%rsp, %rbp
	.cfi_def_cfa_register 6
	movq	%rdi, -8(%rbp)
	.loc 6 277 22
	movq	-8(%rbp), %rax
	.loc 6 277 31
	popq	%rbp
	.cfi_def_cfa 7, 8
	ret
	.cfi_endproc
.LFE14798:
	.size	_ZNSt12_Vector_baseIP8TinyblobSaIS1_EE19_M_get_Tp_allocatorEv, .-_ZNSt12_Vector_baseIP8TinyblobSaIS1_EE19_M_get_Tp_allocatorEv
	.section	.text._ZSt8_DestroyIPP8TinyblobS1_EvT_S3_RSaIT0_E,"axG",@progbits,_ZSt8_DestroyIPP8TinyblobS1_EvT_S3_RSaIT0_E,comdat
	.weak	_ZSt8_DestroyIPP8TinyblobS1_EvT_S3_RSaIT0_E
	.type	_ZSt8_DestroyIPP8TinyblobS1_EvT_S3_RSaIT0_E, @function
_ZSt8_DestroyIPP8TinyblobS1_EvT_S3_RSaIT0_E:
.LFB14799:
	.file 12 "/usr/include/c++/11/bits/alloc_traits.h"
	.loc 12 851 5
	.cfi_startproc
	endbr64
	pushq	%rbp
	.cfi_def_cfa_offset 16
	.cfi_offset 6, -16
	movq	%rsp, %rbp
	.cfi_def_cfa_register 6
	subq	$32, %rsp
	movq	%rdi, -8(%rbp)
	movq	%rsi, -16(%rbp)
	movq	%rdx, -24(%rbp)
	.loc 12 854 15
	movq	-16(%rbp), %rdx
	movq	-8(%rbp), %rax
	movq	%rdx, %rsi
	movq	%rax, %rdi
	call	_ZSt8_DestroyIPP8TinyblobEvT_S3_
	.loc 12 855 5
	nop
	leave
	.cfi_def_cfa 7, 8
	ret
	.cfi_endproc
.LFE14799:
	.size	_ZSt8_DestroyIPP8TinyblobS1_EvT_S3_RSaIT0_E, .-_ZSt8_DestroyIPP8TinyblobS1_EvT_S3_RSaIT0_E
	.section	.text._ZNSt14pointer_traitsIPcE10pointer_toERc,"axG",@progbits,_ZNSt14pointer_traitsIPcE10pointer_toERc,comdat
	.weak	_ZNSt14pointer_traitsIPcE10pointer_toERc
	.type	_ZNSt14pointer_traitsIPcE10pointer_toERc, @function
_ZNSt14pointer_traitsIPcE10pointer_toERc:
.LFB14823:
	.file 13 "/usr/include/c++/11/bits/ptr_traits.h"
	.loc 13 149 7
	.cfi_startproc
	endbr64
	pushq	%rbp
	.cfi_def_cfa_offset 16
	.cfi_offset 6, -16
	movq	%rsp, %rbp
	.cfi_def_cfa_register 6
	subq	$16, %rsp
	movq	%rdi, -8(%rbp)
	.loc 13 150 30
	movq	-8(%rbp), %rax
	movq	%rax, %rdi
	call	_ZSt9addressofIcEPT_RS0_
	.loc 13 150 37
	leave
	.cfi_def_cfa 7, 8
	ret
	.cfi_endproc
.LFE14823:
	.size	_ZNSt14pointer_traitsIPcE10pointer_toERc, .-_ZNSt14pointer_traitsIPcE10pointer_toERc
	.section	.text._ZNKSt7__cxx1112basic_stringIcSt11char_traitsIcESaIcEE13_M_local_dataEv,"axG",@progbits,_ZNKSt7__cxx1112basic_stringIcSt11char_traitsIcESaIcEE13_M_local_dataEv,comdat
	.align 2
	.weak	_ZNKSt7__cxx1112basic_stringIcSt11char_traitsIcESaIcEE13_M_local_dataEv
	.type	_ZNKSt7__cxx1112basic_stringIcSt11char_traitsIcESaIcEE13_M_local_dataEv, @function
_ZNKSt7__cxx1112basic_stringIcSt11char_traitsIcESaIcEE13_M_local_dataEv:
.LFB14826:
	.loc 9 208 7
	.cfi_startproc
	endbr64
	pushq	%rbp
	.cfi_def_cfa_offset 16
	.cfi_offset 6, -16
	movq	%rsp, %rbp
	.cfi_def_cfa_register 6
	subq	$16, %rsp
	movq	%rdi, -8(%rbp)
	.loc 9 211 57
	movq	-8(%rbp), %rax
	addq	$16, %rax
	.loc 9 211 55
	movq	%rax, %rdi
	call	_ZNSt14pointer_traitsIPKcE10pointer_toERS0_
	.loc 9 215 7
	leave
	.cfi_def_cfa 7, 8
	ret
	.cfi_endproc
.LFE14826:
	.size	_ZNKSt7__cxx1112basic_stringIcSt11char_traitsIcESaIcEE13_M_local_dataEv, .-_ZNKSt7__cxx1112basic_stringIcSt11char_traitsIcESaIcEE13_M_local_dataEv
	.section	.text._ZNSt16allocator_traitsISaIcEE10deallocateERS0_Pcm,"axG",@progbits,_ZNSt16allocator_traitsISaIcEE10deallocateERS0_Pcm,comdat
	.weak	_ZNSt16allocator_traitsISaIcEE10deallocateERS0_Pcm
	.type	_ZNSt16allocator_traitsISaIcEE10deallocateERS0_Pcm, @function
_ZNSt16allocator_traitsISaIcEE10deallocateERS0_Pcm:
.LFB14987:
	.loc 12 495 7
	.cfi_startproc
	endbr64
	pushq	%rbp
	.cfi_def_cfa_offset 16
	.cfi_offset 6, -16
	movq	%rsp, %rbp
	.cfi_def_cfa_register 6
	subq	$64, %rsp
	movq	%rdi, -40(%rbp)
	movq	%rsi, -48(%rbp)
	movq	%rdx, -56(%rbp)
	movq	-40(%rbp), %rax
	movq	%rax, -24(%rbp)
	movq	-48(%rbp), %rax
	movq	%rax, -16(%rbp)
	movq	-56(%rbp), %rax
	movq	%rax, -8(%rbp)
.LBB39:
.LBB40:
	.loc 10 193 32
	call	_ZSt21is_constant_evaluatedv
	.loc 10 193 2
	testb	%al, %al
	je	.L72
	.loc 10 195 23
	movq	-16(%rbp), %rax
	movq	%rax, %rdi
	call	_ZdlPv@PLT
	.loc 10 196 6
	jmp	.L73
.L72:
	.loc 10 199 35
	movq	-8(%rbp), %rdx
	movq	-16(%rbp), %rcx
	movq	-24(%rbp), %rax
	movq	%rcx, %rsi
	movq	%rax, %rdi
	call	_ZN9__gnu_cxx13new_allocatorIcE10deallocateEPcm
.LBE40:
.LBE39:
	.loc 12 496 35
	nop
.L73:
	nop
	leave
	.cfi_def_cfa 7, 8
	ret
	.cfi_endproc
.LFE14987:
	.size	_ZNSt16allocator_traitsISaIcEE10deallocateERS0_Pcm, .-_ZNSt16allocator_traitsISaIcEE10deallocateERS0_Pcm
	.section	.text._ZN9__gnu_cxx13new_allocatorINSt8__detail10_Hash_nodeISt4pairIKNSt7__cxx1112basic_stringIcSt11char_traitsIcESaIcEEESt6vectorIP8TinyblobSaISD_EEELb1EEEEC2Ev,"axG",@progbits,_ZN9__gnu_cxx13new_allocatorINSt8__detail10_Hash_nodeISt4pairIKNSt7__cxx1112basic_stringIcSt11char_traitsIcESaIcEEESt6vectorIP8TinyblobSaISD_EEELb1EEEEC5Ev,comdat
	.align 2
	.weak	_ZN9__gnu_cxx13new_allocatorINSt8__detail10_Hash_nodeISt4pairIKNSt7__cxx1112basic_stringIcSt11char_traitsIcESaIcEEESt6vectorIP8TinyblobSaISD_EEELb1EEEEC2Ev
	.type	_ZN9__gnu_cxx13new_allocatorINSt8__detail10_Hash_nodeISt4pairIKNSt7__cxx1112basic_stringIcSt11char_traitsIcESaIcEEESt6vectorIP8TinyblobSaISD_EEELb1EEEEC2Ev, @function
_ZN9__gnu_cxx13new_allocatorINSt8__detail10_Hash_nodeISt4pairIKNSt7__cxx1112basic_stringIcSt11char_traitsIcESaIcEEESt6vectorIP8TinyblobSaISD_EEELb1EEEEC2Ev:
.LFB15039:
	.file 14 "/usr/include/c++/11/ext/new_allocator.h"
	.loc 14 79 7
	.cfi_startproc
	endbr64
	pushq	%rbp
	.cfi_def_cfa_offset 16
	.cfi_offset 6, -16
	movq	%rsp, %rbp
	.cfi_def_cfa_register 6
	movq	%rdi, -8(%rbp)
	.loc 14 79 47
	nop
	popq	%rbp
	.cfi_def_cfa 7, 8
	ret
	.cfi_endproc
.LFE15039:
	.size	_ZN9__gnu_cxx13new_allocatorINSt8__detail10_Hash_nodeISt4pairIKNSt7__cxx1112basic_stringIcSt11char_traitsIcESaIcEEESt6vectorIP8TinyblobSaISD_EEELb1EEEEC2Ev, .-_ZN9__gnu_cxx13new_allocatorINSt8__detail10_Hash_nodeISt4pairIKNSt7__cxx1112basic_stringIcSt11char_traitsIcESaIcEEESt6vectorIP8TinyblobSaISD_EEELb1EEEEC2Ev
	.weak	_ZN9__gnu_cxx13new_allocatorINSt8__detail10_Hash_nodeISt4pairIKNSt7__cxx1112basic_stringIcSt11char_traitsIcESaIcEEESt6vectorIP8TinyblobSaISD_EEELb1EEEEC1Ev
	.set	_ZN9__gnu_cxx13new_allocatorINSt8__detail10_Hash_nodeISt4pairIKNSt7__cxx1112basic_stringIcSt11char_traitsIcESaIcEEESt6vectorIP8TinyblobSaISD_EEELb1EEEEC1Ev,_ZN9__gnu_cxx13new_allocatorINSt8__detail10_Hash_nodeISt4pairIKNSt7__cxx1112basic_stringIcSt11char_traitsIcESaIcEEESt6vectorIP8TinyblobSaISD_EEELb1EEEEC2Ev
	.section	.text._ZNKSt10_HashtableINSt7__cxx1112basic_stringIcSt11char_traitsIcESaIcEEESt4pairIKS5_St6vectorIP8TinyblobSaISA_EEESaISD_ENSt8__detail10_Select1stESt8equal_toIS5_ESt4hashIS5_ENSF_18_Mod_range_hashingENSF_20_Default_ranged_hashENSF_20_Prime_rehash_policyENSF_17_Hashtable_traitsILb1ELb0ELb1EEEE8_M_beginEv,"axG",@progbits,_ZNKSt10_HashtableINSt7__cxx1112basic_stringIcSt11char_traitsIcESaIcEEESt4pairIKS5_St6vectorIP8TinyblobSaISA_EEESaISD_ENSt8__detail10_Select1stESt8equal_toIS5_ESt4hashIS5_ENSF_18_Mod_range_hashingENSF_20_Default_ranged_hashENSF_20_Prime_rehash_policyENSF_17_Hashtable_traitsILb1ELb0ELb1EEEE8_M_beginEv,comdat
	.align 2
	.weak	_ZNKSt10_HashtableINSt7__cxx1112basic_stringIcSt11char_traitsIcESaIcEEESt4pairIKS5_St6vectorIP8TinyblobSaISA_EEESaISD_ENSt8__detail10_Select1stESt8equal_toIS5_ESt4hashIS5_ENSF_18_Mod_range_hashingENSF_20_Default_ranged_hashENSF_20_Prime_rehash_policyENSF_17_Hashtable_traitsILb1ELb0ELb1EEEE8_M_beginEv
	.type	_ZNKSt10_HashtableINSt7__cxx1112basic_stringIcSt11char_traitsIcESaIcEEESt4pairIKS5_St6vectorIP8TinyblobSaISA_EEESaISD_ENSt8__detail10_Select1stESt8equal_toIS5_ESt4hashIS5_ENSF_18_Mod_range_hashingENSF_20_Default_ranged_hashENSF_20_Prime_rehash_policyENSF_17_Hashtable_traitsILb1ELb0ELb1EEEE8_M_beginEv, @function
_ZNKSt10_HashtableINSt7__cxx1112basic_stringIcSt11char_traitsIcESaIcEEESt4pairIKS5_St6vectorIP8TinyblobSaISA_EEESaISD_ENSt8__detail10_Select1stESt8equal_toIS5_ESt4hashIS5_ENSF_18_Mod_range_hashingENSF_20_Default_ranged_hashENSF_20_Prime_rehash_policyENSF_17_Hashtable_traitsILb1ELb0ELb1EEEE8_M_beginEv:
.LFB15041:
	.loc 4 462 7
	.cfi_startproc
	endbr64
	pushq	%rbp
	.cfi_def_cfa_offset 16
	.cfi_offset 6, -16
	movq	%rsp, %rbp
	.cfi_def_cfa_register 6
	movq	%rdi, -8(%rbp)
	.loc 4 463 62
	movq	-8(%rbp), %rax
	movq	16(%rax), %rax
	.loc 4 463 65
	popq	%rbp
	.cfi_def_cfa 7, 8
	ret
	.cfi_endproc
.LFE15041:
	.size	_ZNKSt10_HashtableINSt7__cxx1112basic_stringIcSt11char_traitsIcESaIcEEESt4pairIKS5_St6vectorIP8TinyblobSaISA_EEESaISD_ENSt8__detail10_Select1stESt8equal_toIS5_ESt4hashIS5_ENSF_18_Mod_range_hashingENSF_20_Default_ranged_hashENSF_20_Prime_rehash_policyENSF_17_Hashtable_traitsILb1ELb0ELb1EEEE8_M_beginEv, .-_ZNKSt10_HashtableINSt7__cxx1112basic_stringIcSt11char_traitsIcESaIcEEESt4pairIKS5_St6vectorIP8TinyblobSaISA_EEESaISD_ENSt8__detail10_Select1stESt8equal_toIS5_ESt4hashIS5_ENSF_18_Mod_range_hashingENSF_20_Default_ranged_hashENSF_20_Prime_rehash_policyENSF_17_Hashtable_traitsILb1ELb0ELb1EEEE8_M_beginEv
	.section	.text._ZNSt8__detail16_Hashtable_allocISaINS_10_Hash_nodeISt4pairIKNSt7__cxx1112basic_stringIcSt11char_traitsIcESaIcEEESt6vectorIP8TinyblobSaISC_EEELb1EEEEE19_M_deallocate_nodesEPSG_,"axG",@progbits,_ZNSt8__detail16_Hashtable_allocISaINS_10_Hash_nodeISt4pairIKNSt7__cxx1112basic_stringIcSt11char_traitsIcESaIcEEESt6vectorIP8TinyblobSaISC_EEELb1EEEEE19_M_deallocate_nodesEPSG_,comdat
	.align 2
	.weak	_ZNSt8__detail16_Hashtable_allocISaINS_10_Hash_nodeISt4pairIKNSt7__cxx1112basic_stringIcSt11char_traitsIcESaIcEEESt6vectorIP8TinyblobSaISC_EEELb1EEEEE19_M_deallocate_nodesEPSG_
	.type	_ZNSt8__detail16_Hashtable_allocISaINS_10_Hash_nodeISt4pairIKNSt7__cxx1112basic_stringIcSt11char_traitsIcESaIcEEESt6vectorIP8TinyblobSaISC_EEELb1EEEEE19_M_deallocate_nodesEPSG_, @function
_ZNSt8__detail16_Hashtable_allocISaINS_10_Hash_nodeISt4pairIKNSt7__cxx1112basic_stringIcSt11char_traitsIcESaIcEEESt6vectorIP8TinyblobSaISC_EEELb1EEEEE19_M_deallocate_nodesEPSG_:
.LFB15042:
	.loc 3 1910 5
	.cfi_startproc
	endbr64
	pushq	%rbp
	.cfi_def_cfa_offset 16
	.cfi_offset 6, -16
	movq	%rsp, %rbp
	.cfi_def_cfa_register 6
	subq	$32, %rsp
	movq	%rdi, -24(%rbp)
	movq	%rsi, -32(%rbp)
	.loc 3 1912 7
	jmp	.L78
.L79:
.LBB41:
	.loc 3 1914 15
	movq	-32(%rbp), %rax
	movq	%rax, -8(%rbp)
	.loc 3 1915 22
	movq	-32(%rbp), %rax
	movq	%rax, %rdi
	call	_ZNKSt8__detail10_Hash_nodeISt4pairIKNSt7__cxx1112basic_stringIcSt11char_traitsIcESaIcEEESt6vectorIP8TinyblobSaISB_EEELb1EE7_M_nextEv
	movq	%rax, -32(%rbp)
	.loc 3 1916 22
	movq	-8(%rbp), %rdx
	movq	-24(%rbp), %rax
	movq	%rdx, %rsi
	movq	%rax, %rdi
	call	_ZNSt8__detail16_Hashtable_allocISaINS_10_Hash_nodeISt4pairIKNSt7__cxx1112basic_stringIcSt11char_traitsIcESaIcEEESt6vectorIP8TinyblobSaISC_EEELb1EEEEE18_M_deallocate_nodeEPSG_
.L78:
.LBE41:
	.loc 3 1912 14
	cmpq	$0, -32(%rbp)
	jne	.L79
	.loc 3 1918 5
	nop
	nop
	leave
	.cfi_def_cfa 7, 8
	ret
	.cfi_endproc
.LFE15042:
	.size	_ZNSt8__detail16_Hashtable_allocISaINS_10_Hash_nodeISt4pairIKNSt7__cxx1112basic_stringIcSt11char_traitsIcESaIcEEESt6vectorIP8TinyblobSaISC_EEELb1EEEEE19_M_deallocate_nodesEPSG_, .-_ZNSt8__detail16_Hashtable_allocISaINS_10_Hash_nodeISt4pairIKNSt7__cxx1112basic_stringIcSt11char_traitsIcESaIcEEESt6vectorIP8TinyblobSaISC_EEELb1EEEEE19_M_deallocate_nodesEPSG_
	.section	.text._ZNSt10_HashtableINSt7__cxx1112basic_stringIcSt11char_traitsIcESaIcEEESt4pairIKS5_St6vectorIP8TinyblobSaISA_EEESaISD_ENSt8__detail10_Select1stESt8equal_toIS5_ESt4hashIS5_ENSF_18_Mod_range_hashingENSF_20_Default_ranged_hashENSF_20_Prime_rehash_policyENSF_17_Hashtable_traitsILb1ELb0ELb1EEEE21_M_deallocate_bucketsEPPNSF_15_Hash_node_baseEm,"axG",@progbits,_ZNSt10_HashtableINSt7__cxx1112basic_stringIcSt11char_traitsIcESaIcEEESt4pairIKS5_St6vectorIP8TinyblobSaISA_EEESaISD_ENSt8__detail10_Select1stESt8equal_toIS5_ESt4hashIS5_ENSF_18_Mod_range_hashingENSF_20_Default_ranged_hashENSF_20_Prime_rehash_policyENSF_17_Hashtable_traitsILb1ELb0ELb1EEEE21_M_deallocate_bucketsEPPNSF_15_Hash_node_baseEm,comdat
	.align 2
	.weak	_ZNSt10_HashtableINSt7__cxx1112basic_stringIcSt11char_traitsIcESaIcEEESt4pairIKS5_St6vectorIP8TinyblobSaISA_EEESaISD_ENSt8__detail10_Select1stESt8equal_toIS5_ESt4hashIS5_ENSF_18_Mod_range_hashingENSF_20_Default_ranged_hashENSF_20_Prime_rehash_policyENSF_17_Hashtable_traitsILb1ELb0ELb1EEEE21_M_deallocate_bucketsEPPNSF_15_Hash_node_baseEm
	.type	_ZNSt10_HashtableINSt7__cxx1112basic_stringIcSt11char_traitsIcESaIcEEESt4pairIKS5_St6vectorIP8TinyblobSaISA_EEESaISD_ENSt8__detail10_Select1stESt8equal_toIS5_ESt4hashIS5_ENSF_18_Mod_range_hashingENSF_20_Default_ranged_hashENSF_20_Prime_rehash_policyENSF_17_Hashtable_traitsILb1ELb0ELb1EEEE21_M_deallocate_bucketsEPPNSF_15_Hash_node_baseEm, @function
_ZNSt10_HashtableINSt7__cxx1112basic_stringIcSt11char_traitsIcESaIcEEESt4pairIKS5_St6vectorIP8TinyblobSaISA_EEESaISD_ENSt8__detail10_Select1stESt8equal_toIS5_ESt4hashIS5_ENSF_18_Mod_range_hashingENSF_20_Default_ranged_hashENSF_20_Prime_rehash_policyENSF_17_Hashtable_traitsILb1ELb0ELb1EEEE21_M_deallocate_bucketsEPPNSF_15_Hash_node_baseEm:
.LFB15043:
	.loc 4 444 7
	.cfi_startproc
	endbr64
	pushq	%rbp
	.cfi_def_cfa_offset 16
	.cfi_offset 6, -16
	movq	%rsp, %rbp
	.cfi_def_cfa_register 6
	subq	$32, %rsp
	movq	%rdi, -8(%rbp)
	movq	%rsi, -16(%rbp)
	movq	%rdx, -24(%rbp)
	.loc 4 446 27
	movq	-16(%rbp), %rdx
	movq	-8(%rbp), %rax
	movq	%rdx, %rsi
	movq	%rax, %rdi
	call	_ZNKSt10_HashtableINSt7__cxx1112basic_stringIcSt11char_traitsIcESaIcEEESt4pairIKS5_St6vectorIP8TinyblobSaISA_EEESaISD_ENSt8__detail10_Select1stESt8equal_toIS5_ESt4hashIS5_ENSF_18_Mod_range_hashingENSF_20_Default_ranged_hashENSF_20_Prime_rehash_policyENSF_17_Hashtable_traitsILb1ELb0ELb1EEEE21_M_uses_single_bucketEPPNSF_15_Hash_node_baseE
	.loc 4 446 2
	testb	%al, %al
	jne	.L83
	.loc 4 449 42
	movq	-24(%rbp), %rdx
	movq	-16(%rbp), %rcx
	movq	-8(%rbp), %rax
	movq	%rcx, %rsi
	movq	%rax, %rdi
	call	_ZNSt8__detail16_Hashtable_allocISaINS_10_Hash_nodeISt4pairIKNSt7__cxx1112basic_stringIcSt11char_traitsIcESaIcEEESt6vectorIP8TinyblobSaISC_EEELb1EEEEE21_M_deallocate_bucketsEPPNS_15_Hash_node_baseEm
	jmp	.L80
.L83:
	.loc 4 447 4
	nop
.L80:
	.loc 4 450 7
	leave
	.cfi_def_cfa 7, 8
	ret
	.cfi_endproc
.LFE15043:
	.size	_ZNSt10_HashtableINSt7__cxx1112basic_stringIcSt11char_traitsIcESaIcEEESt4pairIKS5_St6vectorIP8TinyblobSaISA_EEESaISD_ENSt8__detail10_Select1stESt8equal_toIS5_ESt4hashIS5_ENSF_18_Mod_range_hashingENSF_20_Default_ranged_hashENSF_20_Prime_rehash_policyENSF_17_Hashtable_traitsILb1ELb0ELb1EEEE21_M_deallocate_bucketsEPPNSF_15_Hash_node_baseEm, .-_ZNSt10_HashtableINSt7__cxx1112basic_stringIcSt11char_traitsIcESaIcEEESt4pairIKS5_St6vectorIP8TinyblobSaISA_EEESaISD_ENSt8__detail10_Select1stESt8equal_toIS5_ESt4hashIS5_ENSF_18_Mod_range_hashingENSF_20_Default_ranged_hashENSF_20_Prime_rehash_policyENSF_17_Hashtable_traitsILb1ELb0ELb1EEEE21_M_deallocate_bucketsEPPNSF_15_Hash_node_baseEm
	.section	.text._ZN9__gnu_cxx13new_allocatorIP8TinyblobEC2Ev,"axG",@progbits,_ZN9__gnu_cxx13new_allocatorIP8TinyblobEC5Ev,comdat
	.align 2
	.weak	_ZN9__gnu_cxx13new_allocatorIP8TinyblobEC2Ev
	.type	_ZN9__gnu_cxx13new_allocatorIP8TinyblobEC2Ev, @function
_ZN9__gnu_cxx13new_allocatorIP8TinyblobEC2Ev:
.LFB15049:
	.loc 14 79 7
	.cfi_startproc
	endbr64
	pushq	%rbp
	.cfi_def_cfa_offset 16
	.cfi_offset 6, -16
	movq	%rsp, %rbp
	.cfi_def_cfa_register 6
	movq	%rdi, -8(%rbp)
	.loc 14 79 47
	nop
	popq	%rbp
	.cfi_def_cfa 7, 8
	ret
	.cfi_endproc
.LFE15049:
	.size	_ZN9__gnu_cxx13new_allocatorIP8TinyblobEC2Ev, .-_ZN9__gnu_cxx13new_allocatorIP8TinyblobEC2Ev
	.weak	_ZN9__gnu_cxx13new_allocatorIP8TinyblobEC1Ev
	.set	_ZN9__gnu_cxx13new_allocatorIP8TinyblobEC1Ev,_ZN9__gnu_cxx13new_allocatorIP8TinyblobEC2Ev
	.section	.text._ZNSt16allocator_traitsISaIP8TinyblobEE10deallocateERS2_PS1_m,"axG",@progbits,_ZNSt16allocator_traitsISaIP8TinyblobEE10deallocateERS2_PS1_m,comdat
	.weak	_ZNSt16allocator_traitsISaIP8TinyblobEE10deallocateERS2_PS1_m
	.type	_ZNSt16allocator_traitsISaIP8TinyblobEE10deallocateERS2_PS1_m, @function
_ZNSt16allocator_traitsISaIP8TinyblobEE10deallocateERS2_PS1_m:
.LFB15051:
	.loc 12 495 7
	.cfi_startproc
	endbr64
	pushq	%rbp
	.cfi_def_cfa_offset 16
	.cfi_offset 6, -16
	movq	%rsp, %rbp
	.cfi_def_cfa_register 6
	subq	$64, %rsp
	movq	%rdi, -40(%rbp)
	movq	%rsi, -48(%rbp)
	movq	%rdx, -56(%rbp)
	movq	-40(%rbp), %rax
	movq	%rax, -24(%rbp)
	movq	-48(%rbp), %rax
	movq	%rax, -16(%rbp)
	movq	-56(%rbp), %rax
	movq	%rax, -8(%rbp)
.LBB42:
.LBB43:
	.loc 10 193 32
	call	_ZSt21is_constant_evaluatedv
	.loc 10 193 2
	testb	%al, %al
	je	.L86
	.loc 10 195 23
	movq	-16(%rbp), %rax
	movq	%rax, %rdi
	call	_ZdlPv@PLT
	.loc 10 196 6
	jmp	.L87
.L86:
	.loc 10 199 35
	movq	-8(%rbp), %rdx
	movq	-16(%rbp), %rcx
	movq	-24(%rbp), %rax
	movq	%rcx, %rsi
	movq	%rax, %rdi
	call	_ZN9__gnu_cxx13new_allocatorIP8TinyblobE10deallocateEPS2_m
.LBE43:
.LBE42:
	.loc 12 496 35
	nop
.L87:
	nop
	leave
	.cfi_def_cfa 7, 8
	ret
	.cfi_endproc
.LFE15051:
	.size	_ZNSt16allocator_traitsISaIP8TinyblobEE10deallocateERS2_PS1_m, .-_ZNSt16allocator_traitsISaIP8TinyblobEE10deallocateERS2_PS1_m
	.section	.text._ZSt8_DestroyIPP8TinyblobEvT_S3_,"axG",@progbits,_ZSt8_DestroyIPP8TinyblobEvT_S3_,comdat
	.weak	_ZSt8_DestroyIPP8TinyblobEvT_S3_
	.type	_ZSt8_DestroyIPP8TinyblobEvT_S3_, @function
_ZSt8_DestroyIPP8TinyblobEvT_S3_:
.LFB15052:
	.file 15 "/usr/include/c++/11/bits/stl_construct.h"
	.loc 15 182 5
	.cfi_startproc
	endbr64
	pushq	%rbp
	.cfi_def_cfa_offset 16
	.cfi_offset 6, -16
	movq	%rsp, %rbp
	.cfi_def_cfa_register 6
	subq	$16, %rsp
	movq	%rdi, -8(%rbp)
	movq	%rsi, -16(%rbp)
	.loc 15 192 37
	call	_ZSt21is_constant_evaluatedv
	.loc 15 192 7
	testb	%al, %al
	je	.L89
	.loc 15 193 39
	movq	-16(%rbp), %rdx
	movq	-8(%rbp), %rax
	movq	%rdx, %rsi
	movq	%rax, %rdi
	call	_ZNSt12_Destroy_auxILb0EE9__destroyIPP8TinyblobEEvT_S5_
	.loc 15 193 55
	jmp	.L88
.L89:
	.loc 15 196 11
	movq	-16(%rbp), %rdx
	movq	-8(%rbp), %rax
	movq	%rdx, %rsi
	movq	%rax, %rdi
	call	_ZNSt12_Destroy_auxILb1EE9__destroyIPP8TinyblobEEvT_S5_
.L88:
	.loc 15 197 5
	leave
	.cfi_def_cfa 7, 8
	ret
	.cfi_endproc
.LFE15052:
	.size	_ZSt8_DestroyIPP8TinyblobEvT_S3_, .-_ZSt8_DestroyIPP8TinyblobEvT_S3_
	.section	.text._ZSt9addressofIcEPT_RS0_,"axG",@progbits,_ZSt9addressofIcEPT_RS0_,comdat
	.weak	_ZSt9addressofIcEPT_RS0_
	.type	_ZSt9addressofIcEPT_RS0_, @function
_ZSt9addressofIcEPT_RS0_:
.LFB15062:
	.loc 11 145 5
	.cfi_startproc
	endbr64
	pushq	%rbp
	.cfi_def_cfa_offset 16
	.cfi_offset 6, -16
	movq	%rsp, %rbp
	.cfi_def_cfa_register 6
	subq	$16, %rsp
	movq	%rdi, -8(%rbp)
	.loc 11 146 30
	movq	-8(%rbp), %rax
	movq	%rax, %rdi
	call	_ZSt11__addressofIcEPT_RS0_
	.loc 11 146 37
	leave
	.cfi_def_cfa 7, 8
	ret
	.cfi_endproc
.LFE15062:
	.size	_ZSt9addressofIcEPT_RS0_, .-_ZSt9addressofIcEPT_RS0_
	.section	.text._ZNSt14pointer_traitsIPKcE10pointer_toERS0_,"axG",@progbits,_ZNSt14pointer_traitsIPKcE10pointer_toERS0_,comdat
	.weak	_ZNSt14pointer_traitsIPKcE10pointer_toERS0_
	.type	_ZNSt14pointer_traitsIPKcE10pointer_toERS0_, @function
_ZNSt14pointer_traitsIPKcE10pointer_toERS0_:
.LFB15064:
	.loc 13 149 7
	.cfi_startproc
	endbr64
	pushq	%rbp
	.cfi_def_cfa_offset 16
	.cfi_offset 6, -16
	movq	%rsp, %rbp
	.cfi_def_cfa_register 6
	subq	$16, %rsp
	movq	%rdi, -8(%rbp)
	.loc 13 150 30
	movq	-8(%rbp), %rax
	movq	%rax, %rdi
	call	_ZSt9addressofIKcEPT_RS1_
	.loc 13 150 37
	leave
	.cfi_def_cfa 7, 8
	ret
	.cfi_endproc
.LFE15064:
	.size	_ZNSt14pointer_traitsIPKcE10pointer_toERS0_, .-_ZNSt14pointer_traitsIPKcE10pointer_toERS0_
	.section	.text._ZNKSt8__detail10_Hash_nodeISt4pairIKNSt7__cxx1112basic_stringIcSt11char_traitsIcESaIcEEESt6vectorIP8TinyblobSaISB_EEELb1EE7_M_nextEv,"axG",@progbits,_ZNKSt8__detail10_Hash_nodeISt4pairIKNSt7__cxx1112basic_stringIcSt11char_traitsIcESaIcEEESt6vectorIP8TinyblobSaISB_EEELb1EE7_M_nextEv,comdat
	.align 2
	.weak	_ZNKSt8__detail10_Hash_nodeISt4pairIKNSt7__cxx1112basic_stringIcSt11char_traitsIcESaIcEEESt6vectorIP8TinyblobSaISB_EEELb1EE7_M_nextEv
	.type	_ZNKSt8__detail10_Hash_nodeISt4pairIKNSt7__cxx1112basic_stringIcSt11char_traitsIcESaIcEEESt6vectorIP8TinyblobSaISB_EEELb1EE7_M_nextEv, @function
_ZNKSt8__detail10_Hash_nodeISt4pairIKNSt7__cxx1112basic_stringIcSt11char_traitsIcESaIcEEESt6vectorIP8TinyblobSaISB_EEELb1EE7_M_nextEv:
.LFB15212:
	.loc 3 282 7
	.cfi_startproc
	endbr64
	pushq	%rbp
	.cfi_def_cfa_offset 16
	.cfi_offset 6, -16
	movq	%rsp, %rbp
	.cfi_def_cfa_register 6
	movq	%rdi, -8(%rbp)
	.loc 3 283 53
	movq	-8(%rbp), %rax
	movq	(%rax), %rax
	.loc 3 283 56
	popq	%rbp
	.cfi_def_cfa 7, 8
	ret
	.cfi_endproc
.LFE15212:
	.size	_ZNKSt8__detail10_Hash_nodeISt4pairIKNSt7__cxx1112basic_stringIcSt11char_traitsIcESaIcEEESt6vectorIP8TinyblobSaISB_EEELb1EE7_M_nextEv, .-_ZNKSt8__detail10_Hash_nodeISt4pairIKNSt7__cxx1112basic_stringIcSt11char_traitsIcESaIcEEESt6vectorIP8TinyblobSaISB_EEELb1EE7_M_nextEv
	.section	.text._ZNSt8__detail16_Hashtable_allocISaINS_10_Hash_nodeISt4pairIKNSt7__cxx1112basic_stringIcSt11char_traitsIcESaIcEEESt6vectorIP8TinyblobSaISC_EEELb1EEEEE18_M_deallocate_nodeEPSG_,"axG",@progbits,_ZNSt8__detail16_Hashtable_allocISaINS_10_Hash_nodeISt4pairIKNSt7__cxx1112basic_stringIcSt11char_traitsIcESaIcEEESt6vectorIP8TinyblobSaISC_EEELb1EEEEE18_M_deallocate_nodeEPSG_,comdat
	.align 2
	.weak	_ZNSt8__detail16_Hashtable_allocISaINS_10_Hash_nodeISt4pairIKNSt7__cxx1112basic_stringIcSt11char_traitsIcESaIcEEESt6vectorIP8TinyblobSaISC_EEELb1EEEEE18_M_deallocate_nodeEPSG_
	.type	_ZNSt8__detail16_Hashtable_allocISaINS_10_Hash_nodeISt4pairIKNSt7__cxx1112basic_stringIcSt11char_traitsIcESaIcEEESt6vectorIP8TinyblobSaISC_EEELb1EEEEE18_M_deallocate_nodeEPSG_, @function
_ZNSt8__detail16_Hashtable_allocISaINS_10_Hash_nodeISt4pairIKNSt7__cxx1112basic_stringIcSt11char_traitsIcESaIcEEESt6vectorIP8TinyblobSaISC_EEELb1EEEEE18_M_deallocate_nodeEPSG_:
.LFB15213:
	.loc 3 1892 5
	.cfi_startproc
	endbr64
	pushq	%rbp
	.cfi_def_cfa_offset 16
	.cfi_offset 6, -16
	movq	%rsp, %rbp
	.cfi_def_cfa_register 6
	pushq	%rbx
	subq	$24, %rsp
	.cfi_offset 3, -24
	movq	%rdi, -24(%rbp)
	movq	%rsi, -32(%rbp)
	.loc 3 1894 35
	movq	-32(%rbp), %rax
	addq	$8, %rax
	movq	%rax, %rdi
	call	_ZNSt8__detail21_Hash_node_value_baseISt4pairIKNSt7__cxx1112basic_stringIcSt11char_traitsIcESaIcEEESt6vectorIP8TinyblobSaISB_EEEE9_M_valptrEv
	movq	%rax, %rbx
	.loc 3 1894 53
	movq	-24(%rbp), %rax
	movq	%rax, %rdi
	call	_ZNSt8__detail16_Hashtable_allocISaINS_10_Hash_nodeISt4pairIKNSt7__cxx1112basic_stringIcSt11char_traitsIcESaIcEEESt6vectorIP8TinyblobSaISC_EEELb1EEEEE17_M_node_allocatorEv
	.loc 3 1894 35
	movq	%rbx, %rsi
	movq	%rax, %rdi
	call	_ZNSt16allocator_traitsISaINSt8__detail10_Hash_nodeISt4pairIKNSt7__cxx1112basic_stringIcSt11char_traitsIcESaIcEEESt6vectorIP8TinyblobSaISC_EEELb1EEEEE7destroyISF_EEvRSH_PT_
	.loc 3 1895 29
	movq	-32(%rbp), %rdx
	movq	-24(%rbp), %rax
	movq	%rdx, %rsi
	movq	%rax, %rdi
	call	_ZNSt8__detail16_Hashtable_allocISaINS_10_Hash_nodeISt4pairIKNSt7__cxx1112basic_stringIcSt11char_traitsIcESaIcEEESt6vectorIP8TinyblobSaISC_EEELb1EEEEE22_M_deallocate_node_ptrEPSG_
	.loc 3 1896 5
	nop
	movq	-8(%rbp), %rbx
	leave
	.cfi_def_cfa 7, 8
	ret
	.cfi_endproc
.LFE15213:
	.size	_ZNSt8__detail16_Hashtable_allocISaINS_10_Hash_nodeISt4pairIKNSt7__cxx1112basic_stringIcSt11char_traitsIcESaIcEEESt6vectorIP8TinyblobSaISC_EEELb1EEEEE18_M_deallocate_nodeEPSG_, .-_ZNSt8__detail16_Hashtable_allocISaINS_10_Hash_nodeISt4pairIKNSt7__cxx1112basic_stringIcSt11char_traitsIcESaIcEEESt6vectorIP8TinyblobSaISC_EEELb1EEEEE18_M_deallocate_nodeEPSG_
	.section	.text._ZNKSt10_HashtableINSt7__cxx1112basic_stringIcSt11char_traitsIcESaIcEEESt4pairIKS5_St6vectorIP8TinyblobSaISA_EEESaISD_ENSt8__detail10_Select1stESt8equal_toIS5_ESt4hashIS5_ENSF_18_Mod_range_hashingENSF_20_Default_ranged_hashENSF_20_Prime_rehash_policyENSF_17_Hashtable_traitsILb1ELb0ELb1EEEE21_M_uses_single_bucketEPPNSF_15_Hash_node_baseE,"axG",@progbits,_ZNKSt10_HashtableINSt7__cxx1112basic_stringIcSt11char_traitsIcESaIcEEESt4pairIKS5_St6vectorIP8TinyblobSaISA_EEESaISD_ENSt8__detail10_Select1stESt8equal_toIS5_ESt4hashIS5_ENSF_18_Mod_range_hashingENSF_20_Default_ranged_hashENSF_20_Prime_rehash_policyENSF_17_Hashtable_traitsILb1ELb0ELb1EEEE21_M_uses_single_bucketEPPNSF_15_Hash_node_baseE,comdat
	.align 2
	.weak	_ZNKSt10_HashtableINSt7__cxx1112basic_stringIcSt11char_traitsIcESaIcEEESt4pairIKS5_St6vectorIP8TinyblobSaISA_EEESaISD_ENSt8__detail10_Select1stESt8equal_toIS5_ESt4hashIS5_ENSF_18_Mod_range_hashingENSF_20_Default_ranged_hashENSF_20_Prime_rehash_policyENSF_17_Hashtable_traitsILb1ELb0ELb1EEEE21_M_uses_single_bucketEPPNSF_15_Hash_node_baseE
	.type	_ZNKSt10_HashtableINSt7__cxx1112basic_stringIcSt11char_traitsIcESaIcEEESt4pairIKS5_St6vectorIP8TinyblobSaISA_EEESaISD_ENSt8__detail10_Select1stESt8equal_toIS5_ESt4hashIS5_ENSF_18_Mod_range_hashingENSF_20_Default_ranged_hashENSF_20_Prime_rehash_policyENSF_17_Hashtable_traitsILb1ELb0ELb1EEEE21_M_uses_single_bucketEPPNSF_15_Hash_node_baseE, @function
_ZNKSt10_HashtableINSt7__cxx1112basic_stringIcSt11char_traitsIcESaIcEEESt4pairIKS5_St6vectorIP8TinyblobSaISA_EEESaISD_ENSt8__detail10_Select1stESt8equal_toIS5_ESt4hashIS5_ENSF_18_Mod_range_hashingENSF_20_Default_ranged_hashENSF_20_Prime_rehash_policyENSF_17_Hashtable_traitsILb1ELb0ELb1EEEE21_M_uses_single_bucketEPPNSF_15_Hash_node_baseE:
.LFB15215:
	.loc 4 421 7
	.cfi_startproc
	endbr64
	pushq	%rbp
	.cfi_def_cfa_offset 16
	.cfi_offset 6, -16
	movq	%rsp, %rbp
	.cfi_def_cfa_register 6
	movq	%rdi, -8(%rbp)
	movq	%rsi, -16(%rbp)
	.loc 4 422 44
	movq	-8(%rbp), %rax
	addq	$48, %rax
	.loc 4 422 40
	cmpq	%rax, -16(%rbp)
	sete	%al
	.loc 4 422 32
	movzbl	%al, %eax
	.loc 4 422 67
	testq	%rax, %rax
	setne	%al
	.loc 4 422 70
	popq	%rbp
	.cfi_def_cfa 7, 8
	ret
	.cfi_endproc
.LFE15215:
	.size	_ZNKSt10_HashtableINSt7__cxx1112basic_stringIcSt11char_traitsIcESaIcEEESt4pairIKS5_St6vectorIP8TinyblobSaISA_EEESaISD_ENSt8__detail10_Select1stESt8equal_toIS5_ESt4hashIS5_ENSF_18_Mod_range_hashingENSF_20_Default_ranged_hashENSF_20_Prime_rehash_policyENSF_17_Hashtable_traitsILb1ELb0ELb1EEEE21_M_uses_single_bucketEPPNSF_15_Hash_node_baseE, .-_ZNKSt10_HashtableINSt7__cxx1112basic_stringIcSt11char_traitsIcESaIcEEESt4pairIKS5_St6vectorIP8TinyblobSaISA_EEESaISD_ENSt8__detail10_Select1stESt8equal_toIS5_ESt4hashIS5_ENSF_18_Mod_range_hashingENSF_20_Default_ranged_hashENSF_20_Prime_rehash_policyENSF_17_Hashtable_traitsILb1ELb0ELb1EEEE21_M_uses_single_bucketEPPNSF_15_Hash_node_baseE
	.section	.text._ZNSt14pointer_traitsIPPNSt8__detail15_Hash_node_baseEE10pointer_toERS2_,"axG",@progbits,_ZNSt14pointer_traitsIPPNSt8__detail15_Hash_node_baseEE10pointer_toERS2_,comdat
	.weak	_ZNSt14pointer_traitsIPPNSt8__detail15_Hash_node_baseEE10pointer_toERS2_
	.type	_ZNSt14pointer_traitsIPPNSt8__detail15_Hash_node_baseEE10pointer_toERS2_, @function
_ZNSt14pointer_traitsIPPNSt8__detail15_Hash_node_baseEE10pointer_toERS2_:
.LFB15217:
	.loc 13 149 7
	.cfi_startproc
	endbr64
	pushq	%rbp
	.cfi_def_cfa_offset 16
	.cfi_offset 6, -16
	movq	%rsp, %rbp
	.cfi_def_cfa_register 6
	subq	$16, %rsp
	movq	%rdi, -8(%rbp)
	.loc 13 150 30
	movq	-8(%rbp), %rax
	movq	%rax, %rdi
	call	_ZSt9addressofIPNSt8__detail15_Hash_node_baseEEPT_RS3_
	.loc 13 150 37
	leave
	.cfi_def_cfa 7, 8
	ret
	.cfi_endproc
.LFE15217:
	.size	_ZNSt14pointer_traitsIPPNSt8__detail15_Hash_node_baseEE10pointer_toERS2_, .-_ZNSt14pointer_traitsIPPNSt8__detail15_Hash_node_baseEE10pointer_toERS2_
	.section	.text._ZNSt8__detail16_Hashtable_allocISaINS_10_Hash_nodeISt4pairIKNSt7__cxx1112basic_stringIcSt11char_traitsIcESaIcEEESt6vectorIP8TinyblobSaISC_EEELb1EEEEE21_M_deallocate_bucketsEPPNS_15_Hash_node_baseEm,"axG",@progbits,_ZNSt8__detail16_Hashtable_allocISaINS_10_Hash_nodeISt4pairIKNSt7__cxx1112basic_stringIcSt11char_traitsIcESaIcEEESt6vectorIP8TinyblobSaISC_EEELb1EEEEE21_M_deallocate_bucketsEPPNS_15_Hash_node_baseEm,comdat
	.align 2
	.weak	_ZNSt8__detail16_Hashtable_allocISaINS_10_Hash_nodeISt4pairIKNSt7__cxx1112basic_stringIcSt11char_traitsIcESaIcEEESt6vectorIP8TinyblobSaISC_EEELb1EEEEE21_M_deallocate_bucketsEPPNS_15_Hash_node_baseEm
	.type	_ZNSt8__detail16_Hashtable_allocISaINS_10_Hash_nodeISt4pairIKNSt7__cxx1112basic_stringIcSt11char_traitsIcESaIcEEESt6vectorIP8TinyblobSaISC_EEELb1EEEEE21_M_deallocate_bucketsEPPNS_15_Hash_node_baseEm, @function
_ZNSt8__detail16_Hashtable_allocISaINS_10_Hash_nodeISt4pairIKNSt7__cxx1112basic_stringIcSt11char_traitsIcESaIcEEESt6vectorIP8TinyblobSaISC_EEELb1EEEEE21_M_deallocate_bucketsEPPNS_15_Hash_node_baseEm:
.LFB15216:
	.loc 3 1935 5
	.cfi_startproc
	.cfi_personality 0x9b,DW.ref.__gxx_personality_v0
	.cfi_lsda 0x1b,.LLSDA15216
	endbr64
	pushq	%rbp
	.cfi_def_cfa_offset 16
	.cfi_offset 6, -16
	movq	%rsp, %rbp
	.cfi_def_cfa_register 6
	pushq	%rbx
	subq	$72, %rsp
	.cfi_offset 3, -24
	movq	%rdi, -56(%rbp)
	movq	%rsi, -64(%rbp)
	movq	%rdx, -72(%rbp)
	.loc 3 1935 5
	movq	%fs:40, %rax
	movq	%rax, -24(%rbp)
	xorl	%eax, %eax
	.loc 3 1940 57
	movq	-64(%rbp), %rax
	movq	%rax, %rdi
	call	_ZNSt14pointer_traitsIPPNSt8__detail15_Hash_node_baseEE10pointer_toERS2_
	movq	%rax, -32(%rbp)
	.loc 3 1941 53
	movq	-56(%rbp), %rax
	movq	%rax, %rdi
.LEHB3:
	call	_ZNSt8__detail16_Hashtable_allocISaINS_10_Hash_nodeISt4pairIKNSt7__cxx1112basic_stringIcSt11char_traitsIcESaIcEEESt6vectorIP8TinyblobSaISC_EEELb1EEEEE17_M_node_allocatorEv
.LEHE3:
	movq	%rax, %rdx
	.loc 3 1941 28
	leaq	-33(%rbp), %rax
	movq	%rdx, %rsi
	movq	%rax, %rdi
	call	_ZNSaIPNSt8__detail15_Hash_node_baseEEC1INS_10_Hash_nodeISt4pairIKNSt7__cxx1112basic_stringIcSt11char_traitsIcESaIcEEESt6vectorIP8TinyblobSaISF_EEELb1EEEEERKSaIT_E
	.loc 3 1942 41
	movq	-72(%rbp), %rdx
	movq	-32(%rbp), %rcx
	leaq	-33(%rbp), %rax
	movq	%rcx, %rsi
	movq	%rax, %rdi
.LEHB4:
	call	_ZNSt16allocator_traitsISaIPNSt8__detail15_Hash_node_baseEEE10deallocateERS3_PS2_m
.LEHE4:
	.loc 3 1943 5
	leaq	-33(%rbp), %rax
	movq	%rax, %rdi
	call	_ZNSaIPNSt8__detail15_Hash_node_baseEED1Ev
	movq	-24(%rbp), %rax
	subq	%fs:40, %rax
	je	.L104
	jmp	.L106
.L105:
	endbr64
	movq	%rax, %rbx
	leaq	-33(%rbp), %rax
	movq	%rax, %rdi
	call	_ZNSaIPNSt8__detail15_Hash_node_baseEED1Ev
	movq	%rbx, %rax
	movq	%rax, %rdi
.LEHB5:
	call	_Unwind_Resume@PLT
.LEHE5:
.L106:
	call	__stack_chk_fail@PLT
.L104:
	movq	-8(%rbp), %rbx
	leave
	.cfi_def_cfa 7, 8
	ret
	.cfi_endproc
.LFE15216:
	.section	.gcc_except_table
.LLSDA15216:
	.byte	0xff
	.byte	0xff
	.byte	0x1
	.uleb128 .LLSDACSE15216-.LLSDACSB15216
.LLSDACSB15216:
	.uleb128 .LEHB3-.LFB15216
	.uleb128 .LEHE3-.LEHB3
	.uleb128 0
	.uleb128 0
	.uleb128 .LEHB4-.LFB15216
	.uleb128 .LEHE4-.LEHB4
	.uleb128 .L105-.LFB15216
	.uleb128 0
	.uleb128 .LEHB5-.LFB15216
	.uleb128 .LEHE5-.LEHB5
	.uleb128 0
	.uleb128 0
.LLSDACSE15216:
	.section	.text._ZNSt8__detail16_Hashtable_allocISaINS_10_Hash_nodeISt4pairIKNSt7__cxx1112basic_stringIcSt11char_traitsIcESaIcEEESt6vectorIP8TinyblobSaISC_EEELb1EEEEE21_M_deallocate_bucketsEPPNS_15_Hash_node_baseEm,"axG",@progbits,_ZNSt8__detail16_Hashtable_allocISaINS_10_Hash_nodeISt4pairIKNSt7__cxx1112basic_stringIcSt11char_traitsIcESaIcEEESt6vectorIP8TinyblobSaISC_EEELb1EEEEE21_M_deallocate_bucketsEPPNS_15_Hash_node_baseEm,comdat
	.size	_ZNSt8__detail16_Hashtable_allocISaINS_10_Hash_nodeISt4pairIKNSt7__cxx1112basic_stringIcSt11char_traitsIcESaIcEEESt6vectorIP8TinyblobSaISC_EEELb1EEEEE21_M_deallocate_bucketsEPPNS_15_Hash_node_baseEm, .-_ZNSt8__detail16_Hashtable_allocISaINS_10_Hash_nodeISt4pairIKNSt7__cxx1112basic_stringIcSt11char_traitsIcESaIcEEESt6vectorIP8TinyblobSaISC_EEELb1EEEEE21_M_deallocate_bucketsEPPNS_15_Hash_node_baseEm
	.section	.text._ZNSt12_Destroy_auxILb0EE9__destroyIPP8TinyblobEEvT_S5_,"axG",@progbits,_ZNSt12_Destroy_auxILb0EE9__destroyIPP8TinyblobEEvT_S5_,comdat
	.weak	_ZNSt12_Destroy_auxILb0EE9__destroyIPP8TinyblobEEvT_S5_
	.type	_ZNSt12_Destroy_auxILb0EE9__destroyIPP8TinyblobEEvT_S5_, @function
_ZNSt12_Destroy_auxILb0EE9__destroyIPP8TinyblobEEvT_S5_:
.LFB15219:
	.loc 15 160 2
	.cfi_startproc
	endbr64
	pushq	%rbp
	.cfi_def_cfa_offset 16
	.cfi_offset 6, -16
	movq	%rsp, %rbp
	.cfi_def_cfa_register 6
	subq	$16, %rsp
	movq	%rdi, -8(%rbp)
	movq	%rsi, -16(%rbp)
	.loc 15 162 4
	jmp	.L108
.L109:
	.loc 15 163 19 discriminator 2
	movq	-8(%rbp), %rax
	movq	%rax, %rdi
	call	_ZSt11__addressofIP8TinyblobEPT_RS2_
	movq	%rax, %rdi
	call	_ZSt8_DestroyIP8TinyblobEvPT_
	.loc 15 162 4 discriminator 2
	addq	$8, -8(%rbp)
.L108:
	.loc 15 162 19 discriminator 1
	movq	-8(%rbp), %rax
	cmpq	-16(%rbp), %rax
	jne	.L109
	.loc 15 164 2
	nop
	nop
	leave
	.cfi_def_cfa 7, 8
	ret
	.cfi_endproc
.LFE15219:
	.size	_ZNSt12_Destroy_auxILb0EE9__destroyIPP8TinyblobEEvT_S5_, .-_ZNSt12_Destroy_auxILb0EE9__destroyIPP8TinyblobEEvT_S5_
	.section	.text._ZNSt12_Destroy_auxILb1EE9__destroyIPP8TinyblobEEvT_S5_,"axG",@progbits,_ZNSt12_Destroy_auxILb1EE9__destroyIPP8TinyblobEEvT_S5_,comdat
	.weak	_ZNSt12_Destroy_auxILb1EE9__destroyIPP8TinyblobEEvT_S5_
	.type	_ZNSt12_Destroy_auxILb1EE9__destroyIPP8TinyblobEEvT_S5_, @function
_ZNSt12_Destroy_auxILb1EE9__destroyIPP8TinyblobEEvT_S5_:
.LFB15220:
	.loc 15 172 9
	.cfi_startproc
	endbr64
	pushq	%rbp
	.cfi_def_cfa_offset 16
	.cfi_offset 6, -16
	movq	%rsp, %rbp
	.cfi_def_cfa_register 6
	movq	%rdi, -8(%rbp)
	movq	%rsi, -16(%rbp)
	.loc 15 172 57
	nop
	popq	%rbp
	.cfi_def_cfa 7, 8
	ret
	.cfi_endproc
.LFE15220:
	.size	_ZNSt12_Destroy_auxILb1EE9__destroyIPP8TinyblobEEvT_S5_, .-_ZNSt12_Destroy_auxILb1EE9__destroyIPP8TinyblobEEvT_S5_
	.section	.text._ZSt11__addressofIcEPT_RS0_,"axG",@progbits,_ZSt11__addressofIcEPT_RS0_,comdat
	.weak	_ZSt11__addressofIcEPT_RS0_
	.type	_ZSt11__addressofIcEPT_RS0_, @function
_ZSt11__addressofIcEPT_RS0_:
.LFB15231:
	.loc 11 49 5
	.cfi_startproc
	endbr64
	pushq	%rbp
	.cfi_def_cfa_offset 16
	.cfi_offset 6, -16
	movq	%rsp, %rbp
	.cfi_def_cfa_register 6
	movq	%rdi, -8(%rbp)
	.loc 11 50 37
	movq	-8(%rbp), %rax
	.loc 11 50 40
	popq	%rbp
	.cfi_def_cfa 7, 8
	ret
	.cfi_endproc
.LFE15231:
	.size	_ZSt11__addressofIcEPT_RS0_, .-_ZSt11__addressofIcEPT_RS0_
	.section	.text._ZSt9addressofIKcEPT_RS1_,"axG",@progbits,_ZSt9addressofIKcEPT_RS1_,comdat
	.weak	_ZSt9addressofIKcEPT_RS1_
	.type	_ZSt9addressofIKcEPT_RS1_, @function
_ZSt9addressofIKcEPT_RS1_:
.LFB15233:
	.loc 11 145 5
	.cfi_startproc
	endbr64
	pushq	%rbp
	.cfi_def_cfa_offset 16
	.cfi_offset 6, -16
	movq	%rsp, %rbp
	.cfi_def_cfa_register 6
	subq	$16, %rsp
	movq	%rdi, -8(%rbp)
	.loc 11 146 30
	movq	-8(%rbp), %rax
	movq	%rax, %rdi
	call	_ZSt11__addressofIKcEPT_RS1_
	.loc 11 146 37
	leave
	.cfi_def_cfa 7, 8
	ret
	.cfi_endproc
.LFE15233:
	.size	_ZSt9addressofIKcEPT_RS1_, .-_ZSt9addressofIKcEPT_RS1_
	.section	.text._ZN9__gnu_cxx13new_allocatorIcE10deallocateEPcm,"axG",@progbits,_ZN9__gnu_cxx13new_allocatorIcE10deallocateEPcm,comdat
	.align 2
	.weak	_ZN9__gnu_cxx13new_allocatorIcE10deallocateEPcm
	.type	_ZN9__gnu_cxx13new_allocatorIcE10deallocateEPcm, @function
_ZN9__gnu_cxx13new_allocatorIcE10deallocateEPcm:
.LFB15329:
	.loc 14 132 7
	.cfi_startproc
	endbr64
	pushq	%rbp
	.cfi_def_cfa_offset 16
	.cfi_offset 6, -16
	movq	%rsp, %rbp
	.cfi_def_cfa_register 6
	subq	$32, %rsp
	movq	%rdi, -8(%rbp)
	movq	%rsi, -16(%rbp)
	movq	%rdx, -24(%rbp)
	.loc 14 145 19
	movq	-24(%rbp), %rdx
	movq	-16(%rbp), %rax
	movq	%rdx, %rsi
	movq	%rax, %rdi
	call	_ZdlPvm@PLT
	.loc 14 150 7
	leave
	.cfi_def_cfa 7, 8
	ret
	.cfi_endproc
.LFE15329:
	.size	_ZN9__gnu_cxx13new_allocatorIcE10deallocateEPcm, .-_ZN9__gnu_cxx13new_allocatorIcE10deallocateEPcm
	.section	.text._ZNSt8__detail16_Hashtable_allocISaINS_10_Hash_nodeISt4pairIKNSt7__cxx1112basic_stringIcSt11char_traitsIcESaIcEEESt6vectorIP8TinyblobSaISC_EEELb1EEEEE17_M_node_allocatorEv,"axG",@progbits,_ZNSt8__detail16_Hashtable_allocISaINS_10_Hash_nodeISt4pairIKNSt7__cxx1112basic_stringIcSt11char_traitsIcESaIcEEESt6vectorIP8TinyblobSaISC_EEELb1EEEEE17_M_node_allocatorEv,comdat
	.align 2
	.weak	_ZNSt8__detail16_Hashtable_allocISaINS_10_Hash_nodeISt4pairIKNSt7__cxx1112basic_stringIcSt11char_traitsIcESaIcEEESt6vectorIP8TinyblobSaISC_EEELb1EEEEE17_M_node_allocatorEv
	.type	_ZNSt8__detail16_Hashtable_allocISaINS_10_Hash_nodeISt4pairIKNSt7__cxx1112basic_stringIcSt11char_traitsIcESaIcEEESt6vectorIP8TinyblobSaISC_EEELb1EEEEE17_M_node_allocatorEv, @function
_ZNSt8__detail16_Hashtable_allocISaINS_10_Hash_nodeISt4pairIKNSt7__cxx1112basic_stringIcSt11char_traitsIcESaIcEEESt6vectorIP8TinyblobSaISC_EEELb1EEEEE17_M_node_allocatorEv:
.LFB15341:
	.loc 3 1833 7
	.cfi_startproc
	endbr64
	pushq	%rbp
	.cfi_def_cfa_offset 16
	.cfi_offset 6, -16
	movq	%rsp, %rbp
	.cfi_def_cfa_register 6
	subq	$16, %rsp
	movq	%rdi, -8(%rbp)
	.loc 3 1834 40
	movq	-8(%rbp), %rax
	movq	%rax, %rdi
	call	_ZNSt8__detail21_Hashtable_ebo_helperILi0ESaINS_10_Hash_nodeISt4pairIKNSt7__cxx1112basic_stringIcSt11char_traitsIcESaIcEEESt6vectorIP8TinyblobSaISC_EEELb1EEEELb1EE6_M_getEv
	.loc 3 1834 44
	leave
	.cfi_def_cfa 7, 8
	ret
	.cfi_endproc
.LFE15341:
	.size	_ZNSt8__detail16_Hashtable_allocISaINS_10_Hash_nodeISt4pairIKNSt7__cxx1112basic_stringIcSt11char_traitsIcESaIcEEESt6vectorIP8TinyblobSaISC_EEELb1EEEEE17_M_node_allocatorEv, .-_ZNSt8__detail16_Hashtable_allocISaINS_10_Hash_nodeISt4pairIKNSt7__cxx1112basic_stringIcSt11char_traitsIcESaIcEEESt6vectorIP8TinyblobSaISC_EEELb1EEEEE17_M_node_allocatorEv
	.section	.text._ZNSt8__detail21_Hash_node_value_baseISt4pairIKNSt7__cxx1112basic_stringIcSt11char_traitsIcESaIcEEESt6vectorIP8TinyblobSaISB_EEEE9_M_valptrEv,"axG",@progbits,_ZNSt8__detail21_Hash_node_value_baseISt4pairIKNSt7__cxx1112basic_stringIcSt11char_traitsIcESaIcEEESt6vectorIP8TinyblobSaISB_EEEE9_M_valptrEv,comdat
	.align 2
	.weak	_ZNSt8__detail21_Hash_node_value_baseISt4pairIKNSt7__cxx1112basic_stringIcSt11char_traitsIcESaIcEEESt6vectorIP8TinyblobSaISB_EEEE9_M_valptrEv
	.type	_ZNSt8__detail21_Hash_node_value_baseISt4pairIKNSt7__cxx1112basic_stringIcSt11char_traitsIcESaIcEEESt6vectorIP8TinyblobSaISB_EEEE9_M_valptrEv, @function
_ZNSt8__detail21_Hash_node_value_baseISt4pairIKNSt7__cxx1112basic_stringIcSt11char_traitsIcESaIcEEESt6vectorIP8TinyblobSaISB_EEEE9_M_valptrEv:
.LFB15342:
	.loc 3 237 7
	.cfi_startproc
	endbr64
	pushq	%rbp
	.cfi_def_cfa_offset 16
	.cfi_offset 6, -16
	movq	%rsp, %rbp
	.cfi_def_cfa_register 6
	subq	$16, %rsp
	movq	%rdi, -8(%rbp)
	.loc 3 238 33
	movq	-8(%rbp), %rax
	movq	%rax, %rdi
	call	_ZN9__gnu_cxx16__aligned_bufferISt4pairIKNSt7__cxx1112basic_stringIcSt11char_traitsIcESaIcEEESt6vectorIP8TinyblobSaISB_EEEE6_M_ptrEv
	.loc 3 238 37
	leave
	.cfi_def_cfa 7, 8
	ret
	.cfi_endproc
.LFE15342:
	.size	_ZNSt8__detail21_Hash_node_value_baseISt4pairIKNSt7__cxx1112basic_stringIcSt11char_traitsIcESaIcEEESt6vectorIP8TinyblobSaISB_EEEE9_M_valptrEv, .-_ZNSt8__detail21_Hash_node_value_baseISt4pairIKNSt7__cxx1112basic_stringIcSt11char_traitsIcESaIcEEESt6vectorIP8TinyblobSaISB_EEEE9_M_valptrEv
	.section	.text._ZNSt16allocator_traitsISaINSt8__detail10_Hash_nodeISt4pairIKNSt7__cxx1112basic_stringIcSt11char_traitsIcESaIcEEESt6vectorIP8TinyblobSaISC_EEELb1EEEEE7destroyISF_EEvRSH_PT_,"axG",@progbits,_ZNSt16allocator_traitsISaINSt8__detail10_Hash_nodeISt4pairIKNSt7__cxx1112basic_stringIcSt11char_traitsIcESaIcEEESt6vectorIP8TinyblobSaISC_EEELb1EEEEE7destroyISF_EEvRSH_PT_,comdat
	.weak	_ZNSt16allocator_traitsISaINSt8__detail10_Hash_nodeISt4pairIKNSt7__cxx1112basic_stringIcSt11char_traitsIcESaIcEEESt6vectorIP8TinyblobSaISC_EEELb1EEEEE7destroyISF_EEvRSH_PT_
	.type	_ZNSt16allocator_traitsISaINSt8__detail10_Hash_nodeISt4pairIKNSt7__cxx1112basic_stringIcSt11char_traitsIcESaIcEEESt6vectorIP8TinyblobSaISC_EEELb1EEEEE7destroyISF_EEvRSH_PT_, @function
_ZNSt16allocator_traitsISaINSt8__detail10_Hash_nodeISt4pairIKNSt7__cxx1112basic_stringIcSt11char_traitsIcESaIcEEESt6vectorIP8TinyblobSaISC_EEELb1EEEEE7destroyISF_EEvRSH_PT_:
.LFB15343:
	.loc 12 531 2
	.cfi_startproc
	endbr64
	pushq	%rbp
	.cfi_def_cfa_offset 16
	.cfi_offset 6, -16
	movq	%rsp, %rbp
	.cfi_def_cfa_register 6
	subq	$16, %rsp
	movq	%rdi, -8(%rbp)
	movq	%rsi, -16(%rbp)
	.loc 12 537 19
	movq	-16(%rbp), %rax
	movq	%rax, %rdi
	call	_ZSt10destroy_atISt4pairIKNSt7__cxx1112basic_stringIcSt11char_traitsIcESaIcEEESt6vectorIP8TinyblobSaISA_EEEEvPT_
	.loc 12 539 2
	nop
	leave
	.cfi_def_cfa 7, 8
	ret
	.cfi_endproc
.LFE15343:
	.size	_ZNSt16allocator_traitsISaINSt8__detail10_Hash_nodeISt4pairIKNSt7__cxx1112basic_stringIcSt11char_traitsIcESaIcEEESt6vectorIP8TinyblobSaISC_EEELb1EEEEE7destroyISF_EEvRSH_PT_, .-_ZNSt16allocator_traitsISaINSt8__detail10_Hash_nodeISt4pairIKNSt7__cxx1112basic_stringIcSt11char_traitsIcESaIcEEESt6vectorIP8TinyblobSaISC_EEELb1EEEEE7destroyISF_EEvRSH_PT_
	.section	.text._ZNSt14pointer_traitsIPNSt8__detail10_Hash_nodeISt4pairIKNSt7__cxx1112basic_stringIcSt11char_traitsIcESaIcEEESt6vectorIP8TinyblobSaISC_EEELb1EEEE10pointer_toERSG_,"axG",@progbits,_ZNSt14pointer_traitsIPNSt8__detail10_Hash_nodeISt4pairIKNSt7__cxx1112basic_stringIcSt11char_traitsIcESaIcEEESt6vectorIP8TinyblobSaISC_EEELb1EEEE10pointer_toERSG_,comdat
	.weak	_ZNSt14pointer_traitsIPNSt8__detail10_Hash_nodeISt4pairIKNSt7__cxx1112basic_stringIcSt11char_traitsIcESaIcEEESt6vectorIP8TinyblobSaISC_EEELb1EEEE10pointer_toERSG_
	.type	_ZNSt14pointer_traitsIPNSt8__detail10_Hash_nodeISt4pairIKNSt7__cxx1112basic_stringIcSt11char_traitsIcESaIcEEESt6vectorIP8TinyblobSaISC_EEELb1EEEE10pointer_toERSG_, @function
_ZNSt14pointer_traitsIPNSt8__detail10_Hash_nodeISt4pairIKNSt7__cxx1112basic_stringIcSt11char_traitsIcESaIcEEESt6vectorIP8TinyblobSaISC_EEELb1EEEE10pointer_toERSG_:
.LFB15345:
	.loc 13 149 7
	.cfi_startproc
	endbr64
	pushq	%rbp
	.cfi_def_cfa_offset 16
	.cfi_offset 6, -16
	movq	%rsp, %rbp
	.cfi_def_cfa_register 6
	subq	$16, %rsp
	movq	%rdi, -8(%rbp)
	.loc 13 150 30
	movq	-8(%rbp), %rax
	movq	%rax, %rdi
	call	_ZSt9addressofINSt8__detail10_Hash_nodeISt4pairIKNSt7__cxx1112basic_stringIcSt11char_traitsIcESaIcEEESt6vectorIP8TinyblobSaISC_EEELb1EEEEPT_RSH_
	.loc 13 150 37
	leave
	.cfi_def_cfa 7, 8
	ret
	.cfi_endproc
.LFE15345:
	.size	_ZNSt14pointer_traitsIPNSt8__detail10_Hash_nodeISt4pairIKNSt7__cxx1112basic_stringIcSt11char_traitsIcESaIcEEESt6vectorIP8TinyblobSaISC_EEELb1EEEE10pointer_toERSG_, .-_ZNSt14pointer_traitsIPNSt8__detail10_Hash_nodeISt4pairIKNSt7__cxx1112basic_stringIcSt11char_traitsIcESaIcEEESt6vectorIP8TinyblobSaISC_EEELb1EEEE10pointer_toERSG_
	.section	.text._ZNSt8__detail16_Hashtable_allocISaINS_10_Hash_nodeISt4pairIKNSt7__cxx1112basic_stringIcSt11char_traitsIcESaIcEEESt6vectorIP8TinyblobSaISC_EEELb1EEEEE22_M_deallocate_node_ptrEPSG_,"axG",@progbits,_ZNSt8__detail16_Hashtable_allocISaINS_10_Hash_nodeISt4pairIKNSt7__cxx1112basic_stringIcSt11char_traitsIcESaIcEEESt6vectorIP8TinyblobSaISC_EEELb1EEEEE22_M_deallocate_node_ptrEPSG_,comdat
	.align 2
	.weak	_ZNSt8__detail16_Hashtable_allocISaINS_10_Hash_nodeISt4pairIKNSt7__cxx1112basic_stringIcSt11char_traitsIcESaIcEEESt6vectorIP8TinyblobSaISC_EEELb1EEEEE22_M_deallocate_node_ptrEPSG_
	.type	_ZNSt8__detail16_Hashtable_allocISaINS_10_Hash_nodeISt4pairIKNSt7__cxx1112basic_stringIcSt11char_traitsIcESaIcEEESt6vectorIP8TinyblobSaISC_EEELb1EEEEE22_M_deallocate_node_ptrEPSG_, @function
_ZNSt8__detail16_Hashtable_allocISaINS_10_Hash_nodeISt4pairIKNSt7__cxx1112basic_stringIcSt11char_traitsIcESaIcEEESt6vectorIP8TinyblobSaISC_EEELb1EEEEE22_M_deallocate_node_ptrEPSG_:
.LFB15344:
	.loc 3 1900 5
	.cfi_startproc
	endbr64
	pushq	%rbp
	.cfi_def_cfa_offset 16
	.cfi_offset 6, -16
	movq	%rsp, %rbp
	.cfi_def_cfa_register 6
	subq	$32, %rsp
	movq	%rdi, -24(%rbp)
	movq	%rsi, -32(%rbp)
	.loc 3 1903 57
	movq	-32(%rbp), %rax
	movq	%rax, %rdi
	call	_ZNSt14pointer_traitsIPNSt8__detail10_Hash_nodeISt4pairIKNSt7__cxx1112basic_stringIcSt11char_traitsIcESaIcEEESt6vectorIP8TinyblobSaISC_EEELb1EEEE10pointer_toERSG_
	movq	%rax, -8(%rbp)
	.loc 3 1905 56
	movq	-24(%rbp), %rax
	movq	%rax, %rdi
	call	_ZNSt8__detail16_Hashtable_allocISaINS_10_Hash_nodeISt4pairIKNSt7__cxx1112basic_stringIcSt11char_traitsIcESaIcEEESt6vectorIP8TinyblobSaISC_EEELb1EEEEE17_M_node_allocatorEv
	movq	%rax, %rcx
	.loc 3 1905 38
	movq	-8(%rbp), %rax
	movl	$1, %edx
	movq	%rax, %rsi
	movq	%rcx, %rdi
	call	_ZNSt16allocator_traitsISaINSt8__detail10_Hash_nodeISt4pairIKNSt7__cxx1112basic_stringIcSt11char_traitsIcESaIcEEESt6vectorIP8TinyblobSaISC_EEELb1EEEEE10deallocateERSH_PSG_m
	.loc 3 1906 5
	nop
	leave
	.cfi_def_cfa 7, 8
	ret
	.cfi_endproc
.LFE15344:
	.size	_ZNSt8__detail16_Hashtable_allocISaINS_10_Hash_nodeISt4pairIKNSt7__cxx1112basic_stringIcSt11char_traitsIcESaIcEEESt6vectorIP8TinyblobSaISC_EEELb1EEEEE22_M_deallocate_node_ptrEPSG_, .-_ZNSt8__detail16_Hashtable_allocISaINS_10_Hash_nodeISt4pairIKNSt7__cxx1112basic_stringIcSt11char_traitsIcESaIcEEESt6vectorIP8TinyblobSaISC_EEELb1EEEEE22_M_deallocate_node_ptrEPSG_
	.section	.text._ZSt9addressofIPNSt8__detail15_Hash_node_baseEEPT_RS3_,"axG",@progbits,_ZSt9addressofIPNSt8__detail15_Hash_node_baseEEPT_RS3_,comdat
	.weak	_ZSt9addressofIPNSt8__detail15_Hash_node_baseEEPT_RS3_
	.type	_ZSt9addressofIPNSt8__detail15_Hash_node_baseEEPT_RS3_, @function
_ZSt9addressofIPNSt8__detail15_Hash_node_baseEEPT_RS3_:
.LFB15346:
	.loc 11 145 5
	.cfi_startproc
	endbr64
	pushq	%rbp
	.cfi_def_cfa_offset 16
	.cfi_offset 6, -16
	movq	%rsp, %rbp
	.cfi_def_cfa_register 6
	subq	$16, %rsp
	movq	%rdi, -8(%rbp)
	.loc 11 146 30
	movq	-8(%rbp), %rax
	movq	%rax, %rdi
	call	_ZSt11__addressofIPNSt8__detail15_Hash_node_baseEEPT_RS3_
	.loc 11 146 37
	leave
	.cfi_def_cfa 7, 8
	ret
	.cfi_endproc
.LFE15346:
	.size	_ZSt9addressofIPNSt8__detail15_Hash_node_baseEEPT_RS3_, .-_ZSt9addressofIPNSt8__detail15_Hash_node_baseEEPT_RS3_
	.section	.text._ZNSaIPNSt8__detail15_Hash_node_baseEEC2INS_10_Hash_nodeISt4pairIKNSt7__cxx1112basic_stringIcSt11char_traitsIcESaIcEEESt6vectorIP8TinyblobSaISF_EEELb1EEEEERKSaIT_E,"axG",@progbits,_ZNSaIPNSt8__detail15_Hash_node_baseEEC5INS_10_Hash_nodeISt4pairIKNSt7__cxx1112basic_stringIcSt11char_traitsIcESaIcEEESt6vectorIP8TinyblobSaISF_EEELb1EEEEERKSaIT_E,comdat
	.align 2
	.weak	_ZNSaIPNSt8__detail15_Hash_node_baseEEC2INS_10_Hash_nodeISt4pairIKNSt7__cxx1112basic_stringIcSt11char_traitsIcESaIcEEESt6vectorIP8TinyblobSaISF_EEELb1EEEEERKSaIT_E
	.type	_ZNSaIPNSt8__detail15_Hash_node_baseEEC2INS_10_Hash_nodeISt4pairIKNSt7__cxx1112basic_stringIcSt11char_traitsIcESaIcEEESt6vectorIP8TinyblobSaISF_EEELb1EEEEERKSaIT_E, @function
_ZNSaIPNSt8__detail15_Hash_node_baseEEC2INS_10_Hash_nodeISt4pairIKNSt7__cxx1112basic_stringIcSt11char_traitsIcESaIcEEESt6vectorIP8TinyblobSaISF_EEELb1EEEEERKSaIT_E:
.LFB15348:
	.loc 10 169 2
	.cfi_startproc
	endbr64
	pushq	%rbp
	.cfi_def_cfa_offset 16
	.cfi_offset 6, -16
	movq	%rsp, %rbp
	.cfi_def_cfa_register 6
	subq	$16, %rsp
	movq	%rdi, -8(%rbp)
	movq	%rsi, -16(%rbp)
.LBB44:
	.loc 10 169 53
	movq	-8(%rbp), %rax
	movq	%rax, %rdi
	call	_ZN9__gnu_cxx13new_allocatorIPNSt8__detail15_Hash_node_baseEEC2Ev
.LBE44:
	.loc 10 169 55
	nop
	leave
	.cfi_def_cfa 7, 8
	ret
	.cfi_endproc
.LFE15348:
	.size	_ZNSaIPNSt8__detail15_Hash_node_baseEEC2INS_10_Hash_nodeISt4pairIKNSt7__cxx1112basic_stringIcSt11char_traitsIcESaIcEEESt6vectorIP8TinyblobSaISF_EEELb1EEEEERKSaIT_E, .-_ZNSaIPNSt8__detail15_Hash_node_baseEEC2INS_10_Hash_nodeISt4pairIKNSt7__cxx1112basic_stringIcSt11char_traitsIcESaIcEEESt6vectorIP8TinyblobSaISF_EEELb1EEEEERKSaIT_E
	.weak	_ZNSaIPNSt8__detail15_Hash_node_baseEEC1INS_10_Hash_nodeISt4pairIKNSt7__cxx1112basic_stringIcSt11char_traitsIcESaIcEEESt6vectorIP8TinyblobSaISF_EEELb1EEEEERKSaIT_E
	.set	_ZNSaIPNSt8__detail15_Hash_node_baseEEC1INS_10_Hash_nodeISt4pairIKNSt7__cxx1112basic_stringIcSt11char_traitsIcESaIcEEESt6vectorIP8TinyblobSaISF_EEELb1EEEEERKSaIT_E,_ZNSaIPNSt8__detail15_Hash_node_baseEEC2INS_10_Hash_nodeISt4pairIKNSt7__cxx1112basic_stringIcSt11char_traitsIcESaIcEEESt6vectorIP8TinyblobSaISF_EEELb1EEEEERKSaIT_E
	.section	.text._ZNSaIPNSt8__detail15_Hash_node_baseEED2Ev,"axG",@progbits,_ZNSaIPNSt8__detail15_Hash_node_baseEED5Ev,comdat
	.align 2
	.weak	_ZNSaIPNSt8__detail15_Hash_node_baseEED2Ev
	.type	_ZNSaIPNSt8__detail15_Hash_node_baseEED2Ev, @function
_ZNSaIPNSt8__detail15_Hash_node_baseEED2Ev:
.LFB15351:
	.loc 10 174 7
	.cfi_startproc
	endbr64
	pushq	%rbp
	.cfi_def_cfa_offset 16
	.cfi_offset 6, -16
	movq	%rsp, %rbp
	.cfi_def_cfa_register 6
	movq	%rdi, -8(%rbp)
	.loc 10 174 39
	nop
	popq	%rbp
	.cfi_def_cfa 7, 8
	ret
	.cfi_endproc
.LFE15351:
	.size	_ZNSaIPNSt8__detail15_Hash_node_baseEED2Ev, .-_ZNSaIPNSt8__detail15_Hash_node_baseEED2Ev
	.weak	_ZNSaIPNSt8__detail15_Hash_node_baseEED1Ev
	.set	_ZNSaIPNSt8__detail15_Hash_node_baseEED1Ev,_ZNSaIPNSt8__detail15_Hash_node_baseEED2Ev
	.section	.text._ZNSt16allocator_traitsISaIPNSt8__detail15_Hash_node_baseEEE10deallocateERS3_PS2_m,"axG",@progbits,_ZNSt16allocator_traitsISaIPNSt8__detail15_Hash_node_baseEEE10deallocateERS3_PS2_m,comdat
	.weak	_ZNSt16allocator_traitsISaIPNSt8__detail15_Hash_node_baseEEE10deallocateERS3_PS2_m
	.type	_ZNSt16allocator_traitsISaIPNSt8__detail15_Hash_node_baseEEE10deallocateERS3_PS2_m, @function
_ZNSt16allocator_traitsISaIPNSt8__detail15_Hash_node_baseEEE10deallocateERS3_PS2_m:
.LFB15353:
	.loc 12 495 7
	.cfi_startproc
	endbr64
	pushq	%rbp
	.cfi_def_cfa_offset 16
	.cfi_offset 6, -16
	movq	%rsp, %rbp
	.cfi_def_cfa_register 6
	subq	$64, %rsp
	movq	%rdi, -40(%rbp)
	movq	%rsi, -48(%rbp)
	movq	%rdx, -56(%rbp)
	movq	-40(%rbp), %rax
	movq	%rax, -24(%rbp)
	movq	-48(%rbp), %rax
	movq	%rax, -16(%rbp)
	movq	-56(%rbp), %rax
	movq	%rax, -8(%rbp)
.LBB45:
.LBB46:
	.loc 10 193 32
	call	_ZSt21is_constant_evaluatedv
	.loc 10 193 2
	testb	%al, %al
	je	.L130
	.loc 10 195 23
	movq	-16(%rbp), %rax
	movq	%rax, %rdi
	call	_ZdlPv@PLT
	.loc 10 196 6
	jmp	.L131
.L130:
	.loc 10 199 35
	movq	-8(%rbp), %rdx
	movq	-16(%rbp), %rcx
	movq	-24(%rbp), %rax
	movq	%rcx, %rsi
	movq	%rax, %rdi
	call	_ZN9__gnu_cxx13new_allocatorIPNSt8__detail15_Hash_node_baseEE10deallocateEPS3_m
.LBE46:
.LBE45:
	.loc 12 496 35
	nop
.L131:
	nop
	leave
	.cfi_def_cfa 7, 8
	ret
	.cfi_endproc
.LFE15353:
	.size	_ZNSt16allocator_traitsISaIPNSt8__detail15_Hash_node_baseEEE10deallocateERS3_PS2_m, .-_ZNSt16allocator_traitsISaIPNSt8__detail15_Hash_node_baseEEE10deallocateERS3_PS2_m
	.section	.text._ZN9__gnu_cxx13new_allocatorIP8TinyblobE10deallocateEPS2_m,"axG",@progbits,_ZN9__gnu_cxx13new_allocatorIP8TinyblobE10deallocateEPS2_m,comdat
	.align 2
	.weak	_ZN9__gnu_cxx13new_allocatorIP8TinyblobE10deallocateEPS2_m
	.type	_ZN9__gnu_cxx13new_allocatorIP8TinyblobE10deallocateEPS2_m, @function
_ZN9__gnu_cxx13new_allocatorIP8TinyblobE10deallocateEPS2_m:
.LFB15354:
	.loc 14 132 7
	.cfi_startproc
	endbr64
	pushq	%rbp
	.cfi_def_cfa_offset 16
	.cfi_offset 6, -16
	movq	%rsp, %rbp
	.cfi_def_cfa_register 6
	subq	$32, %rsp
	movq	%rdi, -8(%rbp)
	movq	%rsi, -16(%rbp)
	movq	%rdx, -24(%rbp)
	.loc 14 145 19
	movq	-24(%rbp), %rax
	leaq	0(,%rax,8), %rdx
	movq	-16(%rbp), %rax
	movq	%rdx, %rsi
	movq	%rax, %rdi
	call	_ZdlPvm@PLT
	.loc 14 150 7
	leave
	.cfi_def_cfa 7, 8
	ret
	.cfi_endproc
.LFE15354:
	.size	_ZN9__gnu_cxx13new_allocatorIP8TinyblobE10deallocateEPS2_m, .-_ZN9__gnu_cxx13new_allocatorIP8TinyblobE10deallocateEPS2_m
	.section	.text._ZSt11__addressofIP8TinyblobEPT_RS2_,"axG",@progbits,_ZSt11__addressofIP8TinyblobEPT_RS2_,comdat
	.weak	_ZSt11__addressofIP8TinyblobEPT_RS2_
	.type	_ZSt11__addressofIP8TinyblobEPT_RS2_, @function
_ZSt11__addressofIP8TinyblobEPT_RS2_:
.LFB15355:
	.loc 11 49 5
	.cfi_startproc
	endbr64
	pushq	%rbp
	.cfi_def_cfa_offset 16
	.cfi_offset 6, -16
	movq	%rsp, %rbp
	.cfi_def_cfa_register 6
	movq	%rdi, -8(%rbp)
	.loc 11 50 37
	movq	-8(%rbp), %rax
	.loc 11 50 40
	popq	%rbp
	.cfi_def_cfa 7, 8
	ret
	.cfi_endproc
.LFE15355:
	.size	_ZSt11__addressofIP8TinyblobEPT_RS2_, .-_ZSt11__addressofIP8TinyblobEPT_RS2_
	.section	.text._ZSt8_DestroyIP8TinyblobEvPT_,"axG",@progbits,_ZSt8_DestroyIP8TinyblobEvPT_,comdat
	.weak	_ZSt8_DestroyIP8TinyblobEvPT_
	.type	_ZSt8_DestroyIP8TinyblobEvPT_, @function
_ZSt8_DestroyIP8TinyblobEvPT_:
.LFB15356:
	.loc 15 146 5
	.cfi_startproc
	endbr64
	pushq	%rbp
	.cfi_def_cfa_offset 16
	.cfi_offset 6, -16
	movq	%rsp, %rbp
	.cfi_def_cfa_register 6
	subq	$16, %rsp
	movq	%rdi, -8(%rbp)
	.loc 15 149 22
	movq	-8(%rbp), %rax
	movq	%rax, %rdi
	call	_ZSt10destroy_atIP8TinyblobEvPT_
	.loc 15 153 5
	nop
	leave
	.cfi_def_cfa 7, 8
	ret
	.cfi_endproc
.LFE15356:
	.size	_ZSt8_DestroyIP8TinyblobEvPT_, .-_ZSt8_DestroyIP8TinyblobEvPT_
	.section	.text._ZSt11__addressofIKcEPT_RS1_,"axG",@progbits,_ZSt11__addressofIKcEPT_RS1_,comdat
	.weak	_ZSt11__addressofIKcEPT_RS1_
	.type	_ZSt11__addressofIKcEPT_RS1_, @function
_ZSt11__addressofIKcEPT_RS1_:
.LFB15357:
	.loc 11 49 5
	.cfi_startproc
	endbr64
	pushq	%rbp
	.cfi_def_cfa_offset 16
	.cfi_offset 6, -16
	movq	%rsp, %rbp
	.cfi_def_cfa_register 6
	movq	%rdi, -8(%rbp)
	.loc 11 50 37
	movq	-8(%rbp), %rax
	.loc 11 50 40
	popq	%rbp
	.cfi_def_cfa 7, 8
	ret
	.cfi_endproc
.LFE15357:
	.size	_ZSt11__addressofIKcEPT_RS1_, .-_ZSt11__addressofIKcEPT_RS1_
	.section	.text._ZNSt8__detail21_Hashtable_ebo_helperILi0ESaINS_10_Hash_nodeISt4pairIKNSt7__cxx1112basic_stringIcSt11char_traitsIcESaIcEEESt6vectorIP8TinyblobSaISC_EEELb1EEEELb1EE6_M_getEv,"axG",@progbits,_ZNSt8__detail21_Hashtable_ebo_helperILi0ESaINS_10_Hash_nodeISt4pairIKNSt7__cxx1112basic_stringIcSt11char_traitsIcESaIcEEESt6vectorIP8TinyblobSaISC_EEELb1EEEELb1EE6_M_getEv,comdat
	.align 2
	.weak	_ZNSt8__detail21_Hashtable_ebo_helperILi0ESaINS_10_Hash_nodeISt4pairIKNSt7__cxx1112basic_stringIcSt11char_traitsIcESaIcEEESt6vectorIP8TinyblobSaISC_EEELb1EEEELb1EE6_M_getEv
	.type	_ZNSt8__detail21_Hashtable_ebo_helperILi0ESaINS_10_Hash_nodeISt4pairIKNSt7__cxx1112basic_stringIcSt11char_traitsIcESaIcEEESt6vectorIP8TinyblobSaISC_EEELb1EEEELb1EE6_M_getEv, @function
_ZNSt8__detail21_Hashtable_ebo_helperILi0ESaINS_10_Hash_nodeISt4pairIKNSt7__cxx1112basic_stringIcSt11char_traitsIcESaIcEEESt6vectorIP8TinyblobSaISC_EEELb1EEEELb1EE6_M_getEv:
.LFB15473:
	.loc 3 1135 12
	.cfi_startproc
	endbr64
	pushq	%rbp
	.cfi_def_cfa_offset 16
	.cfi_offset 6, -16
	movq	%rsp, %rbp
	.cfi_def_cfa_register 6
	movq	%rdi, -8(%rbp)
	.loc 3 1135 53
	movq	-8(%rbp), %rax
	.loc 3 1135 56
	popq	%rbp
	.cfi_def_cfa 7, 8
	ret
	.cfi_endproc
.LFE15473:
	.size	_ZNSt8__detail21_Hashtable_ebo_helperILi0ESaINS_10_Hash_nodeISt4pairIKNSt7__cxx1112basic_stringIcSt11char_traitsIcESaIcEEESt6vectorIP8TinyblobSaISC_EEELb1EEEELb1EE6_M_getEv, .-_ZNSt8__detail21_Hashtable_ebo_helperILi0ESaINS_10_Hash_nodeISt4pairIKNSt7__cxx1112basic_stringIcSt11char_traitsIcESaIcEEESt6vectorIP8TinyblobSaISC_EEELb1EEEELb1EE6_M_getEv
	.section	.text._ZN9__gnu_cxx16__aligned_bufferISt4pairIKNSt7__cxx1112basic_stringIcSt11char_traitsIcESaIcEEESt6vectorIP8TinyblobSaISB_EEEE6_M_ptrEv,"axG",@progbits,_ZN9__gnu_cxx16__aligned_bufferISt4pairIKNSt7__cxx1112basic_stringIcSt11char_traitsIcESaIcEEESt6vectorIP8TinyblobSaISB_EEEE6_M_ptrEv,comdat
	.align 2
	.weak	_ZN9__gnu_cxx16__aligned_bufferISt4pairIKNSt7__cxx1112basic_stringIcSt11char_traitsIcESaIcEEESt6vectorIP8TinyblobSaISB_EEEE6_M_ptrEv
	.type	_ZN9__gnu_cxx16__aligned_bufferISt4pairIKNSt7__cxx1112basic_stringIcSt11char_traitsIcESaIcEEESt6vectorIP8TinyblobSaISB_EEEE6_M_ptrEv, @function
_ZN9__gnu_cxx16__aligned_bufferISt4pairIKNSt7__cxx1112basic_stringIcSt11char_traitsIcESaIcEEESt6vectorIP8TinyblobSaISB_EEEE6_M_ptrEv:
.LFB15474:
	.file 16 "/usr/include/c++/11/ext/aligned_buffer.h"
	.loc 16 114 7
	.cfi_startproc
	endbr64
	pushq	%rbp
	.cfi_def_cfa_offset 16
	.cfi_offset 6, -16
	movq	%rsp, %rbp
	.cfi_def_cfa_register 6
	subq	$16, %rsp
	movq	%rdi, -8(%rbp)
	.loc 16 115 41
	movq	-8(%rbp), %rax
	movq	%rax, %rdi
	call	_ZN9__gnu_cxx16__aligned_bufferISt4pairIKNSt7__cxx1112basic_stringIcSt11char_traitsIcESaIcEEESt6vectorIP8TinyblobSaISB_EEEE7_M_addrEv
	.loc 16 115 46
	leave
	.cfi_def_cfa 7, 8
	ret
	.cfi_endproc
.LFE15474:
	.size	_ZN9__gnu_cxx16__aligned_bufferISt4pairIKNSt7__cxx1112basic_stringIcSt11char_traitsIcESaIcEEESt6vectorIP8TinyblobSaISB_EEEE6_M_ptrEv, .-_ZN9__gnu_cxx16__aligned_bufferISt4pairIKNSt7__cxx1112basic_stringIcSt11char_traitsIcESaIcEEESt6vectorIP8TinyblobSaISB_EEEE6_M_ptrEv
	.section	.text._ZNSt4pairIKNSt7__cxx1112basic_stringIcSt11char_traitsIcESaIcEEESt6vectorIP8TinyblobSaIS9_EEED2Ev,"axG",@progbits,_ZNSt4pairIKNSt7__cxx1112basic_stringIcSt11char_traitsIcESaIcEEESt6vectorIP8TinyblobSaIS9_EEED5Ev,comdat
	.align 2
	.weak	_ZNSt4pairIKNSt7__cxx1112basic_stringIcSt11char_traitsIcESaIcEEESt6vectorIP8TinyblobSaIS9_EEED2Ev
	.type	_ZNSt4pairIKNSt7__cxx1112basic_stringIcSt11char_traitsIcESaIcEEESt6vectorIP8TinyblobSaIS9_EEED2Ev, @function
_ZNSt4pairIKNSt7__cxx1112basic_stringIcSt11char_traitsIcESaIcEEESt6vectorIP8TinyblobSaIS9_EEED2Ev:
.LFB15477:
	.file 17 "/usr/include/c++/11/bits/stl_pair.h"
	.loc 17 211 12
	.cfi_startproc
	endbr64
	pushq	%rbp
	.cfi_def_cfa_offset 16
	.cfi_offset 6, -16
	movq	%rsp, %rbp
	.cfi_def_cfa_register 6
	subq	$16, %rsp
	movq	%rdi, -8(%rbp)
.LBB47:
	.loc 17 211 12
	movq	-8(%rbp), %rax
	addq	$32, %rax
	movq	%rax, %rdi
	call	_ZNSt6vectorIP8TinyblobSaIS1_EED1Ev
	movq	-8(%rbp), %rax
	movq	%rax, %rdi
	call	_ZNSt7__cxx1112basic_stringIcSt11char_traitsIcESaIcEED1Ev
.LBE47:
	nop
	leave
	.cfi_def_cfa 7, 8
	ret
	.cfi_endproc
.LFE15477:
	.size	_ZNSt4pairIKNSt7__cxx1112basic_stringIcSt11char_traitsIcESaIcEEESt6vectorIP8TinyblobSaIS9_EEED2Ev, .-_ZNSt4pairIKNSt7__cxx1112basic_stringIcSt11char_traitsIcESaIcEEESt6vectorIP8TinyblobSaIS9_EEED2Ev
	.weak	_ZNSt4pairIKNSt7__cxx1112basic_stringIcSt11char_traitsIcESaIcEEESt6vectorIP8TinyblobSaIS9_EEED1Ev
	.set	_ZNSt4pairIKNSt7__cxx1112basic_stringIcSt11char_traitsIcESaIcEEESt6vectorIP8TinyblobSaIS9_EEED1Ev,_ZNSt4pairIKNSt7__cxx1112basic_stringIcSt11char_traitsIcESaIcEEESt6vectorIP8TinyblobSaIS9_EEED2Ev
	.section	.text._ZSt10destroy_atISt4pairIKNSt7__cxx1112basic_stringIcSt11char_traitsIcESaIcEEESt6vectorIP8TinyblobSaISA_EEEEvPT_,"axG",@progbits,_ZSt10destroy_atISt4pairIKNSt7__cxx1112basic_stringIcSt11char_traitsIcESaIcEEESt6vectorIP8TinyblobSaISA_EEEEvPT_,comdat
	.weak	_ZSt10destroy_atISt4pairIKNSt7__cxx1112basic_stringIcSt11char_traitsIcESaIcEEESt6vectorIP8TinyblobSaISA_EEEEvPT_
	.type	_ZSt10destroy_atISt4pairIKNSt7__cxx1112basic_stringIcSt11char_traitsIcESaIcEEESt6vectorIP8TinyblobSaISA_EEEEvPT_, @function
_ZSt10destroy_atISt4pairIKNSt7__cxx1112basic_stringIcSt11char_traitsIcESaIcEEESt6vectorIP8TinyblobSaISA_EEEEvPT_:
.LFB15475:
	.loc 15 80 5
	.cfi_startproc
	endbr64
	pushq	%rbp
	.cfi_def_cfa_offset 16
	.cfi_offset 6, -16
	movq	%rsp, %rbp
	.cfi_def_cfa_register 6
	subq	$16, %rsp
	movq	%rdi, -8(%rbp)
	.loc 15 88 18
	movq	-8(%rbp), %rax
	movq	%rax, %rdi
	call	_ZNSt4pairIKNSt7__cxx1112basic_stringIcSt11char_traitsIcESaIcEEESt6vectorIP8TinyblobSaIS9_EEED1Ev
	.loc 15 89 5
	nop
	leave
	.cfi_def_cfa 7, 8
	ret
	.cfi_endproc
.LFE15475:
	.size	_ZSt10destroy_atISt4pairIKNSt7__cxx1112basic_stringIcSt11char_traitsIcESaIcEEESt6vectorIP8TinyblobSaISA_EEEEvPT_, .-_ZSt10destroy_atISt4pairIKNSt7__cxx1112basic_stringIcSt11char_traitsIcESaIcEEESt6vectorIP8TinyblobSaISA_EEEEvPT_
	.section	.text._ZSt9addressofINSt8__detail10_Hash_nodeISt4pairIKNSt7__cxx1112basic_stringIcSt11char_traitsIcESaIcEEESt6vectorIP8TinyblobSaISC_EEELb1EEEEPT_RSH_,"axG",@progbits,_ZSt9addressofINSt8__detail10_Hash_nodeISt4pairIKNSt7__cxx1112basic_stringIcSt11char_traitsIcESaIcEEESt6vectorIP8TinyblobSaISC_EEELb1EEEEPT_RSH_,comdat
	.weak	_ZSt9addressofINSt8__detail10_Hash_nodeISt4pairIKNSt7__cxx1112basic_stringIcSt11char_traitsIcESaIcEEESt6vectorIP8TinyblobSaISC_EEELb1EEEEPT_RSH_
	.type	_ZSt9addressofINSt8__detail10_Hash_nodeISt4pairIKNSt7__cxx1112basic_stringIcSt11char_traitsIcESaIcEEESt6vectorIP8TinyblobSaISC_EEELb1EEEEPT_RSH_, @function
_ZSt9addressofINSt8__detail10_Hash_nodeISt4pairIKNSt7__cxx1112basic_stringIcSt11char_traitsIcESaIcEEESt6vectorIP8TinyblobSaISC_EEELb1EEEEPT_RSH_:
.LFB15479:
	.loc 11 145 5
	.cfi_startproc
	endbr64
	pushq	%rbp
	.cfi_def_cfa_offset 16
	.cfi_offset 6, -16
	movq	%rsp, %rbp
	.cfi_def_cfa_register 6
	subq	$16, %rsp
	movq	%rdi, -8(%rbp)
	.loc 11 146 30
	movq	-8(%rbp), %rax
	movq	%rax, %rdi
	call	_ZSt11__addressofINSt8__detail10_Hash_nodeISt4pairIKNSt7__cxx1112basic_stringIcSt11char_traitsIcESaIcEEESt6vectorIP8TinyblobSaISC_EEELb1EEEEPT_RSH_
	.loc 11 146 37
	leave
	.cfi_def_cfa 7, 8
	ret
	.cfi_endproc
.LFE15479:
	.size	_ZSt9addressofINSt8__detail10_Hash_nodeISt4pairIKNSt7__cxx1112basic_stringIcSt11char_traitsIcESaIcEEESt6vectorIP8TinyblobSaISC_EEELb1EEEEPT_RSH_, .-_ZSt9addressofINSt8__detail10_Hash_nodeISt4pairIKNSt7__cxx1112basic_stringIcSt11char_traitsIcESaIcEEESt6vectorIP8TinyblobSaISC_EEELb1EEEEPT_RSH_
	.section	.text._ZNSt16allocator_traitsISaINSt8__detail10_Hash_nodeISt4pairIKNSt7__cxx1112basic_stringIcSt11char_traitsIcESaIcEEESt6vectorIP8TinyblobSaISC_EEELb1EEEEE10deallocateERSH_PSG_m,"axG",@progbits,_ZNSt16allocator_traitsISaINSt8__detail10_Hash_nodeISt4pairIKNSt7__cxx1112basic_stringIcSt11char_traitsIcESaIcEEESt6vectorIP8TinyblobSaISC_EEELb1EEEEE10deallocateERSH_PSG_m,comdat
	.weak	_ZNSt16allocator_traitsISaINSt8__detail10_Hash_nodeISt4pairIKNSt7__cxx1112basic_stringIcSt11char_traitsIcESaIcEEESt6vectorIP8TinyblobSaISC_EEELb1EEEEE10deallocateERSH_PSG_m
	.type	_ZNSt16allocator_traitsISaINSt8__detail10_Hash_nodeISt4pairIKNSt7__cxx1112basic_stringIcSt11char_traitsIcESaIcEEESt6vectorIP8TinyblobSaISC_EEELb1EEEEE10deallocateERSH_PSG_m, @function
_ZNSt16allocator_traitsISaINSt8__detail10_Hash_nodeISt4pairIKNSt7__cxx1112basic_stringIcSt11char_traitsIcESaIcEEESt6vectorIP8TinyblobSaISC_EEELb1EEEEE10deallocateERSH_PSG_m:
.LFB15480:
	.loc 12 495 7
	.cfi_startproc
	endbr64
	pushq	%rbp
	.cfi_def_cfa_offset 16
	.cfi_offset 6, -16
	movq	%rsp, %rbp
	.cfi_def_cfa_register 6
	subq	$64, %rsp
	movq	%rdi, -40(%rbp)
	movq	%rsi, -48(%rbp)
	movq	%rdx, -56(%rbp)
	movq	-40(%rbp), %rax
	movq	%rax, -24(%rbp)
	movq	-48(%rbp), %rax
	movq	%rax, -16(%rbp)
	movq	-56(%rbp), %rax
	movq	%rax, -8(%rbp)
.LBB48:
.LBB49:
	.loc 10 193 32
	call	_ZSt21is_constant_evaluatedv
	.loc 10 193 2
	testb	%al, %al
	je	.L148
	.loc 10 195 23
	movq	-16(%rbp), %rax
	movq	%rax, %rdi
	call	_ZdlPv@PLT
	.loc 10 196 6
	jmp	.L149
.L148:
	.loc 10 199 35
	movq	-8(%rbp), %rdx
	movq	-16(%rbp), %rcx
	movq	-24(%rbp), %rax
	movq	%rcx, %rsi
	movq	%rax, %rdi
	call	_ZN9__gnu_cxx13new_allocatorINSt8__detail10_Hash_nodeISt4pairIKNSt7__cxx1112basic_stringIcSt11char_traitsIcESaIcEEESt6vectorIP8TinyblobSaISD_EEELb1EEEE10deallocateEPSH_m
.LBE49:
.LBE48:
	.loc 12 496 35
	nop
.L149:
	nop
	leave
	.cfi_def_cfa 7, 8
	ret
	.cfi_endproc
.LFE15480:
	.size	_ZNSt16allocator_traitsISaINSt8__detail10_Hash_nodeISt4pairIKNSt7__cxx1112basic_stringIcSt11char_traitsIcESaIcEEESt6vectorIP8TinyblobSaISC_EEELb1EEEEE10deallocateERSH_PSG_m, .-_ZNSt16allocator_traitsISaINSt8__detail10_Hash_nodeISt4pairIKNSt7__cxx1112basic_stringIcSt11char_traitsIcESaIcEEESt6vectorIP8TinyblobSaISC_EEELb1EEEEE10deallocateERSH_PSG_m
	.section	.text._ZSt11__addressofIPNSt8__detail15_Hash_node_baseEEPT_RS3_,"axG",@progbits,_ZSt11__addressofIPNSt8__detail15_Hash_node_baseEEPT_RS3_,comdat
	.weak	_ZSt11__addressofIPNSt8__detail15_Hash_node_baseEEPT_RS3_
	.type	_ZSt11__addressofIPNSt8__detail15_Hash_node_baseEEPT_RS3_, @function
_ZSt11__addressofIPNSt8__detail15_Hash_node_baseEEPT_RS3_:
.LFB15481:
	.loc 11 49 5
	.cfi_startproc
	endbr64
	pushq	%rbp
	.cfi_def_cfa_offset 16
	.cfi_offset 6, -16
	movq	%rsp, %rbp
	.cfi_def_cfa_register 6
	movq	%rdi, -8(%rbp)
	.loc 11 50 37
	movq	-8(%rbp), %rax
	.loc 11 50 40
	popq	%rbp
	.cfi_def_cfa 7, 8
	ret
	.cfi_endproc
.LFE15481:
	.size	_ZSt11__addressofIPNSt8__detail15_Hash_node_baseEEPT_RS3_, .-_ZSt11__addressofIPNSt8__detail15_Hash_node_baseEEPT_RS3_
	.section	.text._ZN9__gnu_cxx13new_allocatorIPNSt8__detail15_Hash_node_baseEEC2Ev,"axG",@progbits,_ZN9__gnu_cxx13new_allocatorIPNSt8__detail15_Hash_node_baseEEC5Ev,comdat
	.align 2
	.weak	_ZN9__gnu_cxx13new_allocatorIPNSt8__detail15_Hash_node_baseEEC2Ev
	.type	_ZN9__gnu_cxx13new_allocatorIPNSt8__detail15_Hash_node_baseEEC2Ev, @function
_ZN9__gnu_cxx13new_allocatorIPNSt8__detail15_Hash_node_baseEEC2Ev:
.LFB15483:
	.loc 14 79 7
	.cfi_startproc
	endbr64
	pushq	%rbp
	.cfi_def_cfa_offset 16
	.cfi_offset 6, -16
	movq	%rsp, %rbp
	.cfi_def_cfa_register 6
	movq	%rdi, -8(%rbp)
	.loc 14 79 47
	nop
	popq	%rbp
	.cfi_def_cfa 7, 8
	ret
	.cfi_endproc
.LFE15483:
	.size	_ZN9__gnu_cxx13new_allocatorIPNSt8__detail15_Hash_node_baseEEC2Ev, .-_ZN9__gnu_cxx13new_allocatorIPNSt8__detail15_Hash_node_baseEEC2Ev
	.weak	_ZN9__gnu_cxx13new_allocatorIPNSt8__detail15_Hash_node_baseEEC1Ev
	.set	_ZN9__gnu_cxx13new_allocatorIPNSt8__detail15_Hash_node_baseEEC1Ev,_ZN9__gnu_cxx13new_allocatorIPNSt8__detail15_Hash_node_baseEEC2Ev
	.section	.text._ZSt10destroy_atIP8TinyblobEvPT_,"axG",@progbits,_ZSt10destroy_atIP8TinyblobEvPT_,comdat
	.weak	_ZSt10destroy_atIP8TinyblobEvPT_
	.type	_ZSt10destroy_atIP8TinyblobEvPT_, @function
_ZSt10destroy_atIP8TinyblobEvPT_:
.LFB15486:
	.loc 15 80 5
	.cfi_startproc
	endbr64
	pushq	%rbp
	.cfi_def_cfa_offset 16
	.cfi_offset 6, -16
	movq	%rsp, %rbp
	.cfi_def_cfa_register 6
	movq	%rdi, -8(%rbp)
	.loc 15 89 5
	nop
	popq	%rbp
	.cfi_def_cfa 7, 8
	ret
	.cfi_endproc
.LFE15486:
	.size	_ZSt10destroy_atIP8TinyblobEvPT_, .-_ZSt10destroy_atIP8TinyblobEvPT_
	.section	.text._ZN9__gnu_cxx16__aligned_bufferISt4pairIKNSt7__cxx1112basic_stringIcSt11char_traitsIcESaIcEEESt6vectorIP8TinyblobSaISB_EEEE7_M_addrEv,"axG",@progbits,_ZN9__gnu_cxx16__aligned_bufferISt4pairIKNSt7__cxx1112basic_stringIcSt11char_traitsIcESaIcEEESt6vectorIP8TinyblobSaISB_EEEE7_M_addrEv,comdat
	.align 2
	.weak	_ZN9__gnu_cxx16__aligned_bufferISt4pairIKNSt7__cxx1112basic_stringIcSt11char_traitsIcESaIcEEESt6vectorIP8TinyblobSaISB_EEEE7_M_addrEv
	.type	_ZN9__gnu_cxx16__aligned_bufferISt4pairIKNSt7__cxx1112basic_stringIcSt11char_traitsIcESaIcEEESt6vectorIP8TinyblobSaISB_EEEE7_M_addrEv, @function
_ZN9__gnu_cxx16__aligned_bufferISt4pairIKNSt7__cxx1112basic_stringIcSt11char_traitsIcESaIcEEESt6vectorIP8TinyblobSaISB_EEEE7_M_addrEv:
.LFB15557:
	.loc 16 102 7
	.cfi_startproc
	endbr64
	pushq	%rbp
	.cfi_def_cfa_offset 16
	.cfi_offset 6, -16
	movq	%rsp, %rbp
	.cfi_def_cfa_register 6
	movq	%rdi, -8(%rbp)
	.loc 16 104 46
	movq	-8(%rbp), %rax
	.loc 16 105 7
	popq	%rbp
	.cfi_def_cfa 7, 8
	ret
	.cfi_endproc
.LFE15557:
	.size	_ZN9__gnu_cxx16__aligned_bufferISt4pairIKNSt7__cxx1112basic_stringIcSt11char_traitsIcESaIcEEESt6vectorIP8TinyblobSaISB_EEEE7_M_addrEv, .-_ZN9__gnu_cxx16__aligned_bufferISt4pairIKNSt7__cxx1112basic_stringIcSt11char_traitsIcESaIcEEESt6vectorIP8TinyblobSaISB_EEEE7_M_addrEv
	.section	.text._ZSt11__addressofINSt8__detail10_Hash_nodeISt4pairIKNSt7__cxx1112basic_stringIcSt11char_traitsIcESaIcEEESt6vectorIP8TinyblobSaISC_EEELb1EEEEPT_RSH_,"axG",@progbits,_ZSt11__addressofINSt8__detail10_Hash_nodeISt4pairIKNSt7__cxx1112basic_stringIcSt11char_traitsIcESaIcEEESt6vectorIP8TinyblobSaISC_EEELb1EEEEPT_RSH_,comdat
	.weak	_ZSt11__addressofINSt8__detail10_Hash_nodeISt4pairIKNSt7__cxx1112basic_stringIcSt11char_traitsIcESaIcEEESt6vectorIP8TinyblobSaISC_EEELb1EEEEPT_RSH_
	.type	_ZSt11__addressofINSt8__detail10_Hash_nodeISt4pairIKNSt7__cxx1112basic_stringIcSt11char_traitsIcESaIcEEESt6vectorIP8TinyblobSaISC_EEELb1EEEEPT_RSH_, @function
_ZSt11__addressofINSt8__detail10_Hash_nodeISt4pairIKNSt7__cxx1112basic_stringIcSt11char_traitsIcESaIcEEESt6vectorIP8TinyblobSaISC_EEELb1EEEEPT_RSH_:
.LFB15558:
	.loc 11 49 5
	.cfi_startproc
	endbr64
	pushq	%rbp
	.cfi_def_cfa_offset 16
	.cfi_offset 6, -16
	movq	%rsp, %rbp
	.cfi_def_cfa_register 6
	movq	%rdi, -8(%rbp)
	.loc 11 50 37
	movq	-8(%rbp), %rax
	.loc 11 50 40
	popq	%rbp
	.cfi_def_cfa 7, 8
	ret
	.cfi_endproc
.LFE15558:
	.size	_ZSt11__addressofINSt8__detail10_Hash_nodeISt4pairIKNSt7__cxx1112basic_stringIcSt11char_traitsIcESaIcEEESt6vectorIP8TinyblobSaISC_EEELb1EEEEPT_RSH_, .-_ZSt11__addressofINSt8__detail10_Hash_nodeISt4pairIKNSt7__cxx1112basic_stringIcSt11char_traitsIcESaIcEEESt6vectorIP8TinyblobSaISC_EEELb1EEEEPT_RSH_
	.section	.text._ZN9__gnu_cxx13new_allocatorIPNSt8__detail15_Hash_node_baseEE10deallocateEPS3_m,"axG",@progbits,_ZN9__gnu_cxx13new_allocatorIPNSt8__detail15_Hash_node_baseEE10deallocateEPS3_m,comdat
	.align 2
	.weak	_ZN9__gnu_cxx13new_allocatorIPNSt8__detail15_Hash_node_baseEE10deallocateEPS3_m
	.type	_ZN9__gnu_cxx13new_allocatorIPNSt8__detail15_Hash_node_baseEE10deallocateEPS3_m, @function
_ZN9__gnu_cxx13new_allocatorIPNSt8__detail15_Hash_node_baseEE10deallocateEPS3_m:
.LFB15560:
	.loc 14 132 7
	.cfi_startproc
	endbr64
	pushq	%rbp
	.cfi_def_cfa_offset 16
	.cfi_offset 6, -16
	movq	%rsp, %rbp
	.cfi_def_cfa_register 6
	subq	$32, %rsp
	movq	%rdi, -8(%rbp)
	movq	%rsi, -16(%rbp)
	movq	%rdx, -24(%rbp)
	.loc 14 145 19
	movq	-24(%rbp), %rax
	leaq	0(,%rax,8), %rdx
	movq	-16(%rbp), %rax
	movq	%rdx, %rsi
	movq	%rax, %rdi
	call	_ZdlPvm@PLT
	.loc 14 150 7
	leave
	.cfi_def_cfa 7, 8
	ret
	.cfi_endproc
.LFE15560:
	.size	_ZN9__gnu_cxx13new_allocatorIPNSt8__detail15_Hash_node_baseEE10deallocateEPS3_m, .-_ZN9__gnu_cxx13new_allocatorIPNSt8__detail15_Hash_node_baseEE10deallocateEPS3_m
	.section	.text._ZN9__gnu_cxx13new_allocatorINSt8__detail10_Hash_nodeISt4pairIKNSt7__cxx1112basic_stringIcSt11char_traitsIcESaIcEEESt6vectorIP8TinyblobSaISD_EEELb1EEEE10deallocateEPSH_m,"axG",@progbits,_ZN9__gnu_cxx13new_allocatorINSt8__detail10_Hash_nodeISt4pairIKNSt7__cxx1112basic_stringIcSt11char_traitsIcESaIcEEESt6vectorIP8TinyblobSaISD_EEELb1EEEE10deallocateEPSH_m,comdat
	.align 2
	.weak	_ZN9__gnu_cxx13new_allocatorINSt8__detail10_Hash_nodeISt4pairIKNSt7__cxx1112basic_stringIcSt11char_traitsIcESaIcEEESt6vectorIP8TinyblobSaISD_EEELb1EEEE10deallocateEPSH_m
	.type	_ZN9__gnu_cxx13new_allocatorINSt8__detail10_Hash_nodeISt4pairIKNSt7__cxx1112basic_stringIcSt11char_traitsIcESaIcEEESt6vectorIP8TinyblobSaISD_EEELb1EEEE10deallocateEPSH_m, @function
_ZN9__gnu_cxx13new_allocatorINSt8__detail10_Hash_nodeISt4pairIKNSt7__cxx1112basic_stringIcSt11char_traitsIcESaIcEEESt6vectorIP8TinyblobSaISD_EEELb1EEEE10deallocateEPSH_m:
.LFB15587:
	.loc 14 132 7
	.cfi_startproc
	endbr64
	pushq	%rbp
	.cfi_def_cfa_offset 16
	.cfi_offset 6, -16
	movq	%rsp, %rbp
	.cfi_def_cfa_register 6
	subq	$32, %rsp
	movq	%rdi, -8(%rbp)
	movq	%rsi, -16(%rbp)
	movq	%rdx, -24(%rbp)
	.loc 14 145 19
	movq	-24(%rbp), %rdx
	movq	%rdx, %rax
	salq	$3, %rax
	addq	%rdx, %rax
	salq	$3, %rax
	movq	%rax, %rdx
	movq	-16(%rbp), %rax
	movq	%rdx, %rsi
	movq	%rax, %rdi
	call	_ZdlPvm@PLT
	.loc 14 150 7
	leave
	.cfi_def_cfa 7, 8
	ret
	.cfi_endproc
.LFE15587:
	.size	_ZN9__gnu_cxx13new_allocatorINSt8__detail10_Hash_nodeISt4pairIKNSt7__cxx1112basic_stringIcSt11char_traitsIcESaIcEEESt6vectorIP8TinyblobSaISD_EEELb1EEEE10deallocateEPSH_m, .-_ZN9__gnu_cxx13new_allocatorINSt8__detail10_Hash_nodeISt4pairIKNSt7__cxx1112basic_stringIcSt11char_traitsIcESaIcEEESt6vectorIP8TinyblobSaISD_EEELb1EEEE10deallocateEPSH_m
	.text
	.type	_Z41__static_initialization_and_destruction_0ii, @function
_Z41__static_initialization_and_destruction_0ii:
.LFB15656:
	.loc 8 7 25
	.cfi_startproc
	endbr64
	pushq	%rbp
	.cfi_def_cfa_offset 16
	.cfi_offset 6, -16
	movq	%rsp, %rbp
	.cfi_def_cfa_register 6
	subq	$16, %rsp
	movl	%edi, -4(%rbp)
	movl	%esi, -8(%rbp)
	.loc 8 7 25
	cmpl	$1, -4(%rbp)
	jne	.L164
	.loc 8 7 25 is_stmt 0 discriminator 1
	cmpl	$65535, -8(%rbp)
	jne	.L164
	.file 18 "/usr/include/c++/11/iostream"
	.loc 18 74 25 is_stmt 1
	leaq	_ZStL8__ioinit(%rip), %rax
	movq	%rax, %rdi
	call	_ZNSt8ios_base4InitC1Ev@PLT
	leaq	__dso_handle(%rip), %rax
	movq	%rax, %rdx
	leaq	_ZStL8__ioinit(%rip), %rax
	movq	%rax, %rsi
	movq	_ZNSt8ios_base4InitD1Ev@GOTPCREL(%rip), %rax
	movq	%rax, %rdi
	call	__cxa_atexit@PLT
.L164:
	.loc 8 7 25
	nop
	leave
	.cfi_def_cfa 7, 8
	ret
	.cfi_endproc
.LFE15656:
	.size	_Z41__static_initialization_and_destruction_0ii, .-_Z41__static_initialization_and_destruction_0ii
	.type	_GLOBAL__sub_I__ZN9TinyindexC2Ev, @function
_GLOBAL__sub_I__ZN9TinyindexC2Ev:
.LFB15696:
	.loc 8 7 25
	.cfi_startproc
	endbr64
	pushq	%rbp
	.cfi_def_cfa_offset 16
	.cfi_offset 6, -16
	movq	%rsp, %rbp
	.cfi_def_cfa_register 6
	.loc 8 7 25
	movl	$65535, %esi
	movl	$1, %edi
	call	_Z41__static_initialization_and_destruction_0ii
	popq	%rbp
	.cfi_def_cfa 7, 8
	ret
	.cfi_endproc
.LFE15696:
	.size	_GLOBAL__sub_I__ZN9TinyindexC2Ev, .-_GLOBAL__sub_I__ZN9TinyindexC2Ev
	.section	.init_array,"aw"
	.align 8
	.quad	_GLOBAL__sub_I__ZN9TinyindexC2Ev
	.section	.rodata
	.align 4
.LC0:
	.long	1065353216
	.text
.Letext0:
	.file 19 "/usr/lib/gcc/x86_64-linux-gnu/11/include/stddef.h"
	.file 20 "/usr/lib/gcc/x86_64-linux-gnu/11/include/stdarg.h"
	.file 21 "<built-in>"
	.file 22 "/usr/include/x86_64-linux-gnu/bits/types/wint_t.h"
	.file 23 "/usr/include/x86_64-linux-gnu/bits/types/__mbstate_t.h"
	.file 24 "/usr/include/x86_64-linux-gnu/bits/types/mbstate_t.h"
	.file 25 "/usr/include/x86_64-linux-gnu/bits/types/__FILE.h"
	.file 26 "/usr/include/x86_64-linux-gnu/bits/types/struct_FILE.h"
	.file 27 "/usr/include/x86_64-linux-gnu/bits/types/FILE.h"
	.file 28 "/usr/include/c++/11/cwchar"
	.file 29 "/usr/include/c++/11/bits/exception_ptr.h"
	.file 30 "/usr/include/x86_64-linux-gnu/c++/11/bits/c++config.h"
	.file 31 "/usr/include/c++/11/concepts"
	.file 32 "/usr/include/c++/11/bits/iterator_concepts.h"
	.file 33 "/usr/include/c++/11/bits/ranges_cmp.h"
	.file 34 "/usr/include/c++/11/ranges"
	.file 35 "/usr/include/c++/11/compare"
	.file 36 "/usr/include/c++/11/bits/atomic_wait.h"
	.file 37 "/usr/include/c++/11/bits/regex_automaton.h"
	.file 38 "/usr/include/c++/11/debug/debug.h"
	.file 39 "/usr/include/c++/11/cstdint"
	.file 40 "/usr/include/c++/11/clocale"
	.file 41 "/usr/include/c++/11/cstdlib"
	.file 42 "/usr/include/c++/11/numbers"
	.file 43 "/usr/include/c++/11/string_view"
	.file 44 "/usr/include/c++/11/cstdio"
	.file 45 "/usr/include/c++/11/initializer_list"
	.file 46 "/usr/include/c++/11/bits/functional_hash.h"
	.file 47 "/usr/include/c++/11/bits/stringfwd.h"
	.file 48 "/usr/include/c++/11/bits/locale_classes.h"
	.file 49 "/usr/include/c++/11/bits/ios_base.h"
	.file 50 "/usr/include/c++/11/cwctype"
	.file 51 "/usr/include/x86_64-linux-gnu/c++/11/bits/ctype_base.h"
	.file 52 "/usr/include/c++/11/bits/enable_special_members.h"
	.file 53 "/usr/include/c++/11/bits/std_abs.h"
	.file 54 "/usr/include/c++/11/cmath"
	.file 55 "/usr/include/c++/11/csetjmp"
	.file 56 "/usr/include/c++/11/csignal"
	.file 57 "/usr/include/c++/11/cstdarg"
	.file 58 "/usr/include/c++/11/cstddef"
	.file 59 "/usr/include/c++/11/cstring"
	.file 60 "/usr/include/c++/11/ctime"
	.file 61 "/usr/include/c++/11/fenv.h"
	.file 62 "/usr/include/c++/11/cfenv"
	.file 63 "/usr/include/c++/11/cinttypes"
	.file 64 "/usr/include/c++/11/cuchar"
	.file 65 "/usr/include/c++/11/functional"
	.file 66 "/usr/include/c++/11/bits/stl_iterator_base_types.h"
	.file 67 "/usr/include/c++/11/bits/shared_ptr_base.h"
	.file 68 "/usr/include/c++/11/chrono"
	.file 69 "/usr/include/c++/11/bits/algorithmfwd.h"
	.file 70 "/usr/include/c++/11/bits/parse_numbers.h"
	.file 71 "/usr/include/c++/11/bits/fs_fwd.h"
	.file 72 "/usr/include/c++/11/bits/fs_path.h"
	.file 73 "/usr/include/c++/11/future"
	.file 74 "/usr/include/c++/11/bits/regex_constants.h"
	.file 75 "/usr/include/c++/11/bits/regex_error.h"
	.file 76 "/usr/include/c++/11/coroutine"
	.file 77 "/usr/include/c++/11/bits/vector.tcc"
	.file 78 "/usr/include/c++/11/bits/stl_function.h"
	.file 79 "/usr/include/c++/11/utility"
	.file 80 "/usr/include/c++/11/iosfwd"
	.file 81 "/usr/include/c++/11/fstream"
	.file 82 "/usr/include/wchar.h"
	.file 83 "/usr/include/x86_64-linux-gnu/bits/types/struct_tm.h"
	.file 84 "/usr/include/c++/11/bits/predefined_ops.h"
	.file 85 "/usr/include/c++/11/ext/alloc_traits.h"
	.file 86 "/usr/include/c++/11/bits/stl_iterator.h"
	.file 87 "/usr/include/c++/11/ext/concurrence.h"
	.file 88 "/usr/include/x86_64-linux-gnu/bits/types.h"
	.file 89 "/usr/include/x86_64-linux-gnu/bits/stdint-intn.h"
	.file 90 "/usr/include/x86_64-linux-gnu/bits/stdint-uintn.h"
	.file 91 "/usr/include/stdint.h"
	.file 92 "/usr/include/locale.h"
	.file 93 "/usr/include/x86_64-linux-gnu/bits/types/time_t.h"
	.file 94 "/usr/include/x86_64-linux-gnu/bits/types/struct_timespec.h"
	.file 95 "/usr/include/x86_64-linux-gnu/bits/types/clock_t.h"
	.file 96 "/usr/include/x86_64-linux-gnu/bits/setjmp.h"
	.file 97 "/usr/include/x86_64-linux-gnu/bits/types/__sigset_t.h"
	.file 98 "/usr/include/x86_64-linux-gnu/bits/types/struct___jmp_buf_tag.h"
	.file 99 "/usr/include/x86_64-linux-gnu/c++/11/bits/atomic_word.h"
	.file 100 "/usr/include/stdlib.h"
	.file 101 "/usr/include/x86_64-linux-gnu/bits/types/__fpos_t.h"
	.file 102 "/usr/include/stdio.h"
	.file 103 "/usr/include/x86_64-linux-gnu/bits/wctype-wchar.h"
	.file 104 "/usr/include/wctype.h"
	.file 105 "/usr/include/c++/11/stdlib.h"
	.file 106 "/usr/include/math.h"
	.file 107 "/usr/include/setjmp.h"
	.file 108 "/usr/include/x86_64-linux-gnu/bits/types/sig_atomic_t.h"
	.file 109 "/usr/include/signal.h"
	.file 110 "/usr/include/string.h"
	.file 111 "/usr/include/time.h"
	.file 112 "/usr/include/x86_64-linux-gnu/bits/fenv.h"
	.file 113 "/usr/include/inttypes.h"
	.file 114 "/usr/include/uchar.h"
	.file 115 "/usr/include/c++/11/pstl/execution_defs.h"
	.file 116 "tb.hpp"
	.file 117 "/usr/include/boost/config/detail/suffix.hpp"
	.file 118 "/usr/include/boost/algorithm/string/yes_no_type.hpp"
	.file 119 "/usr/include/boost/algorithm/string/predicate_facade.hpp"
	.file 120 "/usr/include/boost/algorithm/string/detail/trim.hpp"
	.file 121 "/usr/include/boost/algorithm/string/detail/classification.hpp"
	.file 122 "/usr/include/boost/algorithm/string/detail/finder.hpp"
	.file 123 "/usr/include/boost/algorithm/string/classification.hpp"
	.file 124 "/usr/include/boost/algorithm/string/compare.hpp"
	.file 125 "/usr/include/boost/algorithm/string/constants.hpp"
	.file 126 "/usr/include/boost/algorithm/string/finder.hpp"
	.file 127 "/usr/include/boost/mpl/aux_/adl_barrier.hpp"
	.file 128 "/usr/include/boost/mpl/bool_fwd.hpp"
	.file 129 "/usr/include/boost/mpl/integral_c_tag.hpp"
	.file 130 "/usr/include/boost/mpl/void_fwd.hpp"
	.file 131 "/usr/include/boost/mpl/aux_/na_fwd.hpp"
	.file 132 "/usr/include/boost/type_traits/integral_constant.hpp"
	.file 133 "/usr/include/boost/mpl/aux_/preprocessed/gcc/placeholders.hpp"
	.file 134 "/usr/include/boost/range/begin.hpp"
	.file 135 "/usr/include/boost/type_traits/detail/yes_no_type.hpp"
	.file 136 "/usr/include/boost/range/mutable_iterator.hpp"
	.file 137 "/usr/include/boost/range/detail/sfinae.hpp"
	.file 138 "/usr/include/boost/range/end.hpp"
	.file 139 "/usr/include/boost/type_traits/remove_reference.hpp"
	.file 140 "/usr/include/boost/detail/indirect_traits.hpp"
	.file 141 "/usr/include/boost/function/function_base.hpp"
	.file 142 "/usr/include/boost/iterator/iterator_traits.hpp"
	.file 143 "/usr/include/boost/iterator/iterator_categories.hpp"
	.file 144 "/usr/include/boost/iterator/detail/facade_iterator_category.hpp"
	.file 145 "/usr/include/boost/iterator/iterator_facade.hpp"
	.file 146 "/usr/include/boost/iterator/distance.hpp"
	.file 147 "/usr/include/boost/iterator/iterator_adaptor.hpp"
	.file 148 "/usr/include/boost/iterator/advance.hpp"
	.file 149 "/usr/include/boost/core/use_default.hpp"
	.file 150 "/usr/include/boost/concept/detail/backward_compatibility.hpp"
	.file 151 "/usr/include/boost/cstdint.hpp"
	.file 152 "/usr/include/boost/core/noncopyable.hpp"
	.file 153 "/usr/include/boost/range/distance.hpp"
	.file 154 "/usr/include/boost/range/iterator_range_core.hpp"
	.file 155 "/usr/include/boost/exception/exception.hpp"
	.file 156 "/usr/include/boost/core/demangle.hpp"
	.file 157 "/usr/include/boost/type_index/type_index_facade.hpp"
	.file 158 "/usr/include/c++/11/string"
	.file 159 "/usr/include/boost/mpl/bool.hpp"
	.file 160 "/usr/include/boost/mpl/void.hpp"
	.file 161 "/usr/include/boost/mpl/aux_/preprocessed/gcc/arg.hpp"
	.file 162 "/usr/include/c++/11/bits/cxxabi_init_exception.h"
	.file 163 "/usr/include/c++/11/new"
	.file 164 "/usr/include/c++/11/cxxabi.h"
	.section	.data.rel.local.DW.ref.__gxx_personality_v0,"awG",@progbits,DW.ref.__gxx_personality_v0,comdat
	.align 8
	.type	DW.ref.__gxx_personality_v0, @object
	.size	DW.ref.__gxx_personality_v0, 8
DW.ref.__gxx_personality_v0:
	.quad	__gxx_personality_v0
	.hidden	__dso_handle
	.ident	"GCC: (Ubuntu 11.2.0-19ubuntu1) 11.2.0"
	.section	.note.GNU-stack,"",@progbits
	.section	.note.gnu.property,"a"
	.align 8
	.long	1f - 0f
	.long	4f - 1f
	.long	5
0:
	.string	"GNU"
1:
	.align 8
	.long	0xc0000002
	.long	3f - 2f
2:
	.long	0x3
3:
	.align 8
4:
