	.file	"ti_api.cpp"
	.text
.Ltext0:
	.file 0 "/home/manos/YCSB-C/cs647/assignment2" "ti_api.cpp"
	.section	.text._ZNKSt9type_infoeqERKS_,"axG",@progbits,_ZNKSt9type_infoeqERKS_,comdat
	.align 2
	.weak	_ZNKSt9type_infoeqERKS_
	.type	_ZNKSt9type_infoeqERKS_, @function
_ZNKSt9type_infoeqERKS_:
.LFB20:
	.file 1 "/usr/include/c++/11/typeinfo"
	.loc 1 120 10
	.cfi_startproc
	endbr64
	pushq	%rbp
	.cfi_def_cfa_offset 16
	.cfi_offset 6, -16
	movq	%rsp, %rbp
	.cfi_def_cfa_register 6
	subq	$16, %rsp
	movq	%rdi, -8(%rbp)
	movq	%rsi, -16(%rbp)
	.loc 1 122 16
	movq	-8(%rbp), %rax
	movq	8(%rax), %rdx
	.loc 1 122 32
	movq	-16(%rbp), %rax
	movq	8(%rax), %rax
	.loc 1 123 8
	cmpq	%rax, %rdx
	je	.L2
	.loc 1 123 12 discriminator 2
	movq	-8(%rbp), %rax
	movq	8(%rax), %rax
	.loc 1 123 20 discriminator 2
	movzbl	(%rax), %eax
	.loc 1 123 8 discriminator 2
	cmpb	$42, %al
	je	.L3
	.loc 1 124 37 discriminator 3
	movq	-16(%rbp), %rax
	movq	8(%rax), %rdx
	.loc 1 124 23 discriminator 3
	movq	-8(%rbp), %rax
	movq	8(%rax), %rax
	.loc 1 124 22 discriminator 3
	movq	%rdx, %rsi
	movq	%rax, %rdi
	call	strcmp@PLT
	.loc 1 123 29 discriminator 3
	testl	%eax, %eax
	jne	.L3
.L2:
	.loc 1 123 8 discriminator 5
	movl	$1, %eax
	jmp	.L4
.L3:
	.loc 1 123 8 is_stmt 0 discriminator 6
	movl	$0, %eax
.L4:
	.loc 1 125 5 is_stmt 1
	leave
	.cfi_def_cfa 7, 8
	ret
	.cfi_endproc
.LFE20:
	.size	_ZNKSt9type_infoeqERKS_, .-_ZNKSt9type_infoeqERKS_
	.section	.text._ZnwmPv,"axG",@progbits,_ZnwmPv,comdat
	.weak	_ZnwmPv
	.type	_ZnwmPv, @function
_ZnwmPv:
.LFB37:
	.file 2 "/usr/include/c++/11/new"
	.loc 2 175 1
	.cfi_startproc
	endbr64
	pushq	%rbp
	.cfi_def_cfa_offset 16
	.cfi_offset 6, -16
	movq	%rsp, %rbp
	.cfi_def_cfa_register 6
	movq	%rdi, -8(%rbp)
	movq	%rsi, -16(%rbp)
	.loc 2 175 10
	movq	-16(%rbp), %rax
	.loc 2 175 15
	popq	%rbp
	.cfi_def_cfa 7, 8
	ret
	.cfi_endproc
.LFE37:
	.size	_ZnwmPv, .-_ZnwmPv
	.section	.text._ZdlPvS_,"axG",@progbits,_ZdlPvS_,comdat
	.weak	_ZdlPvS_
	.type	_ZdlPvS_, @function
_ZdlPvS_:
.LFB39:
	.loc 2 180 67
	.cfi_startproc
	endbr64
	pushq	%rbp
	.cfi_def_cfa_offset 16
	.cfi_offset 6, -16
	movq	%rsp, %rbp
	.cfi_def_cfa_register 6
	movq	%rdi, -8(%rbp)
	movq	%rsi, -16(%rbp)
	.loc 2 180 69
	nop
	popq	%rbp
	.cfi_def_cfa 7, 8
	ret
	.cfi_endproc
.LFE39:
	.size	_ZdlPvS_, .-_ZdlPvS_
	.section	.text._ZSt21is_constant_evaluatedv,"axG",@progbits,_ZSt21is_constant_evaluatedv,comdat
	.weak	_ZSt21is_constant_evaluatedv
	.type	_ZSt21is_constant_evaluatedv, @function
_ZSt21is_constant_evaluatedv:
.LFB75:
	.file 3 "/usr/include/c++/11/type_traits"
	.loc 3 3419 3
	.cfi_startproc
	endbr64
	pushq	%rbp
	.cfi_def_cfa_offset 16
	.cfi_offset 6, -16
	movq	%rsp, %rbp
	.cfi_def_cfa_register 6
	.loc 3 3419 44
	movl	$0, %eax
	.loc 3 3419 47
	popq	%rbp
	.cfi_def_cfa 7, 8
	ret
	.cfi_endproc
.LFE75:
	.size	_ZSt21is_constant_evaluatedv, .-_ZSt21is_constant_evaluatedv
	.weak	_ZSt19piecewise_construct
	.section	.rodata._ZSt19piecewise_construct,"aG",@progbits,_ZSt19piecewise_construct,comdat
	.type	_ZSt19piecewise_construct, @gnu_unique_object
	.size	_ZSt19piecewise_construct, 1
_ZSt19piecewise_construct:
	.zero	1
	.section	.text._ZN9__gnu_cxx5__ops16__iter_less_iterEv,"axG",@progbits,_ZN9__gnu_cxx5__ops16__iter_less_iterEv,comdat
	.weak	_ZN9__gnu_cxx5__ops16__iter_less_iterEv
	.type	_ZN9__gnu_cxx5__ops16__iter_less_iterEv, @function
_ZN9__gnu_cxx5__ops16__iter_less_iterEv:
.LFB420:
	.file 4 "/usr/include/c++/11/bits/predefined_ops.h"
	.loc 4 51 3
	.cfi_startproc
	endbr64
	pushq	%rbp
	.cfi_def_cfa_offset 16
	.cfi_offset 6, -16
	movq	%rsp, %rbp
	.cfi_def_cfa_register 6
	.loc 4 51 28
	nop
	.loc 4 51 31
	popq	%rbp
	.cfi_def_cfa 7, 8
	ret
	.cfi_endproc
.LFE420:
	.size	_ZN9__gnu_cxx5__ops16__iter_less_iterEv, .-_ZN9__gnu_cxx5__ops16__iter_less_iterEv
	.section	.text._ZN9__gnu_cxx5__ops15__iter_less_valEv,"axG",@progbits,_ZN9__gnu_cxx5__ops15__iter_less_valEv,comdat
	.weak	_ZN9__gnu_cxx5__ops15__iter_less_valEv
	.type	_ZN9__gnu_cxx5__ops15__iter_less_valEv, @function
_ZN9__gnu_cxx5__ops15__iter_less_valEv:
.LFB425:
	.loc 4 75 3
	.cfi_startproc
	endbr64
	pushq	%rbp
	.cfi_def_cfa_offset 16
	.cfi_offset 6, -16
	movq	%rsp, %rbp
	.cfi_def_cfa_register 6
	.loc 4 75 27
	nop
	.loc 4 75 30
	popq	%rbp
	.cfi_def_cfa 7, 8
	ret
	.cfi_endproc
.LFE425:
	.size	_ZN9__gnu_cxx5__ops15__iter_less_valEv, .-_ZN9__gnu_cxx5__ops15__iter_less_valEv
	.section	.text._ZN9__gnu_cxx5__ops15__val_comp_iterENS0_15_Iter_less_iterE,"axG",@progbits,_ZN9__gnu_cxx5__ops15__val_comp_iterENS0_15_Iter_less_iterE,comdat
	.weak	_ZN9__gnu_cxx5__ops15__val_comp_iterENS0_15_Iter_less_iterE
	.type	_ZN9__gnu_cxx5__ops15__val_comp_iterENS0_15_Iter_less_iterE, @function
_ZN9__gnu_cxx5__ops15__val_comp_iterENS0_15_Iter_less_iterE:
.LFB432:
	.loc 4 109 3
	.cfi_startproc
	endbr64
	pushq	%rbp
	.cfi_def_cfa_offset 16
	.cfi_offset 6, -16
	movq	%rsp, %rbp
	.cfi_def_cfa_register 6
	.loc 4 109 27
	nop
	.loc 4 109 30
	popq	%rbp
	.cfi_def_cfa 7, 8
	ret
	.cfi_endproc
.LFE432:
	.size	_ZN9__gnu_cxx5__ops15__val_comp_iterENS0_15_Iter_less_iterE, .-_ZN9__gnu_cxx5__ops15__val_comp_iterENS0_15_Iter_less_iterE
	.section	.text._ZSt17__size_to_integerm,"axG",@progbits,_ZSt17__size_to_integerm,comdat
	.weak	_ZSt17__size_to_integerm
	.type	_ZSt17__size_to_integerm, @function
_ZSt17__size_to_integerm:
.LFB511:
	.file 5 "/usr/include/c++/11/bits/stl_algobase.h"
	.loc 5 1010 40
	.cfi_startproc
	endbr64
	pushq	%rbp
	.cfi_def_cfa_offset 16
	.cfi_offset 6, -16
	movq	%rsp, %rbp
	.cfi_def_cfa_register 6
	movq	%rdi, -8(%rbp)
	.loc 5 1010 49
	movq	-8(%rbp), %rax
	.loc 5 1010 54
	popq	%rbp
	.cfi_def_cfa 7, 8
	ret
	.cfi_endproc
.LFE511:
	.size	_ZSt17__size_to_integerm, .-_ZSt17__size_to_integerm
	.section	.text._ZSt4__lgl,"axG",@progbits,_ZSt4__lgl,comdat
	.weak	_ZSt4__lgl
	.type	_ZSt4__lgl, @function
_ZSt4__lgl:
.LFB542:
	.loc 5 1515 3
	.cfi_startproc
	endbr64
	pushq	%rbp
	.cfi_def_cfa_offset 16
	.cfi_offset 6, -16
	movq	%rsp, %rbp
	.cfi_def_cfa_register 6
	movq	%rdi, -8(%rbp)
	.loc 5 1515 65
	movq	-8(%rbp), %rax
	bsrq	%rax, %rax
	xorq	$63, %rax
	movl	%eax, %edx
	.loc 5 1515 49
	movl	$63, %eax
	subl	%edx, %eax
	.loc 5 1515 69
	cltq
	.loc 5 1515 72
	popq	%rbp
	.cfi_def_cfa 7, 8
	ret
	.cfi_endproc
.LFE542:
	.size	_ZSt4__lgl, .-_ZSt4__lgl
	.section	.text._ZNSt11char_traitsIcE6assignERcRKc,"axG",@progbits,_ZNSt11char_traitsIcE6assignERcRKc,comdat
	.weak	_ZNSt11char_traitsIcE6assignERcRKc
	.type	_ZNSt11char_traitsIcE6assignERcRKc, @function
_ZNSt11char_traitsIcE6assignERcRKc:
.LFB585:
	.file 6 "/usr/include/c++/11/bits/char_traits.h"
	.loc 6 356 7
	.cfi_startproc
	endbr64
	pushq	%rbp
	.cfi_def_cfa_offset 16
	.cfi_offset 6, -16
	movq	%rsp, %rbp
	.cfi_def_cfa_register 6
	movq	%rdi, -8(%rbp)
	movq	%rsi, -16(%rbp)
	.loc 6 357 16
	movq	-16(%rbp), %rax
	movzbl	(%rax), %edx
	.loc 6 357 14
	movq	-8(%rbp), %rax
	movb	%dl, (%rax)
	.loc 6 357 22
	nop
	popq	%rbp
	.cfi_def_cfa 7, 8
	ret
	.cfi_endproc
.LFE585:
	.size	_ZNSt11char_traitsIcE6assignERcRKc, .-_ZNSt11char_traitsIcE6assignERcRKc
	.section	.text._ZNSt11char_traitsIcE2ltERKcS2_,"axG",@progbits,_ZNSt11char_traitsIcE2ltERKcS2_,comdat
	.weak	_ZNSt11char_traitsIcE2ltERKcS2_
	.type	_ZNSt11char_traitsIcE2ltERKcS2_, @function
_ZNSt11char_traitsIcE2ltERKcS2_:
.LFB587:
	.loc 6 364 7
	.cfi_startproc
	endbr64
	pushq	%rbp
	.cfi_def_cfa_offset 16
	.cfi_offset 6, -16
	movq	%rsp, %rbp
	.cfi_def_cfa_register 6
	movq	%rdi, -8(%rbp)
	movq	%rsi, -16(%rbp)
	.loc 6 367 37
	movq	-8(%rbp), %rax
	movzbl	(%rax), %eax
	.loc 6 367 10
	movl	%eax, %edx
	.loc 6 368 32
	movq	-16(%rbp), %rax
	movzbl	(%rax), %eax
	.loc 6 368 37
	cmpb	%al, %dl
	setb	%al
	.loc 6 369 7
	popq	%rbp
	.cfi_def_cfa 7, 8
	ret
	.cfi_endproc
.LFE587:
	.size	_ZNSt11char_traitsIcE2ltERKcS2_, .-_ZNSt11char_traitsIcE2ltERKcS2_
	.section	.text._ZNSt11char_traitsIcE7compareEPKcS2_m,"axG",@progbits,_ZNSt11char_traitsIcE7compareEPKcS2_m,comdat
	.weak	_ZNSt11char_traitsIcE7compareEPKcS2_m
	.type	_ZNSt11char_traitsIcE7compareEPKcS2_m, @function
_ZNSt11char_traitsIcE7compareEPKcS2_m:
.LFB588:
	.loc 6 372 7
	.cfi_startproc
	endbr64
	pushq	%rbp
	.cfi_def_cfa_offset 16
	.cfi_offset 6, -16
	movq	%rsp, %rbp
	.cfi_def_cfa_register 6
	subq	$48, %rsp
	movq	%rdi, -24(%rbp)
	movq	%rsi, -32(%rbp)
	movq	%rdx, -40(%rbp)
	.loc 6 374 2
	cmpq	$0, -40(%rbp)
	jne	.L25
	.loc 6 375 11
	movl	$0, %eax
	jmp	.L26
.L25:
.LBB24:
	.loc 6 379 6 discriminator 1
	movl	$0, %eax
	.loc 6 377 2 discriminator 1
	testb	%al, %al
	je	.L27
.LBB25:
.LBB26:
	.loc 6 381 18
	movq	$0, -8(%rbp)
	.loc 6 381 6
	jmp	.L28
.L31:
	.loc 6 382 34
	movq	-32(%rbp), %rdx
	movq	-8(%rbp), %rax
	addq	%rax, %rdx
	.loc 6 382 23
	movq	-24(%rbp), %rcx
	movq	-8(%rbp), %rax
	addq	%rcx, %rax
	.loc 6 382 14
	movq	%rdx, %rsi
	movq	%rax, %rdi
	call	_ZNSt11char_traitsIcE2ltERKcS2_
	.loc 6 382 8
	testb	%al, %al
	je	.L29
	.loc 6 383 11
	movl	$-1, %eax
	jmp	.L26
.L29:
	.loc 6 384 39
	movq	-24(%rbp), %rdx
	movq	-8(%rbp), %rax
	addq	%rax, %rdx
	.loc 6 384 28
	movq	-32(%rbp), %rcx
	movq	-8(%rbp), %rax
	addq	%rcx, %rax
	.loc 6 384 19
	movq	%rdx, %rsi
	movq	%rax, %rdi
	call	_ZNSt11char_traitsIcE2ltERKcS2_
	.loc 6 384 13
	testb	%al, %al
	je	.L30
	.loc 6 385 10
	movl	$1, %eax
	jmp	.L26
.L30:
	.loc 6 381 6 discriminator 2
	addq	$1, -8(%rbp)
.L28:
	.loc 6 381 31 discriminator 1
	movq	-8(%rbp), %rax
	cmpq	-40(%rbp), %rax
	jb	.L31
.LBE26:
	.loc 6 386 13
	movl	$0, %eax
	jmp	.L26
.L27:
.LBE25:
.LBE24:
	.loc 6 389 25
	movq	-40(%rbp), %rdx
	movq	-32(%rbp), %rcx
	movq	-24(%rbp), %rax
	movq	%rcx, %rsi
	movq	%rax, %rdi
	call	memcmp@PLT
	.loc 6 389 41
	nop
.L26:
	.loc 6 390 7
	leave
	.cfi_def_cfa 7, 8
	ret
	.cfi_endproc
.LFE588:
	.size	_ZNSt11char_traitsIcE7compareEPKcS2_m, .-_ZNSt11char_traitsIcE7compareEPKcS2_m
	.section	.text._ZNSt11char_traitsIcE6lengthEPKc,"axG",@progbits,_ZNSt11char_traitsIcE6lengthEPKc,comdat
	.weak	_ZNSt11char_traitsIcE6lengthEPKc
	.type	_ZNSt11char_traitsIcE6lengthEPKc, @function
_ZNSt11char_traitsIcE6lengthEPKc:
.LFB590:
	.loc 6 393 7
	.cfi_startproc
	endbr64
	pushq	%rbp
	.cfi_def_cfa_offset 16
	.cfi_offset 6, -16
	movq	%rsp, %rbp
	.cfi_def_cfa_register 6
	subq	$32, %rsp
	movq	%rdi, -24(%rbp)
	movq	-24(%rbp), %rax
	movq	%rax, -8(%rbp)
.LBB27:
.LBB28:
	.loc 6 290 46
	movl	$0, %eax
.LBE28:
.LBE27:
	.loc 6 396 2
	testb	%al, %al
	je	.L34
	.loc 6 397 52
	movq	-24(%rbp), %rax
	movq	%rax, %rdi
	call	_ZN9__gnu_cxx11char_traitsIcE6lengthEPKc
	.loc 6 397 56
	jmp	.L35
.L34:
	.loc 6 399 25
	movq	-24(%rbp), %rax
	movq	%rax, %rdi
	call	strlen@PLT
	.loc 6 399 29
	nop
.L35:
	.loc 6 400 7
	leave
	.cfi_def_cfa 7, 8
	ret
	.cfi_endproc
.LFE590:
	.size	_ZNSt11char_traitsIcE6lengthEPKc, .-_ZNSt11char_traitsIcE6lengthEPKc
	.section	.text._ZNSt11char_traitsIcE4moveEPcPKcm,"axG",@progbits,_ZNSt11char_traitsIcE4moveEPcPKcm,comdat
	.weak	_ZNSt11char_traitsIcE4moveEPcPKcm
	.type	_ZNSt11char_traitsIcE4moveEPcPKcm, @function
_ZNSt11char_traitsIcE4moveEPcPKcm:
.LFB593:
	.loc 6 417 7
	.cfi_startproc
	endbr64
	pushq	%rbp
	.cfi_def_cfa_offset 16
	.cfi_offset 6, -16
	movq	%rsp, %rbp
	.cfi_def_cfa_register 6
	subq	$32, %rsp
	movq	%rdi, -8(%rbp)
	movq	%rsi, -16(%rbp)
	movq	%rdx, -24(%rbp)
	.loc 6 419 2
	cmpq	$0, -24(%rbp)
	jne	.L37
	.loc 6 420 11
	movq	-8(%rbp), %rax
	jmp	.L38
.L37:
	.loc 6 422 32
	call	_ZSt21is_constant_evaluatedv
	.loc 6 422 2
	testb	%al, %al
	je	.L39
	.loc 6 423 50
	movq	-24(%rbp), %rdx
	movq	-16(%rbp), %rcx
	movq	-8(%rbp), %rax
	movq	%rcx, %rsi
	movq	%rax, %rdi
	call	_ZN9__gnu_cxx11char_traitsIcE4moveEPcPKcm
	.loc 6 423 66
	jmp	.L38
.L39:
	.loc 6 425 50
	movq	-24(%rbp), %rdx
	movq	-16(%rbp), %rcx
	movq	-8(%rbp), %rax
	movq	%rcx, %rsi
	movq	%rax, %rdi
	call	memmove@PLT
	.loc 6 425 67
	nop
.L38:
	.loc 6 426 7
	leave
	.cfi_def_cfa 7, 8
	ret
	.cfi_endproc
.LFE593:
	.size	_ZNSt11char_traitsIcE4moveEPcPKcm, .-_ZNSt11char_traitsIcE4moveEPcPKcm
	.section	.text._ZNSt11char_traitsIcE4copyEPcPKcm,"axG",@progbits,_ZNSt11char_traitsIcE4copyEPcPKcm,comdat
	.weak	_ZNSt11char_traitsIcE4copyEPcPKcm
	.type	_ZNSt11char_traitsIcE4copyEPcPKcm, @function
_ZNSt11char_traitsIcE4copyEPcPKcm:
.LFB594:
	.loc 6 429 7
	.cfi_startproc
	endbr64
	pushq	%rbp
	.cfi_def_cfa_offset 16
	.cfi_offset 6, -16
	movq	%rsp, %rbp
	.cfi_def_cfa_register 6
	subq	$32, %rsp
	movq	%rdi, -8(%rbp)
	movq	%rsi, -16(%rbp)
	movq	%rdx, -24(%rbp)
	.loc 6 431 2
	cmpq	$0, -24(%rbp)
	jne	.L41
	.loc 6 432 11
	movq	-8(%rbp), %rax
	jmp	.L42
.L41:
	.loc 6 434 32
	call	_ZSt21is_constant_evaluatedv
	.loc 6 434 2
	testb	%al, %al
	je	.L43
	.loc 6 435 50
	movq	-24(%rbp), %rdx
	movq	-16(%rbp), %rcx
	movq	-8(%rbp), %rax
	movq	%rcx, %rsi
	movq	%rax, %rdi
	call	_ZN9__gnu_cxx11char_traitsIcE4copyEPcPKcm
	.loc 6 435 66
	jmp	.L42
.L43:
	.loc 6 437 49
	movq	-8(%rbp), %rdx
	movq	-16(%rbp), %rax
	movq	%rdx, %rcx
	movq	%rax, %rsi
	movq	-24(%rbp), %rax
	movq	%rax, %rdx
	movq	%rcx, %rdi
	call	memcpy@PLT
	.loc 6 437 66
	nop
.L42:
	.loc 6 438 7
	leave
	.cfi_def_cfa 7, 8
	ret
	.cfi_endproc
.LFE594:
	.size	_ZNSt11char_traitsIcE4copyEPcPKcm, .-_ZNSt11char_traitsIcE4copyEPcPKcm
	.section	.text._ZNSt11char_traitsIcE6assignEPcmc,"axG",@progbits,_ZNSt11char_traitsIcE6assignEPcmc,comdat
	.weak	_ZNSt11char_traitsIcE6assignEPcmc
	.type	_ZNSt11char_traitsIcE6assignEPcmc, @function
_ZNSt11char_traitsIcE6assignEPcmc:
.LFB595:
	.loc 6 441 7
	.cfi_startproc
	endbr64
	pushq	%rbp
	.cfi_def_cfa_offset 16
	.cfi_offset 6, -16
	movq	%rsp, %rbp
	.cfi_def_cfa_register 6
	subq	$32, %rsp
	movq	%rdi, -8(%rbp)
	movq	%rsi, -16(%rbp)
	movl	%edx, %eax
	movb	%al, -20(%rbp)
	.loc 6 443 2
	cmpq	$0, -16(%rbp)
	jne	.L45
	.loc 6 444 11
	movq	-8(%rbp), %rax
	jmp	.L46
.L45:
	.loc 6 446 32
	call	_ZSt21is_constant_evaluatedv
	.loc 6 446 2
	testb	%al, %al
	je	.L47
	.loc 6 447 52
	movsbl	-20(%rbp), %edx
	movq	-16(%rbp), %rcx
	movq	-8(%rbp), %rax
	movq	%rcx, %rsi
	movq	%rax, %rdi
	call	_ZN9__gnu_cxx11char_traitsIcE6assignEPcmc
	.loc 6 447 66
	jmp	.L46
.L47:
	.loc 6 449 49
	movsbl	-20(%rbp), %ecx
	movq	-16(%rbp), %rdx
	movq	-8(%rbp), %rax
	movl	%ecx, %esi
	movq	%rax, %rdi
	call	memset@PLT
	.loc 6 449 64
	nop
.L46:
	.loc 6 450 7
	leave
	.cfi_def_cfa 7, 8
	ret
	.cfi_endproc
.LFE595:
	.size	_ZNSt11char_traitsIcE6assignEPcmc, .-_ZNSt11char_traitsIcE6assignEPcmc
	.section	.text._ZNSt10_Hash_impl4hashEPKvmm,"axG",@progbits,_ZNSt10_Hash_impl4hashEPKvmm,comdat
	.weak	_ZNSt10_Hash_impl4hashEPKvmm
	.type	_ZNSt10_Hash_impl4hashEPKvmm, @function
_ZNSt10_Hash_impl4hashEPKvmm:
.LFB1207:
	.file 7 "/usr/include/c++/11/bits/functional_hash.h"
	.loc 7 196 5
	.cfi_startproc
	endbr64
	pushq	%rbp
	.cfi_def_cfa_offset 16
	.cfi_offset 6, -16
	movq	%rsp, %rbp
	.cfi_def_cfa_register 6
	subq	$32, %rsp
	movq	%rdi, -8(%rbp)
	movq	%rsi, -16(%rbp)
	movq	%rdx, -24(%rbp)
	.loc 7 198 25
	movq	-24(%rbp), %rdx
	movq	-16(%rbp), %rcx
	movq	-8(%rbp), %rax
	movq	%rcx, %rsi
	movq	%rax, %rdi
	call	_ZSt11_Hash_bytesPKvmm@PLT
	.loc 7 198 53
	leave
	.cfi_def_cfa 7, 8
	ret
	.cfi_endproc
.LFE1207:
	.size	_ZNSt10_Hash_impl4hashEPKvmm, .-_ZNSt10_Hash_impl4hashEPKvmm
	.section	.rodata
.LC0:
	.string	"stoi"
	.section	.text._ZNSt7__cxx114stoiERKNS_12basic_stringIcSt11char_traitsIcESaIcEEEPmi,"axG",@progbits,_ZNSt7__cxx114stoiERKNS_12basic_stringIcSt11char_traitsIcESaIcEEEPmi,comdat
	.weak	_ZNSt7__cxx114stoiERKNS_12basic_stringIcSt11char_traitsIcESaIcEEEPmi
	.type	_ZNSt7__cxx114stoiERKNS_12basic_stringIcSt11char_traitsIcESaIcEEEPmi, @function
_ZNSt7__cxx114stoiERKNS_12basic_stringIcSt11char_traitsIcESaIcEEEPmi:
.LFB1663:
	.file 8 "/usr/include/c++/11/bits/basic_string.h"
	.loc 8 6620 3
	.cfi_startproc
	endbr64
	pushq	%rbp
	.cfi_def_cfa_offset 16
	.cfi_offset 6, -16
	movq	%rsp, %rbp
	.cfi_def_cfa_register 6
	subq	$32, %rsp
	movq	%rdi, -8(%rbp)
	movq	%rsi, -16(%rbp)
	movl	%edx, -20(%rbp)
	.loc 8 6620 40
	movq	-8(%rbp), %rax
	movq	%rax, %rdi
	call	_ZNKSt7__cxx1112basic_stringIcSt11char_traitsIcESaIcEE5c_strEv
	movq	%rax, %rdx
	movl	-20(%rbp), %ecx
	movq	-16(%rbp), %rax
	movl	%ecx, %r8d
	movq	%rax, %rcx
	leaq	.LC0(%rip), %rax
	movq	%rax, %rsi
	movq	strtol@GOTPCREL(%rip), %rax
	movq	%rax, %rdi
	call	_ZN9__gnu_cxx6__stoaIlicJiEEET0_PFT_PKT1_PPS3_DpT2_EPKcS5_PmS9_
	.loc 8 6621 22
	leave
	.cfi_def_cfa 7, 8
	ret
	.cfi_endproc
.LFE1663:
	.size	_ZNSt7__cxx114stoiERKNS_12basic_stringIcSt11char_traitsIcESaIcEEEPmi, .-_ZNSt7__cxx114stoiERKNS_12basic_stringIcSt11char_traitsIcESaIcEEEPmi
	.section	.text._ZNSt8__detail14__to_chars_lenIjEEjT_i,"axG",@progbits,_ZNSt8__detail14__to_chars_lenIjEEjT_i,comdat
	.weak	_ZNSt8__detail14__to_chars_lenIjEEjT_i
	.type	_ZNSt8__detail14__to_chars_lenIjEEjT_i, @function
_ZNSt8__detail14__to_chars_lenIjEEjT_i:
.LFB1673:
	.file 9 "/usr/include/c++/11/bits/charconv.h"
	.loc 9 47 5
	.cfi_startproc
	endbr64
	pushq	%rbp
	.cfi_def_cfa_offset 16
	.cfi_offset 6, -16
	movq	%rsp, %rbp
	.cfi_def_cfa_register 6
	movl	%edi, -36(%rbp)
	movl	%esi, -40(%rbp)
	.loc 9 52 16
	movl	$1, -20(%rbp)
	.loc 9 53 37
	movl	-40(%rbp), %eax
	imull	%eax, %eax
	.loc 9 53 22
	movl	%eax, -16(%rbp)
	.loc 9 54 36
	movl	-40(%rbp), %eax
	.loc 9 54 22
	movl	-16(%rbp), %edx
	imull	%edx, %eax
	movl	%eax, -12(%rbp)
	.loc 9 55 41
	movl	-40(%rbp), %eax
	.loc 9 55 39
	imull	-12(%rbp), %eax
	.loc 9 55 27
	movl	%eax, %eax
	movq	%rax, -8(%rbp)
.L58:
	.loc 9 58 18
	movl	-40(%rbp), %eax
	.loc 9 58 4
	cmpl	%eax, -36(%rbp)
	jnb	.L53
	.loc 9 58 43 discriminator 1
	movl	-20(%rbp), %eax
	jmp	.L54
.L53:
	.loc 9 59 4
	movl	-36(%rbp), %eax
	cmpl	-16(%rbp), %eax
	jnb	.L55
	.loc 9 59 37 discriminator 1
	movl	-20(%rbp), %eax
	addl	$1, %eax
	jmp	.L54
.L55:
	.loc 9 60 4
	movl	-36(%rbp), %eax
	cmpl	-12(%rbp), %eax
	jnb	.L56
	.loc 9 60 37 discriminator 1
	movl	-20(%rbp), %eax
	addl	$2, %eax
	jmp	.L54
.L56:
	.loc 9 61 8
	movl	-36(%rbp), %eax
	.loc 9 61 4
	cmpq	%rax, -8(%rbp)
	jbe	.L57
	.loc 9 61 37 discriminator 1
	movl	-20(%rbp), %eax
	addl	$3, %eax
	jmp	.L54
.L57:
	.loc 9 62 12
	movl	-36(%rbp), %eax
	movl	$0, %edx
	divq	-8(%rbp)
	movl	%eax, -36(%rbp)
	.loc 9 63 8
	addl	$4, -20(%rbp)
	.loc 9 58 4
	jmp	.L58
.L54:
	.loc 9 65 5
	popq	%rbp
	.cfi_def_cfa 7, 8
	ret
	.cfi_endproc
.LFE1673:
	.size	_ZNSt8__detail14__to_chars_lenIjEEjT_i, .-_ZNSt8__detail14__to_chars_lenIjEEjT_i
	.section	.text._ZNSt7__cxx119to_stringEj,"axG",@progbits,_ZNSt7__cxx119to_stringEj,comdat
	.weak	_ZNSt7__cxx119to_stringEj
	.type	_ZNSt7__cxx119to_stringEj, @function
_ZNSt7__cxx119to_stringEj:
.LFB1672:
	.loc 8 6672 3
	.cfi_startproc
	.cfi_personality 0x9b,DW.ref.__gxx_personality_v0
	.cfi_lsda 0x1b,.LLSDA1672
	endbr64
	pushq	%rbp
	.cfi_def_cfa_offset 16
	.cfi_offset 6, -16
	movq	%rsp, %rbp
	.cfi_def_cfa_register 6
	pushq	%rbx
	subq	$40, %rsp
	.cfi_offset 3, -24
	movq	%rdi, -40(%rbp)
	movl	%esi, -44(%rbp)
	.loc 8 6672 3
	movq	%fs:40, %rax
	movq	%rax, -24(%rbp)
	xorl	%eax, %eax
	.loc 8 6673 55
	leaq	-25(%rbp), %rax
	movq	%rax, %rdi
	call	_ZNSaIcEC1Ev@PLT
	.loc 8 6673 42
	movl	-44(%rbp), %eax
	movl	$10, %esi
	movl	%eax, %edi
	call	_ZNSt8__detail14__to_chars_lenIjEEjT_i
	.loc 8 6673 55
	movl	%eax, %esi
	leaq	-25(%rbp), %rdx
	movq	-40(%rbp), %rax
	movq	%rdx, %rcx
	movl	$0, %edx
	movq	%rax, %rdi
.LEHB0:
	call	_ZNSt7__cxx1112basic_stringIcSt11char_traitsIcESaIcEEC1IS3_EEmcRKS3_
.LEHE0:
	leaq	-25(%rbp), %rax
	movq	%rax, %rdi
	call	_ZNSaIcED1Ev@PLT
	.loc 8 6674 55
	movq	-40(%rbp), %rax
	movq	%rax, %rdi
	call	_ZNKSt7__cxx1112basic_stringIcSt11char_traitsIcESaIcEE4sizeEv
	.loc 8 6674 33
	movl	%eax, %ebx
	.loc 8 6674 42
	movq	-40(%rbp), %rax
	movl	$0, %esi
	movq	%rax, %rdi
.LEHB1:
	call	_ZNSt7__cxx1112basic_stringIcSt11char_traitsIcESaIcEEixEm
.LEHE1:
	movq	%rax, %rcx
	.loc 8 6674 33
	movl	-44(%rbp), %eax
	movl	%eax, %edx
	movl	%ebx, %esi
	movq	%rcx, %rdi
	call	_ZNSt8__detail18__to_chars_10_implIjEEvPcjT_
	.loc 8 6675 12
	nop
	.loc 8 6676 3
	movq	-24(%rbp), %rax
	subq	%fs:40, %rax
	je	.L63
	jmp	.L66
.L64:
	endbr64
	movq	%rax, %rbx
	leaq	-25(%rbp), %rax
	movq	%rax, %rdi
	call	_ZNSaIcED1Ev@PLT
	movq	%rbx, %rax
	movq	%rax, %rdi
.LEHB2:
	call	_Unwind_Resume@PLT
.L65:
	endbr64
	movq	%rax, %rbx
	movq	-40(%rbp), %rax
	movq	%rax, %rdi
	call	_ZNSt7__cxx1112basic_stringIcSt11char_traitsIcESaIcEED1Ev
	movq	%rbx, %rax
	movq	%rax, %rdi
	call	_Unwind_Resume@PLT
.LEHE2:
.L66:
	call	__stack_chk_fail@PLT
.L63:
	movq	-40(%rbp), %rax
	movq	-8(%rbp), %rbx
	leave
	.cfi_def_cfa 7, 8
	ret
	.cfi_endproc
.LFE1672:
	.globl	__gxx_personality_v0
	.section	.gcc_except_table._ZNSt7__cxx119to_stringEj,"aG",@progbits,_ZNSt7__cxx119to_stringEj,comdat
.LLSDA1672:
	.byte	0xff
	.byte	0xff
	.byte	0x1
	.uleb128 .LLSDACSE1672-.LLSDACSB1672
.LLSDACSB1672:
	.uleb128 .LEHB0-.LFB1672
	.uleb128 .LEHE0-.LEHB0
	.uleb128 .L64-.LFB1672
	.uleb128 0
	.uleb128 .LEHB1-.LFB1672
	.uleb128 .LEHE1-.LEHB1
	.uleb128 .L65-.LFB1672
	.uleb128 0
	.uleb128 .LEHB2-.LFB1672
	.uleb128 .LEHE2-.LEHB2
	.uleb128 0
	.uleb128 0
.LLSDACSE1672:
	.section	.text._ZNSt7__cxx119to_stringEj,"axG",@progbits,_ZNSt7__cxx119to_stringEj,comdat
	.size	_ZNSt7__cxx119to_stringEj, .-_ZNSt7__cxx119to_stringEj
	.section	.text._ZNKSt4hashINSt7__cxx1112basic_stringIcSt11char_traitsIcESaIcEEEEclERKS5_,"axG",@progbits,_ZNKSt4hashINSt7__cxx1112basic_stringIcSt11char_traitsIcESaIcEEEEclERKS5_,comdat
	.align 2
	.weak	_ZNKSt4hashINSt7__cxx1112basic_stringIcSt11char_traitsIcESaIcEEEEclERKS5_
	.type	_ZNKSt4hashINSt7__cxx1112basic_stringIcSt11char_traitsIcESaIcEEEEclERKS5_, @function
_ZNKSt4hashINSt7__cxx1112basic_stringIcSt11char_traitsIcESaIcEEEEclERKS5_:
.LFB1700:
	.loc 8 6875 7
	.cfi_startproc
	.cfi_personality 0x9b,DW.ref.__gxx_personality_v0
	.cfi_lsda 0x1b,.LLSDA1700
	endbr64
	pushq	%rbp
	.cfi_def_cfa_offset 16
	.cfi_offset 6, -16
	movq	%rsp, %rbp
	.cfi_def_cfa_register 6
	pushq	%rbx
	subq	$24, %rsp
	.cfi_offset 3, -24
	movq	%rdi, -24(%rbp)
	movq	%rsi, -32(%rbp)
	.loc 8 6876 37
	movq	-32(%rbp), %rax
	movq	%rax, %rdi
	call	_ZNKSt7__cxx1112basic_stringIcSt11char_traitsIcESaIcEE6lengthEv
	movq	%rax, %rbx
	.loc 8 6876 46
	movq	-32(%rbp), %rax
	movq	%rax, %rdi
	call	_ZNKSt7__cxx1112basic_stringIcSt11char_traitsIcESaIcEE4dataEv
	movq	%rax, %rcx
	.loc 8 6876 37
	movl	$3339675911, %eax
	movq	%rax, %rdx
	movq	%rbx, %rsi
	movq	%rcx, %rdi
	call	_ZNSt10_Hash_impl4hashEPKvmm
	.loc 8 6876 65
	movq	-8(%rbp), %rbx
	leave
	.cfi_def_cfa 7, 8
	ret
	.cfi_endproc
.LFE1700:
	.section	.gcc_except_table._ZNKSt4hashINSt7__cxx1112basic_stringIcSt11char_traitsIcESaIcEEEEclERKS5_,"aG",@progbits,_ZNKSt4hashINSt7__cxx1112basic_stringIcSt11char_traitsIcESaIcEEEEclERKS5_,comdat
.LLSDA1700:
	.byte	0xff
	.byte	0xff
	.byte	0x1
	.uleb128 .LLSDACSE1700-.LLSDACSB1700
.LLSDACSB1700:
.LLSDACSE1700:
	.section	.text._ZNKSt4hashINSt7__cxx1112basic_stringIcSt11char_traitsIcESaIcEEEEclERKS5_,"axG",@progbits,_ZNKSt4hashINSt7__cxx1112basic_stringIcSt11char_traitsIcESaIcEEEEclERKS5_,comdat
	.size	_ZNKSt4hashINSt7__cxx1112basic_stringIcSt11char_traitsIcESaIcEEEEclERKS5_, .-_ZNKSt4hashINSt7__cxx1112basic_stringIcSt11char_traitsIcESaIcEEEEclERKS5_
	.local	_ZStL8__ioinit
	.comm	_ZStL8__ioinit,1,1
	.section	.text._ZNSt8__detail15_Hash_node_baseC2Ev,"axG",@progbits,_ZNSt8__detail15_Hash_node_baseC5Ev,comdat
	.align 2
	.weak	_ZNSt8__detail15_Hash_node_baseC2Ev
	.type	_ZNSt8__detail15_Hash_node_baseC2Ev, @function
_ZNSt8__detail15_Hash_node_baseC2Ev:
.LFB2553:
	.file 10 "/usr/include/c++/11/bits/hashtable_policy.h"
	.loc 10 219 5
	.cfi_startproc
	endbr64
	pushq	%rbp
	.cfi_def_cfa_offset 16
	.cfi_offset 6, -16
	movq	%rsp, %rbp
	.cfi_def_cfa_register 6
	movq	%rdi, -8(%rbp)
.LBB29:
	.loc 10 219 34
	movq	-8(%rbp), %rax
	movq	$0, (%rax)
.LBE29:
	.loc 10 219 45
	nop
	popq	%rbp
	.cfi_def_cfa 7, 8
	ret
	.cfi_endproc
.LFE2553:
	.size	_ZNSt8__detail15_Hash_node_baseC2Ev, .-_ZNSt8__detail15_Hash_node_baseC2Ev
	.weak	_ZNSt8__detail15_Hash_node_baseC1Ev
	.set	_ZNSt8__detail15_Hash_node_baseC1Ev,_ZNSt8__detail15_Hash_node_baseC2Ev
	.section	.text._ZNKSt8__detail18_Mod_range_hashingclEmm,"axG",@progbits,_ZNKSt8__detail18_Mod_range_hashingclEmm,comdat
	.align 2
	.weak	_ZNKSt8__detail18_Mod_range_hashingclEmm
	.type	_ZNKSt8__detail18_Mod_range_hashingclEmm, @function
_ZNKSt8__detail18_Mod_range_hashingclEmm:
.LFB2578:
	.loc 10 428 5
	.cfi_startproc
	endbr64
	pushq	%rbp
	.cfi_def_cfa_offset 16
	.cfi_offset 6, -16
	movq	%rsp, %rbp
	.cfi_def_cfa_register 6
	movq	%rdi, -8(%rbp)
	movq	%rsi, -16(%rbp)
	movq	%rdx, -24(%rbp)
	.loc 10 430 22
	movq	-16(%rbp), %rax
	movl	$0, %edx
	divq	-24(%rbp)
	movq	%rdx, %rax
	.loc 10 430 29
	popq	%rbp
	.cfi_def_cfa 7, 8
	ret
	.cfi_endproc
.LFE2578:
	.size	_ZNKSt8__detail18_Mod_range_hashingclEmm, .-_ZNKSt8__detail18_Mod_range_hashingclEmm
	.section	.text._ZNKSt8__detail20_Prime_rehash_policy8_M_stateEv,"axG",@progbits,_ZNKSt8__detail20_Prime_rehash_policy8_M_stateEv,comdat
	.align 2
	.weak	_ZNKSt8__detail20_Prime_rehash_policy8_M_stateEv
	.type	_ZNKSt8__detail20_Prime_rehash_policy8_M_stateEv, @function
_ZNKSt8__detail20_Prime_rehash_policy8_M_stateEv:
.LFB2584:
	.loc 10 473 5
	.cfi_startproc
	endbr64
	pushq	%rbp
	.cfi_def_cfa_offset 16
	.cfi_offset 6, -16
	movq	%rsp, %rbp
	.cfi_def_cfa_register 6
	movq	%rdi, -8(%rbp)
	.loc 10 474 14
	movq	-8(%rbp), %rax
	movq	8(%rax), %rax
	.loc 10 474 30
	popq	%rbp
	.cfi_def_cfa 7, 8
	ret
	.cfi_endproc
.LFE2584:
	.size	_ZNKSt8__detail20_Prime_rehash_policy8_M_stateEv, .-_ZNKSt8__detail20_Prime_rehash_policy8_M_stateEv
	.section	.text._ZNSt8__detail20_Prime_rehash_policy8_M_resetEm,"axG",@progbits,_ZNSt8__detail20_Prime_rehash_policy8_M_resetEm,comdat
	.align 2
	.weak	_ZNSt8__detail20_Prime_rehash_policy8_M_resetEm
	.type	_ZNSt8__detail20_Prime_rehash_policy8_M_resetEm, @function
_ZNSt8__detail20_Prime_rehash_policy8_M_resetEm:
.LFB2586:
	.loc 10 481 5
	.cfi_startproc
	endbr64
	pushq	%rbp
	.cfi_def_cfa_offset 16
	.cfi_offset 6, -16
	movq	%rsp, %rbp
	.cfi_def_cfa_register 6
	movq	%rdi, -8(%rbp)
	movq	%rsi, -16(%rbp)
	.loc 10 482 22
	movq	-8(%rbp), %rax
	movq	-16(%rbp), %rdx
	movq	%rdx, 8(%rax)
	.loc 10 482 33
	nop
	popq	%rbp
	.cfi_def_cfa 7, 8
	ret
	.cfi_endproc
.LFE2586:
	.size	_ZNSt8__detail20_Prime_rehash_policy8_M_resetEm, .-_ZNSt8__detail20_Prime_rehash_policy8_M_resetEm
	.section	.text._ZSt3minImERKT_S2_S2_,"axG",@progbits,_ZSt3minImERKT_S2_S2_,comdat
	.weak	_ZSt3minImERKT_S2_S2_
	.type	_ZSt3minImERKT_S2_S2_, @function
_ZSt3minImERKT_S2_S2_:
.LFB2594:
	.loc 5 230 5
	.cfi_startproc
	endbr64
	pushq	%rbp
	.cfi_def_cfa_offset 16
	.cfi_offset 6, -16
	movq	%rsp, %rbp
	.cfi_def_cfa_register 6
	movq	%rdi, -8(%rbp)
	movq	%rsi, -16(%rbp)
	.loc 5 235 15
	movq	-16(%rbp), %rax
	movq	(%rax), %rdx
	movq	-8(%rbp), %rax
	movq	(%rax), %rax
	.loc 5 235 7
	cmpq	%rax, %rdx
	jnb	.L76
	.loc 5 236 9
	movq	-16(%rbp), %rax
	jmp	.L77
.L76:
	.loc 5 237 14
	movq	-8(%rbp), %rax
.L77:
	.loc 5 238 5
	popq	%rbp
	.cfi_def_cfa 7, 8
	ret
	.cfi_endproc
.LFE2594:
	.size	_ZSt3minImERKT_S2_S2_, .-_ZSt3minImERKT_S2_S2_
	.section	.rodata
	.type	_ZN6__pstl9execution2v1L3seqE, @object
	.size	_ZN6__pstl9execution2v1L3seqE, 1
_ZN6__pstl9execution2v1L3seqE:
	.zero	1
	.type	_ZN6__pstl9execution2v1L3parE, @object
	.size	_ZN6__pstl9execution2v1L3parE, 1
_ZN6__pstl9execution2v1L3parE:
	.zero	1
	.type	_ZN6__pstl9execution2v1L9par_unseqE, @object
	.size	_ZN6__pstl9execution2v1L9par_unseqE, 1
_ZN6__pstl9execution2v1L9par_unseqE:
	.zero	1
	.type	_ZN6__pstl9execution2v1L5unseqE, @object
	.size	_ZN6__pstl9execution2v1L5unseqE, 1
_ZN6__pstl9execution2v1L5unseqE:
	.zero	1
	.align 4
	.type	_ZN9__gnu_cxxL21__default_lock_policyE, @object
	.size	_ZN9__gnu_cxxL21__default_lock_policyE, 4
_ZN9__gnu_cxxL21__default_lock_policyE:
	.long	2
	.align 8
	.type	_ZNSt8__detailL25__platform_wait_alignmentE, @object
	.size	_ZNSt8__detailL25__platform_wait_alignmentE, 8
_ZNSt8__detailL25__platform_wait_alignmentE:
	.quad	4
	.align 4
	.type	_ZNSt8__detailL21__atomic_spin_count_1E, @object
	.size	_ZNSt8__detailL21__atomic_spin_count_1E, 4
_ZNSt8__detailL21__atomic_spin_count_1E:
	.long	12
	.align 4
	.type	_ZNSt8__detailL21__atomic_spin_count_2E, @object
	.size	_ZNSt8__detailL21__atomic_spin_count_2E, 4
_ZNSt8__detailL21__atomic_spin_count_2E:
	.long	4
	.align 4
	.type	_ZNSt15regex_constantsL13error_collateE, @object
	.size	_ZNSt15regex_constantsL13error_collateE, 4
_ZNSt15regex_constantsL13error_collateE:
	.zero	4
	.align 4
	.type	_ZNSt15regex_constantsL11error_ctypeE, @object
	.size	_ZNSt15regex_constantsL11error_ctypeE, 4
_ZNSt15regex_constantsL11error_ctypeE:
	.long	1
	.align 4
	.type	_ZNSt15regex_constantsL12error_escapeE, @object
	.size	_ZNSt15regex_constantsL12error_escapeE, 4
_ZNSt15regex_constantsL12error_escapeE:
	.long	2
	.align 4
	.type	_ZNSt15regex_constantsL13error_backrefE, @object
	.size	_ZNSt15regex_constantsL13error_backrefE, 4
_ZNSt15regex_constantsL13error_backrefE:
	.long	3
	.align 4
	.type	_ZNSt15regex_constantsL11error_brackE, @object
	.size	_ZNSt15regex_constantsL11error_brackE, 4
_ZNSt15regex_constantsL11error_brackE:
	.long	4
	.align 4
	.type	_ZNSt15regex_constantsL11error_parenE, @object
	.size	_ZNSt15regex_constantsL11error_parenE, 4
_ZNSt15regex_constantsL11error_parenE:
	.long	5
	.align 4
	.type	_ZNSt15regex_constantsL11error_braceE, @object
	.size	_ZNSt15regex_constantsL11error_braceE, 4
_ZNSt15regex_constantsL11error_braceE:
	.long	6
	.align 4
	.type	_ZNSt15regex_constantsL14error_badbraceE, @object
	.size	_ZNSt15regex_constantsL14error_badbraceE, 4
_ZNSt15regex_constantsL14error_badbraceE:
	.long	7
	.align 4
	.type	_ZNSt15regex_constantsL11error_rangeE, @object
	.size	_ZNSt15regex_constantsL11error_rangeE, 4
_ZNSt15regex_constantsL11error_rangeE:
	.long	8
	.align 4
	.type	_ZNSt15regex_constantsL11error_spaceE, @object
	.size	_ZNSt15regex_constantsL11error_spaceE, 4
_ZNSt15regex_constantsL11error_spaceE:
	.long	9
	.align 4
	.type	_ZNSt15regex_constantsL15error_badrepeatE, @object
	.size	_ZNSt15regex_constantsL15error_badrepeatE, 4
_ZNSt15regex_constantsL15error_badrepeatE:
	.long	10
	.align 4
	.type	_ZNSt15regex_constantsL16error_complexityE, @object
	.size	_ZNSt15regex_constantsL16error_complexityE, 4
_ZNSt15regex_constantsL16error_complexityE:
	.long	11
	.align 4
	.type	_ZNSt15regex_constantsL11error_stackE, @object
	.size	_ZNSt15regex_constantsL11error_stackE, 4
_ZNSt15regex_constantsL11error_stackE:
	.long	12
	.align 8
	.type	_ZNSt8__detailL19_S_invalid_state_idE, @object
	.size	_ZNSt8__detailL19_S_invalid_state_idE, 8
_ZNSt8__detailL19_S_invalid_state_idE:
	.quad	-1
	.section	.text._ZN9__gnu_cxx14__alloc_traitsISaIcEcE15_S_always_equalEv,"axG",@progbits,_ZN9__gnu_cxx14__alloc_traitsISaIcEcE15_S_always_equalEv,comdat
	.weak	_ZN9__gnu_cxx14__alloc_traitsISaIcEcE15_S_always_equalEv
	.type	_ZN9__gnu_cxx14__alloc_traitsISaIcEcE15_S_always_equalEv, @function
_ZN9__gnu_cxx14__alloc_traitsISaIcEcE15_S_always_equalEv:
.LFB10473:
	.file 11 "/usr/include/c++/11/ext/alloc_traits.h"
	.loc 11 112 27
	.cfi_startproc
	endbr64
	pushq	%rbp
	.cfi_def_cfa_offset 16
	.cfi_offset 6, -16
	movq	%rsp, %rbp
	.cfi_def_cfa_register 6
	.loc 11 113 43
	movl	$1, %eax
	.loc 11 113 50
	popq	%rbp
	.cfi_def_cfa 7, 8
	ret
	.cfi_endproc
.LFE10473:
	.size	_ZN9__gnu_cxx14__alloc_traitsISaIcEcE15_S_always_equalEv, .-_ZN9__gnu_cxx14__alloc_traitsISaIcEcE15_S_always_equalEv
	.section	.text._ZN8Tinyblob5indexEv,"axG",@progbits,_ZN8Tinyblob5indexEv,comdat
	.align 2
	.weak	_ZN8Tinyblob5indexEv
	.type	_ZN8Tinyblob5indexEv, @function
_ZN8Tinyblob5indexEv:
.LFB11517:
	.file 12 "tb.hpp"
	.loc 12 49 19
	.cfi_startproc
	endbr64
	pushq	%rbp
	.cfi_def_cfa_offset 16
	.cfi_offset 6, -16
	movq	%rsp, %rbp
	.cfi_def_cfa_register 6
	movq	%rdi, -8(%rbp)
	.loc 12 50 18
	movq	-8(%rbp), %rax
	movl	(%rax), %eax
	.loc 12 51 3
	popq	%rbp
	.cfi_def_cfa 7, 8
	ret
	.cfi_endproc
.LFE11517:
	.size	_ZN8Tinyblob5indexEv, .-_ZN8Tinyblob5indexEv
	.section	.rodata
.LC1:
	.string	"INDEX: "
.LC2:
	.string	"\tFD: "
.LC3:
	.string	"\tNAME: "
.LC4:
	.string	"\tBLOB_COUNT: "
.LC5:
	.string	"\tIO_BUFFER: "
.LC6:
	.string	"\tRAW DEVICE OFFSET: "
	.section	.text._ZN8Tinyblob7printTbEv,"axG",@progbits,_ZN8Tinyblob7printTbEv,comdat
	.align 2
	.weak	_ZN8Tinyblob7printTbEv
	.type	_ZN8Tinyblob7printTbEv, @function
_ZN8Tinyblob7printTbEv:
.LFB11520:
	.loc 12 61 15
	.cfi_startproc
	endbr64
	pushq	%rbp
	.cfi_def_cfa_offset 16
	.cfi_offset 6, -16
	movq	%rsp, %rbp
	.cfi_def_cfa_register 6
	subq	$16, %rsp
	movq	%rdi, -8(%rbp)
	.loc 12 62 17
	leaq	.LC1(%rip), %rax
	movq	%rax, %rsi
	leaq	_ZSt4cout(%rip), %rax
	movq	%rax, %rdi
	call	_ZStlsISt11char_traitsIcEERSt13basic_ostreamIcT_ES5_PKc@PLT
	movq	%rax, %rdx
	.loc 12 62 30
	movq	-8(%rbp), %rax
	movl	(%rax), %eax
	movl	%eax, %esi
	movq	%rdx, %rdi
	call	_ZNSolsEj@PLT
	movq	%rax, %rdx
	.loc 12 63 8
	leaq	.LC2(%rip), %rax
	movq	%rax, %rsi
	movq	%rdx, %rdi
	call	_ZStlsISt11char_traitsIcEERSt13basic_ostreamIcT_ES5_PKc@PLT
	movq	%rax, %rdx
	.loc 12 65 8
	movq	-8(%rbp), %rax
	movl	4(%rax), %eax
	movl	%eax, %esi
	movq	%rdx, %rdi
	call	_ZNSolsEi@PLT
	movq	%rax, %rdx
	leaq	.LC3(%rip), %rax
	movq	%rax, %rsi
	movq	%rdx, %rdi
	call	_ZStlsISt11char_traitsIcEERSt13basic_ostreamIcT_ES5_PKc@PLT
	movq	%rax, %rdx
	.loc 12 64 22
	movq	-8(%rbp), %rax
	addq	$8, %rax
	.loc 12 65 8
	movq	%rax, %rsi
	movq	%rdx, %rdi
	call	_ZStlsIcSt11char_traitsIcESaIcEERSt13basic_ostreamIT_T0_ES7_RKNSt7__cxx1112basic_stringIS4_S5_T1_EE@PLT
	movq	%rax, %rdx
	leaq	.LC4(%rip), %rax
	movq	%rax, %rsi
	movq	%rdx, %rdi
	call	_ZStlsISt11char_traitsIcEERSt13basic_ostreamIcT_ES5_PKc@PLT
	movq	%rax, %rdx
	.loc 12 67 8
	movl	_ZN8Tinyblob10__cnt_blobE(%rip), %eax
	.loc 12 65 28
	movl	%eax, %esi
	movq	%rdx, %rdi
	call	_ZNSolsEj@PLT
	movq	%rax, %rdx
	.loc 12 67 8
	leaq	.LC5(%rip), %rax
	movq	%rax, %rsi
	movq	%rdx, %rdi
	call	_ZStlsISt11char_traitsIcEERSt13basic_ostreamIcT_ES5_PKc@PLT
	movq	%rax, %rdx
	.loc 12 66 34
	movq	-8(%rbp), %rax
	movq	48(%rax), %rax
	.loc 12 67 8
	movq	%rax, %rsi
	movq	%rdx, %rdi
	call	_ZStlsISt11char_traitsIcEERSt13basic_ostreamIcT_ES5_PKc@PLT
	movq	%rax, %rdx
	leaq	.LC6(%rip), %rax
	movq	%rax, %rsi
	movq	%rdx, %rdi
	call	_ZStlsISt11char_traitsIcEERSt13basic_ostreamIcT_ES5_PKc@PLT
	movq	%rax, %rdx
	.loc 12 67 35
	movq	-8(%rbp), %rax
	movl	40(%rax), %eax
	movl	%eax, %esi
	movq	%rdx, %rdi
	call	_ZNSolsEj@PLT
	.loc 12 68 13
	movq	_ZSt4endlIcSt11char_traitsIcEERSt13basic_ostreamIT_T0_ES6_@GOTPCREL(%rip), %rdx
	movq	%rdx, %rsi
	movq	%rax, %rdi
	call	_ZNSolsEPFRSoS_E@PLT
	.loc 12 69 3
	nop
	leave
	.cfi_def_cfa 7, 8
	ret
	.cfi_endproc
.LFE11520:
	.size	_ZN8Tinyblob7printTbEv, .-_ZN8Tinyblob7printTbEv
	.section	.text._ZN8Tinyblob7is_freeEv,"axG",@progbits,_ZN8Tinyblob7is_freeEv,comdat
	.align 2
	.weak	_ZN8Tinyblob7is_freeEv
	.type	_ZN8Tinyblob7is_freeEv, @function
_ZN8Tinyblob7is_freeEv:
.LFB11527:
	.loc 12 103 15
	.cfi_startproc
	endbr64
	pushq	%rbp
	.cfi_def_cfa_offset 16
	.cfi_offset 6, -16
	movq	%rsp, %rbp
	.cfi_def_cfa_register 6
	movq	%rdi, -8(%rbp)
	.loc 12 104 11
	movq	-8(%rbp), %rax
	movzbl	72(%rax), %eax
	.loc 12 105 3
	popq	%rbp
	.cfi_def_cfa 7, 8
	ret
	.cfi_endproc
.LFE11527:
	.size	_ZN8Tinyblob7is_freeEv, .-_ZN8Tinyblob7is_freeEv
	.section	.text._ZN5boost12range_detail6lengthEPKc,"axG",@progbits,_ZN5boost12range_detail6lengthEPKc,comdat
	.weak	_ZN5boost12range_detail6lengthEPKc
	.type	_ZN5boost12range_detail6lengthEPKc, @function
_ZN5boost12range_detail6lengthEPKc:
.LFB11969:
	.file 13 "/usr/include/boost/range/as_literal.hpp"
	.loc 13 38 9
	.cfi_startproc
	endbr64
	pushq	%rbp
	.cfi_def_cfa_offset 16
	.cfi_offset 6, -16
	movq	%rsp, %rbp
	.cfi_def_cfa_register 6
	subq	$16, %rsp
	movq	%rdi, -8(%rbp)
	.loc 13 39 26
	movq	-8(%rbp), %rax
	movq	%rax, %rdi
	call	strlen@PLT
	.loc 13 40 9
	leave
	.cfi_def_cfa 7, 8
	ret
	.cfi_endproc
.LFE11969:
	.size	_ZN5boost12range_detail6lengthEPKc, .-_ZN5boost12range_detail6lengthEPKc
	.section	.text._ZN5boost12range_detail11is_char_ptrEPKc,"axG",@progbits,_ZN5boost12range_detail11is_char_ptrEPKc,comdat
	.weak	_ZN5boost12range_detail11is_char_ptrEPKc
	.type	_ZN5boost12range_detail11is_char_ptrEPKc, @function
_ZN5boost12range_detail11is_char_ptrEPKc:
.LFB11974:
	.loc 13 75 9
	.cfi_startproc
	endbr64
	pushq	%rbp
	.cfi_def_cfa_offset 16
	.cfi_offset 6, -16
	movq	%rsp, %rbp
	.cfi_def_cfa_register 6
	movq	%rdi, -8(%rbp)
	.loc 13 76 20
	movl	$1, %eax
	.loc 13 77 9
	popq	%rbp
	.cfi_def_cfa 7, 8
	ret
	.cfi_endproc
.LFE11974:
	.size	_ZN5boost12range_detail11is_char_ptrEPKc, .-_ZN5boost12range_detail11is_char_ptrEPKc
	.section	.text._ZN5boost36throw_exception_assert_compatibilityERKSt9exception,"axG",@progbits,_ZN5boost36throw_exception_assert_compatibilityERKSt9exception,comdat
	.weak	_ZN5boost36throw_exception_assert_compatibilityERKSt9exception
	.type	_ZN5boost36throw_exception_assert_compatibilityERKSt9exception, @function
_ZN5boost36throw_exception_assert_compatibilityERKSt9exception:
.LFB12167:
	.file 14 "/usr/include/boost/throw_exception.hpp"
	.loc 14 38 76
	.cfi_startproc
	endbr64
	pushq	%rbp
	.cfi_def_cfa_offset 16
	.cfi_offset 6, -16
	movq	%rsp, %rbp
	.cfi_def_cfa_register 6
	movq	%rdi, -8(%rbp)
	.loc 14 38 77
	nop
	popq	%rbp
	.cfi_def_cfa 7, 8
	ret
	.cfi_endproc
.LFE12167:
	.size	_ZN5boost36throw_exception_assert_compatibilityERKSt9exception, .-_ZN5boost36throw_exception_assert_compatibilityERKSt9exception
	.section	.text._ZN5boost9exceptionC2Ev,"axG",@progbits,_ZN5boost9exceptionC5Ev,comdat
	.align 2
	.weak	_ZN5boost9exceptionC2Ev
	.type	_ZN5boost9exceptionC2Ev, @function
_ZN5boost9exceptionC2Ev:
.LFB12189:
	.file 15 "/usr/include/boost/exception/exception.hpp"
	.loc 15 232 9
	.cfi_startproc
	endbr64
	pushq	%rbp
	.cfi_def_cfa_offset 16
	.cfi_offset 6, -16
	movq	%rsp, %rbp
	.cfi_def_cfa_register 6
	subq	$16, %rsp
	movq	%rdi, -8(%rbp)
.LBB30:
	.loc 15 235 27
	leaq	16+_ZTVN5boost9exceptionE(%rip), %rdx
	movq	-8(%rbp), %rax
	movq	%rdx, (%rax)
	movq	-8(%rbp), %rax
	addq	$8, %rax
	movq	%rax, %rdi
	call	_ZN5boost16exception_detail12refcount_ptrINS0_20error_info_containerEEC1Ev
	.loc 15 233 13
	movq	-8(%rbp), %rax
	movq	$0, 16(%rax)
	.loc 15 234 13
	movq	-8(%rbp), %rax
	movq	$0, 24(%rax)
	.loc 15 235 13
	movq	-8(%rbp), %rax
	movl	$-1, 32(%rax)
.LBE30:
	.loc 15 237 13
	nop
	leave
	.cfi_def_cfa 7, 8
	ret
	.cfi_endproc
.LFE12189:
	.size	_ZN5boost9exceptionC2Ev, .-_ZN5boost9exceptionC2Ev
	.weak	_ZN5boost9exceptionC1Ev
	.set	_ZN5boost9exceptionC1Ev,_ZN5boost9exceptionC2Ev
	.section	.text._ZN5boost9exceptionD2Ev,"axG",@progbits,_ZN5boost9exceptionD5Ev,comdat
	.align 2
	.weak	_ZN5boost9exceptionD2Ev
	.type	_ZN5boost9exceptionD2Ev, @function
_ZN5boost9exceptionD2Ev:
.LFB12192:
	.loc 15 295 5
	.cfi_startproc
	endbr64
	pushq	%rbp
	.cfi_def_cfa_offset 16
	.cfi_offset 6, -16
	movq	%rsp, %rbp
	.cfi_def_cfa_register 6
	subq	$16, %rsp
	movq	%rdi, -8(%rbp)
.LBB31:
	.loc 15 296 18
	leaq	16+_ZTVN5boost9exceptionE(%rip), %rdx
	movq	-8(%rbp), %rax
	movq	%rdx, (%rax)
	.loc 15 298 9
	movq	-8(%rbp), %rax
	addq	$8, %rax
	movq	%rax, %rdi
	call	_ZN5boost16exception_detail12refcount_ptrINS0_20error_info_containerEED1Ev
.LBE31:
	nop
	leave
	.cfi_def_cfa 7, 8
	ret
	.cfi_endproc
.LFE12192:
	.size	_ZN5boost9exceptionD2Ev, .-_ZN5boost9exceptionD2Ev
	.weak	_ZN5boost9exceptionD1Ev
	.set	_ZN5boost9exceptionD1Ev,_ZN5boost9exceptionD2Ev
	.section	.text._ZN5boost9exceptionD0Ev,"axG",@progbits,_ZN5boost9exceptionD5Ev,comdat
	.align 2
	.weak	_ZN5boost9exceptionD0Ev
	.type	_ZN5boost9exceptionD0Ev, @function
_ZN5boost9exceptionD0Ev:
.LFB12194:
	.loc 15 295 5
	.cfi_startproc
	endbr64
	pushq	%rbp
	.cfi_def_cfa_offset 16
	.cfi_offset 6, -16
	movq	%rsp, %rbp
	.cfi_def_cfa_register 6
	subq	$16, %rsp
	movq	%rdi, -8(%rbp)
	.loc 15 298 9
	movq	-8(%rbp), %rax
	movq	%rax, %rdi
	call	_ZN5boost9exceptionD1Ev
	movq	-8(%rbp), %rax
	movl	$40, %esi
	movq	%rax, %rdi
	call	_ZdlPvm@PLT
	leave
	.cfi_def_cfa 7, 8
	ret
	.cfi_endproc
.LFE12194:
	.size	_ZN5boost9exceptionD0Ev, .-_ZN5boost9exceptionD0Ev
	.section	.text._ZN5boost16exception_detail10clone_baseD2Ev,"axG",@progbits,_ZN5boost16exception_detail10clone_baseD5Ev,comdat
	.align 2
	.weak	_ZN5boost16exception_detail10clone_baseD2Ev
	.type	_ZN5boost16exception_detail10clone_baseD2Ev, @function
_ZN5boost16exception_detail10clone_baseD2Ev:
.LFB12202:
	.loc 15 407 13
	.cfi_startproc
	endbr64
	pushq	%rbp
	.cfi_def_cfa_offset 16
	.cfi_offset 6, -16
	movq	%rsp, %rbp
	.cfi_def_cfa_register 6
	movq	%rdi, -8(%rbp)
.LBB32:
	.loc 15 408 17
	leaq	16+_ZTVN5boost16exception_detail10clone_baseE(%rip), %rdx
	movq	-8(%rbp), %rax
	movq	%rdx, (%rax)
.LBE32:
	.loc 15 409 17
	nop
	popq	%rbp
	.cfi_def_cfa 7, 8
	ret
	.cfi_endproc
.LFE12202:
	.size	_ZN5boost16exception_detail10clone_baseD2Ev, .-_ZN5boost16exception_detail10clone_baseD2Ev
	.weak	_ZN5boost16exception_detail10clone_baseD1Ev
	.set	_ZN5boost16exception_detail10clone_baseD1Ev,_ZN5boost16exception_detail10clone_baseD2Ev
	.section	.text._ZN5boost16exception_detail10clone_baseD0Ev,"axG",@progbits,_ZN5boost16exception_detail10clone_baseD5Ev,comdat
	.align 2
	.weak	_ZN5boost16exception_detail10clone_baseD0Ev
	.type	_ZN5boost16exception_detail10clone_baseD0Ev, @function
_ZN5boost16exception_detail10clone_baseD0Ev:
.LFB12204:
	.loc 15 407 13
	.cfi_startproc
	endbr64
	pushq	%rbp
	.cfi_def_cfa_offset 16
	.cfi_offset 6, -16
	movq	%rsp, %rbp
	.cfi_def_cfa_register 6
	subq	$16, %rsp
	movq	%rdi, -8(%rbp)
	.loc 15 409 17
	movq	-8(%rbp), %rax
	movq	%rax, %rdi
	call	_ZN5boost16exception_detail10clone_baseD1Ev
	movq	-8(%rbp), %rax
	movl	$8, %esi
	movq	%rax, %rdi
	call	_ZdlPvm@PLT
	leave
	.cfi_def_cfa 7, 8
	ret
	.cfi_endproc
.LFE12204:
	.size	_ZN5boost16exception_detail10clone_baseD0Ev, .-_ZN5boost16exception_detail10clone_baseD0Ev
	.section	.text._ZN5boost16exception_detail20copy_boost_exceptionEPNS_9exceptionEPKS1_,"axG",@progbits,_ZN5boost16exception_detail20copy_boost_exceptionEPNS_9exceptionEPKS1_,comdat
	.weak	_ZN5boost16exception_detail20copy_boost_exceptionEPNS_9exceptionEPKS1_
	.type	_ZN5boost16exception_detail20copy_boost_exceptionEPNS_9exceptionEPKS1_, @function
_ZN5boost16exception_detail20copy_boost_exceptionEPNS_9exceptionEPKS1_:
.LFB12205:
	.loc 15 415 13
	.cfi_startproc
	.cfi_personality 0x9b,DW.ref.__gxx_personality_v0
	.cfi_lsda 0x1b,.LLSDA12205
	endbr64
	pushq	%rbp
	.cfi_def_cfa_offset 16
	.cfi_offset 6, -16
	movq	%rsp, %rbp
	.cfi_def_cfa_register 6
	pushq	%rbx
	subq	$56, %rsp
	.cfi_offset 3, -24
	movq	%rdi, -56(%rbp)
	movq	%rsi, -64(%rbp)
	.loc 15 415 13
	movq	%fs:40, %rax
	movq	%rax, -24(%rbp)
	xorl	%eax, %eax
	.loc 15 416 48
	leaq	-48(%rbp), %rax
	movq	%rax, %rdi
	call	_ZN5boost16exception_detail12refcount_ptrINS0_20error_info_containerEEC1Ev
.LBB33:
	.loc 15 417 54
	movq	-64(%rbp), %rax
	addq	$8, %rax
	movq	%rax, %rdi
	call	_ZNK5boost16exception_detail12refcount_ptrINS0_20error_info_containerEE3getEv
	movq	%rax, -32(%rbp)
	.loc 15 417 13
	cmpq	$0, -32(%rbp)
	je	.L96
	.loc 15 418 32
	movq	-32(%rbp), %rax
	movq	(%rax), %rax
	addq	$40, %rax
	movq	(%rax), %rcx
	leaq	-40(%rbp), %rax
	movq	-32(%rbp), %rdx
	movq	%rdx, %rsi
	movq	%rax, %rdi
.LEHB3:
	call	*%rcx
.LVL0:
.LEHE3:
	.loc 15 418 33 discriminator 1
	leaq	-40(%rbp), %rdx
	leaq	-48(%rbp), %rax
	movq	%rdx, %rsi
	movq	%rax, %rdi
.LEHB4:
	call	_ZN5boost16exception_detail12refcount_ptrINS0_20error_info_containerEEaSERKS3_
.LEHE4:
	.loc 15 418 32 discriminator 3
	leaq	-40(%rbp), %rax
	movq	%rax, %rdi
	call	_ZN5boost16exception_detail12refcount_ptrINS0_20error_info_containerEED1Ev
.L96:
.LBE33:
	.loc 15 419 33
	movq	-64(%rbp), %rax
	movq	24(%rax), %rdx
	.loc 15 419 28
	movq	-56(%rbp), %rax
	movq	%rdx, 24(%rax)
	.loc 15 420 33
	movq	-64(%rbp), %rax
	movl	32(%rax), %edx
	.loc 15 420 28
	movq	-56(%rbp), %rax
	movl	%edx, 32(%rax)
	.loc 15 421 37
	movq	-64(%rbp), %rax
	movq	16(%rax), %rdx
	.loc 15 421 32
	movq	-56(%rbp), %rax
	movq	%rdx, 16(%rax)
	.loc 15 422 24
	movq	-56(%rbp), %rax
	leaq	8(%rax), %rdx
	leaq	-48(%rbp), %rax
	movq	%rax, %rsi
	movq	%rdx, %rdi
.LEHB5:
	call	_ZN5boost16exception_detail12refcount_ptrINS0_20error_info_containerEEaSERKS3_
.LEHE5:
	.loc 15 423 13
	leaq	-48(%rbp), %rax
	movq	%rax, %rdi
	call	_ZN5boost16exception_detail12refcount_ptrINS0_20error_info_containerEED1Ev
	movq	-24(%rbp), %rax
	subq	%fs:40, %rax
	je	.L99
	jmp	.L102
.L101:
	endbr64
.LBB34:
	.loc 15 418 32
	movq	%rax, %rbx
	leaq	-40(%rbp), %rax
	movq	%rax, %rdi
	call	_ZN5boost16exception_detail12refcount_ptrINS0_20error_info_containerEED1Ev
	jmp	.L98
.L100:
	endbr64
.LBE34:
	.loc 15 423 13
	movq	%rax, %rbx
.L98:
	leaq	-48(%rbp), %rax
	movq	%rax, %rdi
	call	_ZN5boost16exception_detail12refcount_ptrINS0_20error_info_containerEED1Ev
	movq	%rbx, %rax
	movq	%rax, %rdi
.LEHB6:
	call	_Unwind_Resume@PLT
.LEHE6:
.L102:
	call	__stack_chk_fail@PLT
.L99:
	movq	-8(%rbp), %rbx
	leave
	.cfi_def_cfa 7, 8
	ret
	.cfi_endproc
.LFE12205:
	.section	.gcc_except_table._ZN5boost16exception_detail20copy_boost_exceptionEPNS_9exceptionEPKS1_,"aG",@progbits,_ZN5boost16exception_detail20copy_boost_exceptionEPNS_9exceptionEPKS1_,comdat
.LLSDA12205:
	.byte	0xff
	.byte	0xff
	.byte	0x1
	.uleb128 .LLSDACSE12205-.LLSDACSB12205
.LLSDACSB12205:
	.uleb128 .LEHB3-.LFB12205
	.uleb128 .LEHE3-.LEHB3
	.uleb128 .L100-.LFB12205
	.uleb128 0
	.uleb128 .LEHB4-.LFB12205
	.uleb128 .LEHE4-.LEHB4
	.uleb128 .L101-.LFB12205
	.uleb128 0
	.uleb128 .LEHB5-.LFB12205
	.uleb128 .LEHE5-.LEHB5
	.uleb128 .L100-.LFB12205
	.uleb128 0
	.uleb128 .LEHB6-.LFB12205
	.uleb128 .LEHE6-.LEHB6
	.uleb128 0
	.uleb128 0
.LLSDACSE12205:
	.section	.text._ZN5boost16exception_detail20copy_boost_exceptionEPNS_9exceptionEPKS1_,"axG",@progbits,_ZN5boost16exception_detail20copy_boost_exceptionEPNS_9exceptionEPKS1_,comdat
	.size	_ZN5boost16exception_detail20copy_boost_exceptionEPNS_9exceptionEPKS1_, .-_ZN5boost16exception_detail20copy_boost_exceptionEPNS_9exceptionEPKS1_
	.section	.text._ZN5boost9typeindex14stl_type_indexC2ERKSt9type_info,"axG",@progbits,_ZN5boost9typeindex14stl_type_indexC5ERKSt9type_info,comdat
	.align 2
	.weak	_ZN5boost9typeindex14stl_type_indexC2ERKSt9type_info
	.type	_ZN5boost9typeindex14stl_type_indexC2ERKSt9type_info, @function
_ZN5boost9typeindex14stl_type_indexC2ERKSt9type_info:
.LFB12296:
	.file 16 "/usr/include/boost/type_index/stl_type_index.hpp"
	.loc 16 93 12
	.cfi_startproc
	endbr64
	pushq	%rbp
	.cfi_def_cfa_offset 16
	.cfi_offset 6, -16
	movq	%rsp, %rbp
	.cfi_def_cfa_register 6
	movq	%rdi, -8(%rbp)
	movq	%rsi, -16(%rbp)
.LBB35:
	.loc 16 94 11
	movq	-8(%rbp), %rax
	movq	-16(%rbp), %rdx
	movq	%rdx, (%rax)
.LBE35:
	.loc 16 95 6
	nop
	popq	%rbp
	.cfi_def_cfa 7, 8
	ret
	.cfi_endproc
.LFE12296:
	.size	_ZN5boost9typeindex14stl_type_indexC2ERKSt9type_info, .-_ZN5boost9typeindex14stl_type_indexC2ERKSt9type_info
	.weak	_ZN5boost9typeindex14stl_type_indexC1ERKSt9type_info
	.set	_ZN5boost9typeindex14stl_type_indexC1ERKSt9type_info,_ZN5boost9typeindex14stl_type_indexC2ERKSt9type_info
	.section	.text._ZNK5boost9typeindex14stl_type_index9type_infoEv,"axG",@progbits,_ZNK5boost9typeindex14stl_type_index9type_infoEv,comdat
	.align 2
	.weak	_ZNK5boost9typeindex14stl_type_index9type_infoEv
	.type	_ZNK5boost9typeindex14stl_type_index9type_infoEv, @function
_ZNK5boost9typeindex14stl_type_index9type_infoEv:
.LFB12298:
	.loc 16 117 92
	.cfi_startproc
	endbr64
	pushq	%rbp
	.cfi_def_cfa_offset 16
	.cfi_offset 6, -16
	movq	%rsp, %rbp
	.cfi_def_cfa_register 6
	movq	%rdi, -8(%rbp)
	.loc 16 118 13
	movq	-8(%rbp), %rax
	movq	(%rax), %rax
	.loc 16 119 1
	popq	%rbp
	.cfi_def_cfa 7, 8
	ret
	.cfi_endproc
.LFE12298:
	.size	_ZNK5boost9typeindex14stl_type_index9type_infoEv, .-_ZNK5boost9typeindex14stl_type_index9type_infoEv
	.section	.text._ZNK5boost9typeindex14stl_type_index5equalERKS1_,"axG",@progbits,_ZNK5boost9typeindex14stl_type_index5equalERKS1_,comdat
	.align 2
	.weak	_ZNK5boost9typeindex14stl_type_index5equalERKS1_
	.type	_ZNK5boost9typeindex14stl_type_index5equalERKS1_, @function
_ZNK5boost9typeindex14stl_type_index5equalERKS1_:
.LFB12303:
	.loc 16 206 83
	.cfi_startproc
	endbr64
	pushq	%rbp
	.cfi_def_cfa_offset 16
	.cfi_offset 6, -16
	movq	%rsp, %rbp
	.cfi_def_cfa_register 6
	subq	$16, %rsp
	movq	%rdi, -8(%rbp)
	movq	%rsi, -16(%rbp)
	.loc 16 210 30
	movq	-16(%rbp), %rax
	movq	(%rax), %rdx
	.loc 16 210 16
	movq	-8(%rbp), %rax
	movq	(%rax), %rax
	.loc 16 210 12
	movq	%rdx, %rsi
	movq	%rax, %rdi
	call	_ZNKSt9type_infoeqERKS_
	.loc 16 212 1
	leave
	.cfi_def_cfa 7, 8
	ret
	.cfi_endproc
.LFE12303:
	.size	_ZNK5boost9typeindex14stl_type_index5equalERKS1_, .-_ZNK5boost9typeindex14stl_type_index5equalERKS1_
	.section	.text._ZN5boost13function_baseC2Ev,"axG",@progbits,_ZN5boost13function_baseC5Ev,comdat
	.align 2
	.weak	_ZN5boost13function_baseC2Ev
	.type	_ZN5boost13function_baseC2Ev, @function
_ZN5boost13function_baseC2Ev:
.LFB12343:
	.file 17 "/usr/include/boost/function/function_base.hpp"
	.loc 17 603 3
	.cfi_startproc
	endbr64
	pushq	%rbp
	.cfi_def_cfa_offset 16
	.cfi_offset 6, -16
	movq	%rsp, %rbp
	.cfi_def_cfa_register 6
	movq	%rdi, -8(%rbp)
.LBB36:
	.loc 17 603 21
	movq	-8(%rbp), %rax
	movq	$0, (%rax)
.LBE36:
	.loc 17 603 33
	nop
	popq	%rbp
	.cfi_def_cfa 7, 8
	ret
	.cfi_endproc
.LFE12343:
	.size	_ZN5boost13function_baseC2Ev, .-_ZN5boost13function_baseC2Ev
	.weak	_ZN5boost13function_baseC1Ev
	.set	_ZN5boost13function_baseC1Ev,_ZN5boost13function_baseC2Ev
	.section	.text._ZNK5boost13function_base5emptyEv,"axG",@progbits,_ZNK5boost13function_base5emptyEv,comdat
	.align 2
	.weak	_ZNK5boost13function_base5emptyEv
	.type	_ZNK5boost13function_base5emptyEv, @function
_ZNK5boost13function_base5emptyEv:
.LFB12345:
	.loc 17 606 8
	.cfi_startproc
	endbr64
	pushq	%rbp
	.cfi_def_cfa_offset 16
	.cfi_offset 6, -16
	movq	%rsp, %rbp
	.cfi_def_cfa_register 6
	movq	%rdi, -8(%rbp)
	.loc 17 606 32
	movq	-8(%rbp), %rax
	movq	(%rax), %rax
	testq	%rax, %rax
	sete	%al
	.loc 17 606 40
	popq	%rbp
	.cfi_def_cfa 7, 8
	ret
	.cfi_endproc
.LFE12345:
	.size	_ZNK5boost13function_base5emptyEv, .-_ZNK5boost13function_base5emptyEv
	.section	.text._ZNK5boost13function_base28has_trivial_copy_and_destroyEv,"axG",@progbits,_ZNK5boost13function_base28has_trivial_copy_and_destroyEv,comdat
	.align 2
	.weak	_ZNK5boost13function_base28has_trivial_copy_and_destroyEv
	.type	_ZNK5boost13function_base28has_trivial_copy_and_destroyEv, @function
_ZNK5boost13function_base28has_trivial_copy_and_destroyEv:
.LFB12351:
	.loc 17 689 8
	.cfi_startproc
	endbr64
	pushq	%rbp
	.cfi_def_cfa_offset 16
	.cfi_offset 6, -16
	movq	%rsp, %rbp
	.cfi_def_cfa_register 6
	movq	%rdi, -8(%rbp)
	.loc 17 690 42
	movq	-8(%rbp), %rax
	movq	(%rax), %rax
	.loc 17 690 50
	andl	$1, %eax
	.loc 17 690 52
	testq	%rax, %rax
	setne	%al
	.loc 17 691 3
	popq	%rbp
	.cfi_def_cfa 7, 8
	ret
	.cfi_endproc
.LFE12351:
	.size	_ZNK5boost13function_base28has_trivial_copy_and_destroyEv, .-_ZNK5boost13function_base28has_trivial_copy_and_destroyEv
	.section	.rodata
.LC7:
	.string	"call to empty boost::function"
	.section	.text._ZN5boost17bad_function_callC2Ev,"axG",@progbits,_ZN5boost17bad_function_callC5Ev,comdat
	.align 2
	.weak	_ZN5boost17bad_function_callC2Ev
	.type	_ZN5boost17bad_function_callC2Ev, @function
_ZN5boost17bad_function_callC2Ev:
.LFB12353:
	.loc 17 708 3
	.cfi_startproc
	endbr64
	pushq	%rbp
	.cfi_def_cfa_offset 16
	.cfi_offset 6, -16
	movq	%rsp, %rbp
	.cfi_def_cfa_register 6
	subq	$16, %rsp
	movq	%rdi, -8(%rbp)
.LBB37:
	.loc 17 708 75
	movq	-8(%rbp), %rax
	leaq	.LC7(%rip), %rdx
	movq	%rdx, %rsi
	movq	%rax, %rdi
	call	_ZNSt13runtime_errorC2EPKc@PLT
	leaq	16+_ZTVN5boost17bad_function_callE(%rip), %rdx
	movq	-8(%rbp), %rax
	movq	%rdx, (%rax)
.LBE37:
	.loc 17 708 78
	nop
	leave
	.cfi_def_cfa 7, 8
	ret
	.cfi_endproc
.LFE12353:
	.size	_ZN5boost17bad_function_callC2Ev, .-_ZN5boost17bad_function_callC2Ev
	.weak	_ZN5boost17bad_function_callC1Ev
	.set	_ZN5boost17bad_function_callC1Ev,_ZN5boost17bad_function_callC2Ev
	.section	.text._ZN5boost6detail8function16has_empty_targetEz,"axG",@progbits,_ZN5boost6detail8function16has_empty_targetEz,comdat
	.weak	_ZN5boost6detail8function16has_empty_targetEz
	.type	_ZN5boost6detail8function16has_empty_targetEz, @function
_ZN5boost6detail8function16has_empty_targetEz:
.LFB12368:
	.loc 17 864 5
	.cfi_startproc
	endbr64
	pushq	%rbp
	.cfi_def_cfa_offset 16
	.cfi_offset 6, -16
	movq	%rsp, %rbp
	.cfi_def_cfa_register 6
	.loc 17 865 14
	movl	$0, %eax
	.loc 17 866 5
	popq	%rbp
	.cfi_def_cfa 7, 8
	ret
	.cfi_endproc
.LFE12368:
	.size	_ZN5boost6detail8function16has_empty_targetEz, .-_ZN5boost6detail8function16has_empty_targetEz
	.globl	ti
	.bss
	.align 8
	.type	ti, @object
	.size	ti, 8
ti:
	.zero	8
	.globl	rwlock
	.align 32
	.type	rwlock, @object
	.size	rwlock, 56
rwlock:
	.zero	56
	.globl	g_primary_offset
	.align 4
	.type	g_primary_offset, @object
	.size	g_primary_offset, 4
g_primary_offset:
	.zero	4
	.globl	g_index
	.align 4
	.type	g_index, @object
	.size	g_index, 4
g_index:
	.zero	4
	.globl	g_secondary_offset_b4
	.align 4
	.type	g_secondary_offset_b4, @object
	.size	g_secondary_offset_b4, 4
g_secondary_offset_b4:
	.zero	4
	.globl	g_secondary_offset_after
	.align 4
	.type	g_secondary_offset_after, @object
	.size	g_secondary_offset_after, 4
g_secondary_offset_after:
	.zero	4
	.globl	_Z9g_sec_keyB5cxx11
	.align 32
	.type	_Z9g_sec_keyB5cxx11, @object
	.size	_Z9g_sec_keyB5cxx11, 32
_Z9g_sec_keyB5cxx11:
	.zero	32
	.text
	.globl	_Z3putPv
	.type	_Z3putPv, @function
_Z3putPv:
.LFB13363:
	.file 18 "ti_api.cpp"
	.loc 18 12 20
	.cfi_startproc
	endbr64
	pushq	%rbp
	.cfi_def_cfa_offset 16
	.cfi_offset 6, -16
	movq	%rsp, %rbp
	.cfi_def_cfa_register 6
	pushq	%rbx
	subq	$56, %rsp
	.cfi_offset 3, -24
	movq	%rdi, -56(%rbp)
	.loc 18 13 15
	movq	-56(%rbp), %rax
	movq	%rax, -32(%rbp)
	.loc 18 14 23
	leaq	rwlock(%rip), %rax
	movq	%rax, %rdi
	call	pthread_rwlock_wrlock@PLT
.LBB38:
	.loc 18 16 8
	movl	$0, -36(%rbp)
	.loc 18 16 2
	jmp	.L117
.L120:
.LBB39:
	.loc 18 17 22
	movq	ti(%rip), %rax
	.loc 18 17 43
	movq	%rax, %rdx
	.loc 18 17 40
	movq	-32(%rbp), %rax
	addq	$24, %rax
	.loc 18 17 43
	movq	%rax, %rsi
	movq	%rdx, %rdi
	call	_ZNSt13unordered_mapINSt7__cxx1112basic_stringIcSt11char_traitsIcESaIcEEESt6vectorIP8TinyblobSaIS8_EESt4hashIS5_ESt8equal_toIS5_ESaISt4pairIKS5_SA_EEEixERSG_
	movq	%rax, %rdx
	.loc 18 17 46
	movl	-36(%rbp), %eax
	cltq
	movq	%rax, %rsi
	movq	%rdx, %rdi
	call	_ZNSt6vectorIP8TinyblobSaIS1_EEixEm
	movq	(%rax), %rax
	movq	%rax, -24(%rbp)
	.loc 18 18 17
	movq	-24(%rbp), %rax
	movq	%rax, %rdi
	call	_ZN8Tinyblob7is_freeEv
	.loc 18 18 3
	testb	%al, %al
	je	.L118
	.loc 18 19 10
	movq	-32(%rbp), %rax
	addq	$56, %rax
	movq	%rax, %rdi
	call	_ZNKSt7__cxx1112basic_stringIcSt11char_traitsIcESaIcEE5c_strEv
	movq	%rax, %rdx
	.loc 18 19 22
	movq	-24(%rbp), %rax
	movq	48(%rax), %rax
	.loc 18 19 10
	movq	%rdx, %rsi
	movq	%rax, %rdi
	call	strcpy@PLT
	.loc 18 20 15
	movq	-24(%rbp), %rax
	movb	$0, 72(%rax)
	.loc 18 21 4
	jmp	.L119
.L118:
.LBE39:
	.loc 18 16 2 discriminator 2
	addl	$1, -36(%rbp)
.L117:
	.loc 18 16 13 discriminator 1
	movl	-36(%rbp), %eax
	movslq	%eax, %rbx
	.loc 18 16 21 discriminator 1
	movq	ti(%rip), %rax
	.loc 18 16 42 discriminator 1
	movq	%rax, %rdx
	.loc 18 16 39 discriminator 1
	movq	-32(%rbp), %rax
	addq	$24, %rax
	.loc 18 16 42 discriminator 1
	movq	%rax, %rsi
	movq	%rdx, %rdi
	call	_ZNSt13unordered_mapINSt7__cxx1112basic_stringIcSt11char_traitsIcESaIcEEESt6vectorIP8TinyblobSaIS8_EESt4hashIS5_ESt8equal_toIS5_ESaISt4pairIKS5_SA_EEEixERSG_
	.loc 18 16 48 discriminator 1
	movq	%rax, %rdi
	call	_ZNKSt6vectorIP8TinyblobSaIS1_EE4sizeEv
	.loc 18 16 15 discriminator 1
	cmpq	%rax, %rbx
	setb	%al
	testb	%al, %al
	jne	.L120
.L119:
.LBE38:
	.loc 18 25 9
	movq	ti(%rip), %rax
	.loc 18 25 30
	movq	%rax, %rdx
	.loc 18 25 27
	movq	-32(%rbp), %rax
	addq	$24, %rax
	.loc 18 25 30
	movq	%rax, %rsi
	movq	%rdx, %rdi
	call	_ZNSt13unordered_mapINSt7__cxx1112basic_stringIcSt11char_traitsIcESaIcEEESt6vectorIP8TinyblobSaIS8_EESt4hashIS5_ESt8equal_toIS5_ESaISt4pairIKS5_SA_EEEixERSG_
	.loc 18 25 36
	movq	%rax, %rdi
	call	_ZNKSt6vectorIP8TinyblobSaIS1_EE4sizeEv
	.loc 18 25 44
	testq	%rax, %rax
	je	.L121
	.loc 18 25 47 discriminator 2
	movl	-36(%rbp), %eax
	movslq	%eax, %rbx
	.loc 18 25 56 discriminator 2
	movq	ti(%rip), %rax
	.loc 18 25 77 discriminator 2
	movq	%rax, %rdx
	.loc 18 25 74 discriminator 2
	movq	-32(%rbp), %rax
	addq	$24, %rax
	.loc 18 25 77 discriminator 2
	movq	%rax, %rsi
	movq	%rdx, %rdi
	call	_ZNSt13unordered_mapINSt7__cxx1112basic_stringIcSt11char_traitsIcESaIcEEESt6vectorIP8TinyblobSaIS8_EESt4hashIS5_ESt8equal_toIS5_ESaISt4pairIKS5_SA_EEEixERSG_
	.loc 18 25 83 discriminator 2
	movq	%rax, %rdi
	call	_ZNKSt6vectorIP8TinyblobSaIS1_EE4sizeEv
	.loc 18 25 44 discriminator 2
	cmpq	%rax, %rbx
	jne	.L122
.L121:
	.loc 18 25 44 is_stmt 0 discriminator 3
	movl	$1, %eax
	jmp	.L123
.L122:
	.loc 18 25 44 discriminator 4
	movl	$0, %eax
.L123:
	.loc 18 25 2 is_stmt 1 discriminator 6
	testb	%al, %al
	je	.L124
	.loc 18 26 9
	movl	$0, -36(%rbp)
	.loc 18 26 3
	jmp	.L125
.L128:
	.loc 18 27 14
	movl	-36(%rbp), %eax
	cltq
	movq	%rax, %rsi
	leaq	blobs(%rip), %rax
	movq	%rax, %rdi
	call	_ZNSt6vectorIP8TinyblobSaIS1_EEixEm
	.loc 18 27 24
	movq	(%rax), %rax
	movq	%rax, %rdi
	call	_ZN8Tinyblob7is_freeEv
	.loc 18 27 4
	testb	%al, %al
	je	.L126
	.loc 18 28 9
	movq	ti(%rip), %rax
	.loc 18 28 30
	movq	%rax, %rdx
	.loc 18 28 27
	movq	-32(%rbp), %rax
	addq	$24, %rax
	.loc 18 28 30
	movq	%rax, %rsi
	movq	%rdx, %rdi
	call	_ZNSt13unordered_mapINSt7__cxx1112basic_stringIcSt11char_traitsIcESaIcEEESt6vectorIP8TinyblobSaIS8_EESt4hashIS5_ESt8equal_toIS5_ESaISt4pairIKS5_SA_EEEixERSG_
	movq	%rax, %rbx
	.loc 18 28 49
	movl	-36(%rbp), %eax
	cltq
	movq	%rax, %rsi
	leaq	blobs(%rip), %rax
	movq	%rax, %rdi
	call	_ZNSt6vectorIP8TinyblobSaIS1_EEixEm
	.loc 18 28 41
	movq	%rax, %rsi
	movq	%rbx, %rdi
	call	_ZNSt6vectorIP8TinyblobSaIS1_EE9push_backERKS1_
	.loc 18 29 11
	movq	-32(%rbp), %rax
	addq	$56, %rax
	movq	%rax, %rdi
	call	_ZNKSt7__cxx1112basic_stringIcSt11char_traitsIcESaIcEE5c_strEv
	movq	%rax, %rbx
	.loc 18 29 26
	movl	-36(%rbp), %eax
	cltq
	movq	%rax, %rsi
	leaq	blobs(%rip), %rax
	movq	%rax, %rdi
	call	_ZNSt6vectorIP8TinyblobSaIS1_EEixEm
	.loc 18 29 11
	movq	(%rax), %rax
	.loc 18 29 29
	movq	48(%rax), %rax
	.loc 18 29 11
	movq	%rbx, %rsi
	movq	%rax, %rdi
	call	strcpy@PLT
	.loc 18 30 12
	movl	-36(%rbp), %eax
	cltq
	movq	%rax, %rsi
	leaq	blobs(%rip), %rax
	movq	%rax, %rdi
	call	_ZNSt6vectorIP8TinyblobSaIS1_EEixEm
	.loc 18 30 15
	movq	(%rax), %rax
	.loc 18 30 22
	movb	$0, 72(%rax)
	.loc 18 31 5
	jmp	.L124
.L126:
	.loc 18 26 3 discriminator 2
	addl	$1, -36(%rbp)
.L125:
	.loc 18 26 14 discriminator 1
	movl	-36(%rbp), %eax
	movslq	%eax, %rbx
	.loc 18 26 28 discriminator 1
	leaq	blobs(%rip), %rax
	movq	%rax, %rdi
	call	_ZNKSt6vectorIP8TinyblobSaIS1_EE4sizeEv
	.loc 18 26 16 discriminator 1
	cmpq	%rax, %rbx
	setb	%al
	testb	%al, %al
	jne	.L128
.L124:
	.loc 18 36 5
	movl	-36(%rbp), %eax
	movslq	%eax, %rbx
	.loc 18 36 20
	leaq	blobs(%rip), %rax
	movq	%rax, %rdi
	call	_ZNKSt6vectorIP8TinyblobSaIS1_EE4sizeEv
	.loc 18 36 7
	cmpq	%rax, %rbx
	sete	%al
	.loc 18 36 2
	testb	%al, %al
	je	.L129
	.loc 18 37 38
	leaq	rwlock(%rip), %rax
	movq	%rax, %rdi
	call	pthread_rwlock_unlock@PLT
	.loc 18 38 37
	leaq	barrier(%rip), %rax
	movq	%rax, %rdi
	call	pthread_barrier_wait@PLT
	.loc 18 39 17
	movq	-32(%rbp), %rax
	movl	$-1, 88(%rax)
	.loc 18 40 11
	movl	$-1, %eax
	jmp	.L130
.L129:
	.loc 18 42 23
	leaq	rwlock(%rip), %rax
	movq	%rax, %rdi
	call	pthread_rwlock_unlock@PLT
	.loc 18 43 29
	leaq	barrier(%rip), %rax
	movq	%rax, %rdi
	call	pthread_barrier_wait@PLT
	.loc 18 44 16
	movq	-32(%rbp), %rax
	movl	$0, 88(%rax)
	.loc 18 45 9
	movl	$0, %eax
.L130:
	.loc 18 46 1
	movq	-8(%rbp), %rbx
	leave
	.cfi_def_cfa 7, 8
	ret
	.cfi_endproc
.LFE13363:
	.size	_Z3putPv, .-_Z3putPv
	.globl	_Z3getNSt7__cxx1112basic_stringIcSt11char_traitsIcESaIcEEE
	.type	_Z3getNSt7__cxx1112basic_stringIcSt11char_traitsIcESaIcEEE, @function
_Z3getNSt7__cxx1112basic_stringIcSt11char_traitsIcESaIcEEE:
.LFB13364:
	.loc 18 48 45
	.cfi_startproc
	endbr64
	pushq	%rbp
	.cfi_def_cfa_offset 16
	.cfi_offset 6, -16
	movq	%rsp, %rbp
	.cfi_def_cfa_register 6
	subq	$48, %rsp
	movq	%rdi, -40(%rbp)
	.loc 18 48 45
	movq	%fs:40, %rax
	movq	%rax, -8(%rbp)
	xorl	%eax, %eax
	.loc 18 49 27
	movq	ti(%rip), %rax
	.loc 18 49 42
	movq	%rax, %rdx
	movq	-40(%rbp), %rax
	movq	%rax, %rsi
	movq	%rdx, %rdi
	call	_ZNSt13unordered_mapINSt7__cxx1112basic_stringIcSt11char_traitsIcESaIcEEESt6vectorIP8TinyblobSaIS8_EESt4hashIS5_ESt8equal_toIS5_ESaISt4pairIKS5_SA_EEE4findERSG_
	movq	%rax, -24(%rbp)
	.loc 18 50 24
	movq	ti(%rip), %rax
	.loc 18 50 38
	movq	%rax, %rdi
	call	_ZNSt13unordered_mapINSt7__cxx1112basic_stringIcSt11char_traitsIcESaIcEEESt6vectorIP8TinyblobSaIS8_EESt4hashIS5_ESt8equal_toIS5_ESaISt4pairIKS5_SA_EEE3endEv
	movq	%rax, -16(%rbp)
	.loc 18 51 19
	leaq	-16(%rbp), %rdx
	leaq	-24(%rbp), %rax
	movq	%rdx, %rsi
	movq	%rax, %rdi
	call	_ZNSt8__detaileqERKNS_19_Node_iterator_baseISt4pairIKNSt7__cxx1112basic_stringIcSt11char_traitsIcESaIcEEESt6vectorIP8TinyblobSaISB_EEELb1EEESH_
	.loc 18 51 9
	testb	%al, %al
	je	.L132
	.loc 18 52 21
	movq	ti(%rip), %rax
	movq	608(%rax), %rax
	.loc 18 52 35
	movl	$0, 88(%rax)
	.loc 18 53 24
	movl	$0, %eax
	jmp	.L134
.L132:
	.loc 18 55 15
	movq	ti(%rip), %rax
	.loc 18 55 29
	movq	%rax, %rdx
	movq	-40(%rbp), %rax
	movq	%rax, %rsi
	movq	%rdx, %rdi
	call	_ZNSt13unordered_mapINSt7__cxx1112basic_stringIcSt11char_traitsIcESaIcEEESt6vectorIP8TinyblobSaIS8_EESt4hashIS5_ESt8equal_toIS5_ESaISt4pairIKS5_SA_EEEixERSG_
	.loc 18 55 30
	nop
.L134:
	.loc 18 56 1 discriminator 1
	movq	-8(%rbp), %rdx
	subq	%fs:40, %rdx
	je	.L135
	.loc 18 56 1 is_stmt 0
	call	__stack_chk_fail@PLT
.L135:
	leave
	.cfi_def_cfa 7, 8
	ret
	.cfi_endproc
.LFE13364:
	.size	_Z3getNSt7__cxx1112basic_stringIcSt11char_traitsIcESaIcEEE, .-_Z3getNSt7__cxx1112basic_stringIcSt11char_traitsIcESaIcEEE
	.globl	_Z5erasePv
	.type	_Z5erasePv, @function
_Z5erasePv:
.LFB13365:
	.loc 18 75 22 is_stmt 1
	.cfi_startproc
	endbr64
	pushq	%rbp
	.cfi_def_cfa_offset 16
	.cfi_offset 6, -16
	movq	%rsp, %rbp
	.cfi_def_cfa_register 6
	pushq	%rbx
	subq	$72, %rsp
	.cfi_offset 3, -24
	movq	%rdi, -72(%rbp)
	.loc 18 75 22
	movq	%fs:40, %rax
	movq	%rax, -24(%rbp)
	xorl	%eax, %eax
	.loc 18 76 15
	movq	-72(%rbp), %rax
	movq	%rax, -32(%rbp)
	.loc 18 77 18
	movl	$0, -52(%rbp)
	.loc 18 78 23
	leaq	rwlock(%rip), %rax
	movq	%rax, %rdi
	call	pthread_rwlock_wrlock@PLT
.LBB40:
	.loc 18 79 27
	movq	ti(%rip), %rax
	.loc 18 79 43
	movq	%rax, %rdi
	call	_ZNSt13unordered_mapINSt7__cxx1112basic_stringIcSt11char_traitsIcESaIcEEESt6vectorIP8TinyblobSaIS8_EESt4hashIS5_ESt8equal_toIS5_ESaISt4pairIKS5_SA_EEE5beginEv
	movq	%rax, -48(%rbp)
	.loc 18 79 9
	jmp	.L137
.L140:
	.loc 18 80 40
	movq	-32(%rbp), %rax
	leaq	24(%rax), %rbx
	.loc 18 80 22
	leaq	-48(%rbp), %rax
	movq	%rax, %rdi
	call	_ZNKSt8__detail14_Node_iteratorISt4pairIKNSt7__cxx1112basic_stringIcSt11char_traitsIcESaIcEEESt6vectorIP8TinyblobSaISB_EEELb0ELb1EEptEv
	.loc 18 80 30
	movq	%rbx, %rsi
	movq	%rax, %rdi
	call	_ZSteqIcEN9__gnu_cxx11__enable_ifIXsrSt9__is_charIT_E7__valueEbE6__typeERKNSt7__cxx1112basic_stringIS3_St11char_traitsIS3_ESaIS3_EEESE_
	.loc 18 80 17
	testb	%al, %al
	je	.L138
	.loc 18 81 29
	movq	ti(%rip), %rax
	.loc 18 81 45
	movq	%rax, %rdx
	movq	-48(%rbp), %rax
	movq	%rax, %rsi
	movq	%rdx, %rdi
	call	_ZNSt13unordered_mapINSt7__cxx1112basic_stringIcSt11char_traitsIcESaIcEEESt6vectorIP8TinyblobSaIS8_EESt4hashIS5_ESt8equal_toIS5_ESaISt4pairIKS5_SA_EEE5eraseENSt8__detail14_Node_iteratorISH_Lb0ELb1EEE
	.loc 18 82 27
	movl	$1, -52(%rbp)
	.loc 18 83 25
	jmp	.L139
.L138:
	.loc 18 79 77 discriminator 2
	leaq	-48(%rbp), %rax
	movl	$0, %esi
	movq	%rax, %rdi
	call	_ZNSt8__detail14_Node_iteratorISt4pairIKNSt7__cxx1112basic_stringIcSt11char_traitsIcESaIcEEESt6vectorIP8TinyblobSaISB_EEELb0ELb1EEppEi
.L137:
	.loc 18 79 57 discriminator 1
	movq	ti(%rip), %rax
	.loc 18 79 71 discriminator 1
	movq	%rax, %rdi
	call	_ZNSt13unordered_mapINSt7__cxx1112basic_stringIcSt11char_traitsIcESaIcEEESt6vectorIP8TinyblobSaIS8_EESt4hashIS5_ESt8equal_toIS5_ESaISt4pairIKS5_SA_EEE3endEv
	movq	%rax, -40(%rbp)
	.loc 18 79 72 discriminator 1
	leaq	-40(%rbp), %rdx
	leaq	-48(%rbp), %rax
	movq	%rdx, %rsi
	movq	%rax, %rdi
	call	_ZNSt8__detaileqERKNS_19_Node_iterator_baseISt4pairIKNSt7__cxx1112basic_stringIcSt11char_traitsIcESaIcEEESt6vectorIP8TinyblobSaISB_EEELb1EEESH_
	.loc 18 79 50 discriminator 1
	xorl	$1, %eax
	testb	%al, %al
	jne	.L140
.L139:
.LBE40:
	.loc 18 86 9
	cmpl	$0, -52(%rbp)
	je	.L141
	.loc 18 87 17
	movq	-32(%rbp), %rax
	movl	$0, 88(%rax)
	.loc 18 88 24
	leaq	rwlock(%rip), %rax
	movq	%rax, %rdi
	call	pthread_rwlock_unlock@PLT
	.loc 18 89 23
	leaq	barrier(%rip), %rax
	movq	%rax, %rdi
	call	pthread_barrier_wait@PLT
	.loc 18 90 24
	movl	$0, %eax
	jmp	.L142
.L141:
	.loc 18 93 17
	movq	-32(%rbp), %rax
	movl	$-1, 88(%rax)
	.loc 18 94 24
	leaq	rwlock(%rip), %rax
	movq	%rax, %rdi
	call	pthread_rwlock_unlock@PLT
	.loc 18 95 23
	leaq	barrier(%rip), %rax
	movq	%rax, %rdi
	call	pthread_barrier_wait@PLT
	.loc 18 96 25
	movl	$-1, %eax
.L142:
	.loc 18 98 1
	movq	-24(%rbp), %rdx
	subq	%fs:40, %rdx
	je	.L143
	call	__stack_chk_fail@PLT
.L143:
	movq	-8(%rbp), %rbx
	leave
	.cfi_def_cfa 7, 8
	ret
	.cfi_endproc
.LFE13365:
	.size	_Z5erasePv, .-_Z5erasePv
	.section	.rodata
.LC8:
	.string	"device/raw/pairs.txt"
.LC9:
	.string	"Error open"
	.text
	.globl	_Z9scan_initv
	.type	_Z9scan_initv, @function
_Z9scan_initv:
.LFB13366:
	.loc 18 100 30
	.cfi_startproc
	.cfi_personality 0x9b,DW.ref.__gxx_personality_v0
	.cfi_lsda 0x1b,.LLSDA13366
	endbr64
	pushq	%rbp
	.cfi_def_cfa_offset 16
	.cfi_offset 6, -16
	movq	%rsp, %rbp
	.cfi_def_cfa_register 6
	pushq	%rbx
	subq	$24, %rsp
	.cfi_offset 3, -24
	movq	%rdi, -24(%rbp)
	.loc 18 101 16
	movq	-24(%rbp), %rax
	movq	%rax, %rdi
.LEHB7:
	call	_ZNSt14basic_ifstreamIcSt11char_traitsIcEEC1Ev@PLT
.LEHE7:
	.loc 18 102 21
	movq	-24(%rbp), %rax
	movl	$8, %edx
	leaq	.LC8(%rip), %rcx
	movq	%rcx, %rsi
	movq	%rax, %rdi
.LEHB8:
	call	_ZNSt14basic_ifstreamIcSt11char_traitsIcEE4openEPKcSt13_Ios_Openmode@PLT
	.loc 18 103 28
	movq	-24(%rbp), %rax
	movq	%rax, %rdi
	call	_ZNSt14basic_ifstreamIcSt11char_traitsIcEE7is_openEv@PLT
	.loc 18 103 12
	xorl	$1, %eax
	.loc 18 103 9
	testb	%al, %al
	je	.L145
	.loc 18 104 23
	leaq	.LC9(%rip), %rax
	movq	%rax, %rdi
	call	perror@PLT
	.loc 18 105 21
	movl	$1, %edi
	call	exit@PLT
.L145:
	.loc 18 107 28
	movq	ti(%rip), %rax
	leaq	56(%rax), %rdx
	.loc 18 107 14
	movq	-24(%rbp), %rax
	movq	%rdx, %rsi
	movq	%rax, %rdi
	call	_ZSt7getlineIcSt11char_traitsIcESaIcEERSt13basic_istreamIT_T0_ES7_RNSt7__cxx1112basic_stringIS4_S5_T1_EE@PLT
.LEHE8:
	.loc 18 108 9
	jmp	.L149
.L148:
	endbr64
	.loc 18 109 1
	movq	%rax, %rbx
	movq	-24(%rbp), %rax
	movq	%rax, %rdi
	call	_ZNSt14basic_ifstreamIcSt11char_traitsIcEED1Ev@PLT
	movq	%rbx, %rax
	movq	%rax, %rdi
.LEHB9:
	call	_Unwind_Resume@PLT
.LEHE9:
.L149:
	movq	-24(%rbp), %rax
	movq	-8(%rbp), %rbx
	leave
	.cfi_def_cfa 7, 8
	ret
	.cfi_endproc
.LFE13366:
	.section	.gcc_except_table,"a",@progbits
.LLSDA13366:
	.byte	0xff
	.byte	0xff
	.byte	0x1
	.uleb128 .LLSDACSE13366-.LLSDACSB13366
.LLSDACSB13366:
	.uleb128 .LEHB7-.LFB13366
	.uleb128 .LEHE7-.LEHB7
	.uleb128 0
	.uleb128 0
	.uleb128 .LEHB8-.LFB13366
	.uleb128 .LEHE8-.LEHB8
	.uleb128 .L148-.LFB13366
	.uleb128 0
	.uleb128 .LEHB9-.LFB13366
	.uleb128 .LEHE9-.LEHB9
	.uleb128 0
	.uleb128 0
.LLSDACSE13366:
	.text
	.size	_Z9scan_initv, .-_Z9scan_initv
	.globl	_Z8get_nextPSt14basic_ifstreamIcSt11char_traitsIcEE
	.type	_Z8get_nextPSt14basic_ifstreamIcSt11char_traitsIcEE, @function
_Z8get_nextPSt14basic_ifstreamIcSt11char_traitsIcEE:
.LFB13367:
	.loc 18 112 37
	.cfi_startproc
	endbr64
	pushq	%rbp
	.cfi_def_cfa_offset 16
	.cfi_offset 6, -16
	movq	%rsp, %rbp
	.cfi_def_cfa_register 6
	subq	$16, %rsp
	movq	%rdi, -8(%rbp)
	.loc 18 113 23
	leaq	rwlock(%rip), %rax
	movq	%rax, %rdi
	call	pthread_rwlock_wrlock@PLT
	.loc 18 114 32
	movq	ti(%rip), %rax
	leaq	56(%rax), %rdx
	.loc 18 114 17
	movq	-8(%rbp), %rax
	movq	%rdx, %rsi
	movq	%rax, %rdi
	call	_ZSt7getlineIcSt11char_traitsIcESaIcEERSt13basic_istreamIT_T0_ES7_RNSt7__cxx1112basic_stringIS4_S5_T1_EE@PLT
	.loc 18 114 42
	movq	(%rax), %rdx
	subq	$24, %rdx
	movq	(%rdx), %rdx
	addq	%rdx, %rax
	movq	%rax, %rdi
	call	_ZNKSt9basic_iosIcSt11char_traitsIcEEcvbEv@PLT
	.loc 18 114 2
	testb	%al, %al
	je	.L151
	.loc 18 115 24
	leaq	rwlock(%rip), %rax
	movq	%rax, %rdi
	call	pthread_rwlock_unlock@PLT
	.loc 18 116 23
	leaq	barrier(%rip), %rax
	movq	%rax, %rdi
	call	pthread_barrier_wait@PLT
	.loc 18 117 10
	movl	$0, %eax
	jmp	.L152
.L151:
	.loc 18 119 23
	leaq	rwlock(%rip), %rax
	movq	%rax, %rdi
	call	pthread_rwlock_unlock@PLT
	.loc 18 120 22
	leaq	barrier(%rip), %rax
	movq	%rax, %rdi
	call	pthread_barrier_wait@PLT
	.loc 18 121 10
	movl	$-1, %eax
.L152:
	.loc 18 122 1
	leave
	.cfi_def_cfa 7, 8
	ret
	.cfi_endproc
.LFE13367:
	.size	_Z8get_nextPSt14basic_ifstreamIcSt11char_traitsIcEE, .-_Z8get_nextPSt14basic_ifstreamIcSt11char_traitsIcEE
	.section	.text._ZNSt12_Vector_baseINSt7__cxx1112basic_stringIcSt11char_traitsIcESaIcEEESaIS5_EE12_Vector_implD2Ev,"axG",@progbits,_ZNSt12_Vector_baseINSt7__cxx1112basic_stringIcSt11char_traitsIcESaIcEEESaIS5_EE12_Vector_implD5Ev,comdat
	.align 2
	.weak	_ZNSt12_Vector_baseINSt7__cxx1112basic_stringIcSt11char_traitsIcESaIcEEESaIS5_EE12_Vector_implD2Ev
	.type	_ZNSt12_Vector_baseINSt7__cxx1112basic_stringIcSt11char_traitsIcESaIcEEESaIS5_EE12_Vector_implD2Ev, @function
_ZNSt12_Vector_baseINSt7__cxx1112basic_stringIcSt11char_traitsIcESaIcEEESaIS5_EE12_Vector_implD2Ev:
.LFB13373:
	.file 19 "/usr/include/c++/11/bits/stl_vector.h"
	.loc 19 128 14
	.cfi_startproc
	endbr64
	pushq	%rbp
	.cfi_def_cfa_offset 16
	.cfi_offset 6, -16
	movq	%rsp, %rbp
	.cfi_def_cfa_register 6
	subq	$16, %rsp
	movq	%rdi, -8(%rbp)
.LBB41:
	.loc 19 128 14
	movq	-8(%rbp), %rax
	movq	%rax, %rdi
	call	_ZNSaINSt7__cxx1112basic_stringIcSt11char_traitsIcESaIcEEEED2Ev
.LBE41:
	nop
	leave
	.cfi_def_cfa 7, 8
	ret
	.cfi_endproc
.LFE13373:
	.size	_ZNSt12_Vector_baseINSt7__cxx1112basic_stringIcSt11char_traitsIcESaIcEEESaIS5_EE12_Vector_implD2Ev, .-_ZNSt12_Vector_baseINSt7__cxx1112basic_stringIcSt11char_traitsIcESaIcEEESaIS5_EE12_Vector_implD2Ev
	.weak	_ZNSt12_Vector_baseINSt7__cxx1112basic_stringIcSt11char_traitsIcESaIcEEESaIS5_EE12_Vector_implD1Ev
	.set	_ZNSt12_Vector_baseINSt7__cxx1112basic_stringIcSt11char_traitsIcESaIcEEESaIS5_EE12_Vector_implD1Ev,_ZNSt12_Vector_baseINSt7__cxx1112basic_stringIcSt11char_traitsIcESaIcEEESaIS5_EE12_Vector_implD2Ev
	.section	.text._ZNSt12_Vector_baseINSt7__cxx1112basic_stringIcSt11char_traitsIcESaIcEEESaIS5_EEC2Ev,"axG",@progbits,_ZNSt12_Vector_baseINSt7__cxx1112basic_stringIcSt11char_traitsIcESaIcEEESaIS5_EEC5Ev,comdat
	.align 2
	.weak	_ZNSt12_Vector_baseINSt7__cxx1112basic_stringIcSt11char_traitsIcESaIcEEESaIS5_EEC2Ev
	.type	_ZNSt12_Vector_baseINSt7__cxx1112basic_stringIcSt11char_traitsIcESaIcEEESaIS5_EEC2Ev, @function
_ZNSt12_Vector_baseINSt7__cxx1112basic_stringIcSt11char_traitsIcESaIcEEESaIS5_EEC2Ev:
.LFB13375:
	.loc 19 288 7
	.cfi_startproc
	endbr64
	pushq	%rbp
	.cfi_def_cfa_offset 16
	.cfi_offset 6, -16
	movq	%rsp, %rbp
	.cfi_def_cfa_register 6
	subq	$16, %rsp
	movq	%rdi, -8(%rbp)
.LBB42:
	.loc 19 288 7
	movq	-8(%rbp), %rax
	movq	%rax, %rdi
	call	_ZNSt12_Vector_baseINSt7__cxx1112basic_stringIcSt11char_traitsIcESaIcEEESaIS5_EE12_Vector_implC1Ev
.LBE42:
	nop
	leave
	.cfi_def_cfa 7, 8
	ret
	.cfi_endproc
.LFE13375:
	.size	_ZNSt12_Vector_baseINSt7__cxx1112basic_stringIcSt11char_traitsIcESaIcEEESaIS5_EEC2Ev, .-_ZNSt12_Vector_baseINSt7__cxx1112basic_stringIcSt11char_traitsIcESaIcEEESaIS5_EEC2Ev
	.weak	_ZNSt12_Vector_baseINSt7__cxx1112basic_stringIcSt11char_traitsIcESaIcEEESaIS5_EEC1Ev
	.set	_ZNSt12_Vector_baseINSt7__cxx1112basic_stringIcSt11char_traitsIcESaIcEEESaIS5_EEC1Ev,_ZNSt12_Vector_baseINSt7__cxx1112basic_stringIcSt11char_traitsIcESaIcEEESaIS5_EEC2Ev
	.section	.text._ZNSt6vectorINSt7__cxx1112basic_stringIcSt11char_traitsIcESaIcEEESaIS5_EEC2Ev,"axG",@progbits,_ZNSt6vectorINSt7__cxx1112basic_stringIcSt11char_traitsIcESaIcEEESaIS5_EEC5Ev,comdat
	.align 2
	.weak	_ZNSt6vectorINSt7__cxx1112basic_stringIcSt11char_traitsIcESaIcEEESaIS5_EEC2Ev
	.type	_ZNSt6vectorINSt7__cxx1112basic_stringIcSt11char_traitsIcESaIcEEESaIS5_EEC2Ev, @function
_ZNSt6vectorINSt7__cxx1112basic_stringIcSt11char_traitsIcESaIcEEESaIS5_EEC2Ev:
.LFB13377:
	.loc 19 487 7
	.cfi_startproc
	endbr64
	pushq	%rbp
	.cfi_def_cfa_offset 16
	.cfi_offset 6, -16
	movq	%rsp, %rbp
	.cfi_def_cfa_register 6
	subq	$16, %rsp
	movq	%rdi, -8(%rbp)
.LBB43:
	.loc 19 487 7
	movq	-8(%rbp), %rax
	movq	%rax, %rdi
	call	_ZNSt12_Vector_baseINSt7__cxx1112basic_stringIcSt11char_traitsIcESaIcEEESaIS5_EEC2Ev
.LBE43:
	nop
	leave
	.cfi_def_cfa 7, 8
	ret
	.cfi_endproc
.LFE13377:
	.size	_ZNSt6vectorINSt7__cxx1112basic_stringIcSt11char_traitsIcESaIcEEESaIS5_EEC2Ev, .-_ZNSt6vectorINSt7__cxx1112basic_stringIcSt11char_traitsIcESaIcEEESaIS5_EEC2Ev
	.weak	_ZNSt6vectorINSt7__cxx1112basic_stringIcSt11char_traitsIcESaIcEEESaIS5_EEC1Ev
	.set	_ZNSt6vectorINSt7__cxx1112basic_stringIcSt11char_traitsIcESaIcEEESaIS5_EEC1Ev,_ZNSt6vectorINSt7__cxx1112basic_stringIcSt11char_traitsIcESaIcEEESaIS5_EEC2Ev
	.section	.rodata
.LC10:
	.string	","
	.text
	.globl	_Z12get_scan_keyNSt7__cxx1112basic_stringIcSt11char_traitsIcESaIcEEE
	.type	_Z12get_scan_keyNSt7__cxx1112basic_stringIcSt11char_traitsIcESaIcEEE, @function
_Z12get_scan_keyNSt7__cxx1112basic_stringIcSt11char_traitsIcESaIcEEE:
.LFB13368:
	.loc 18 124 51
	.cfi_startproc
	.cfi_personality 0x9b,DW.ref.__gxx_personality_v0
	.cfi_lsda 0x1b,.LLSDA13368
	endbr64
	pushq	%rbp
	.cfi_def_cfa_offset 16
	.cfi_offset 6, -16
	movq	%rsp, %rbp
	.cfi_def_cfa_register 6
	pushq	%rbx
	subq	$88, %rsp
	.cfi_offset 3, -24
	movq	%rdi, -88(%rbp)
	movq	%rsi, -96(%rbp)
	.loc 18 124 51
	movq	%fs:40, %rax
	movq	%rax, -24(%rbp)
	xorl	%eax, %eax
	.loc 18 125 27
	leaq	-80(%rbp), %rax
	movq	%rax, %rdi
	call	_ZNSt6vectorINSt7__cxx1112basic_stringIcSt11char_traitsIcESaIcEEESaIS5_EEC1Ev
	.loc 18 126 61
	leaq	-48(%rbp), %rax
	leaq	.LC10(%rip), %rdx
	movq	%rdx, %rsi
	movq	%rax, %rdi
.LEHB10:
	call	_ZN5boost9algorithm9is_any_ofIA2_cEENS0_6detail10is_any_ofFINS_11range_valueIT_E4typeEEERKS6_
.LEHE10:
	.loc 18 126 21 discriminator 1
	leaq	-48(%rbp), %rdx
	movq	-96(%rbp), %rsi
	leaq	-80(%rbp), %rax
	movl	$1, %ecx
	movq	%rax, %rdi
.LEHB11:
	call	_ZN5boost9algorithm5splitISt6vectorINSt7__cxx1112basic_stringIcSt11char_traitsIcESaIcEEESaIS8_EERS8_NS0_6detail10is_any_ofFIcEEEERT_SG_OT0_T1_NS0_24token_compress_mode_typeE
.LEHE11:
	.loc 18 126 61 discriminator 3
	leaq	-48(%rbp), %rax
	movq	%rax, %rdi
	call	_ZN5boost9algorithm6detail10is_any_ofFIcED1Ev
	.loc 18 127 18 discriminator 3
	leaq	-80(%rbp), %rax
	movl	$0, %esi
	movq	%rax, %rdi
	call	_ZNSt6vectorINSt7__cxx1112basic_stringIcSt11char_traitsIcESaIcEEESaIS5_EEixEm
	movq	%rax, %rdx
	movq	-88(%rbp), %rax
	movq	%rdx, %rsi
	movq	%rax, %rdi
.LEHB12:
	call	_ZNSt7__cxx1112basic_stringIcSt11char_traitsIcESaIcEEC1ERKS4_
.LEHE12:
	.loc 18 127 18 is_stmt 0
	nop
	.loc 18 128 1 is_stmt 1
	leaq	-80(%rbp), %rax
	movq	%rax, %rdi
	call	_ZNSt6vectorINSt7__cxx1112basic_stringIcSt11char_traitsIcESaIcEEESaIS5_EED1Ev
	.loc 18 127 18
	nop
	.loc 18 128 1
	movq	-24(%rbp), %rax
	subq	%fs:40, %rax
	je	.L160
	jmp	.L163
.L162:
	endbr64
	.loc 18 126 61
	movq	%rax, %rbx
	leaq	-48(%rbp), %rax
	movq	%rax, %rdi
	call	_ZN5boost9algorithm6detail10is_any_ofFIcED1Ev
	jmp	.L159
.L161:
	endbr64
	.loc 18 128 1
	movq	%rax, %rbx
.L159:
	leaq	-80(%rbp), %rax
	movq	%rax, %rdi
	call	_ZNSt6vectorINSt7__cxx1112basic_stringIcSt11char_traitsIcESaIcEEESaIS5_EED1Ev
	movq	%rbx, %rax
	movq	%rax, %rdi
.LEHB13:
	call	_Unwind_Resume@PLT
.LEHE13:
.L163:
	call	__stack_chk_fail@PLT
.L160:
	movq	-88(%rbp), %rax
	movq	-8(%rbp), %rbx
	leave
	.cfi_def_cfa 7, 8
	ret
	.cfi_endproc
.LFE13368:
	.section	.gcc_except_table
.LLSDA13368:
	.byte	0xff
	.byte	0xff
	.byte	0x1
	.uleb128 .LLSDACSE13368-.LLSDACSB13368
.LLSDACSB13368:
	.uleb128 .LEHB10-.LFB13368
	.uleb128 .LEHE10-.LEHB10
	.uleb128 .L161-.LFB13368
	.uleb128 0
	.uleb128 .LEHB11-.LFB13368
	.uleb128 .LEHE11-.LEHB11
	.uleb128 .L162-.LFB13368
	.uleb128 0
	.uleb128 .LEHB12-.LFB13368
	.uleb128 .LEHE12-.LEHB12
	.uleb128 .L161-.LFB13368
	.uleb128 0
	.uleb128 .LEHB13-.LFB13368
	.uleb128 .LEHE13-.LEHB13
	.uleb128 0
	.uleb128 0
.LLSDACSE13368:
	.text
	.size	_Z12get_scan_keyNSt7__cxx1112basic_stringIcSt11char_traitsIcESaIcEEE, .-_Z12get_scan_keyNSt7__cxx1112basic_stringIcSt11char_traitsIcESaIcEEE
	.globl	_Z14get_scan_valueNSt7__cxx1112basic_stringIcSt11char_traitsIcESaIcEEE
	.type	_Z14get_scan_valueNSt7__cxx1112basic_stringIcSt11char_traitsIcESaIcEEE, @function
_Z14get_scan_valueNSt7__cxx1112basic_stringIcSt11char_traitsIcESaIcEEE:
.LFB13379:
	.loc 18 130 65
	.cfi_startproc
	.cfi_personality 0x9b,DW.ref.__gxx_personality_v0
	.cfi_lsda 0x1b,.LLSDA13379
	endbr64
	pushq	%rbp
	.cfi_def_cfa_offset 16
	.cfi_offset 6, -16
	movq	%rsp, %rbp
	.cfi_def_cfa_register 6
	pushq	%rbx
	subq	$88, %rsp
	.cfi_offset 3, -24
	movq	%rdi, -88(%rbp)
	.loc 18 130 65
	movq	%fs:40, %rax
	movq	%rax, -24(%rbp)
	xorl	%eax, %eax
	.loc 18 131 34
	leaq	-80(%rbp), %rax
	movq	%rax, %rdi
	call	_ZNSt6vectorINSt7__cxx1112basic_stringIcSt11char_traitsIcESaIcEEESaIS5_EEC1Ev
	.loc 18 132 61
	leaq	-48(%rbp), %rax
	leaq	.LC10(%rip), %rdx
	movq	%rdx, %rsi
	movq	%rax, %rdi
.LEHB14:
	call	_ZN5boost9algorithm9is_any_ofIA2_cEENS0_6detail10is_any_ofFINS_11range_valueIT_E4typeEEERKS6_
.LEHE14:
	.loc 18 132 21 discriminator 1
	leaq	-48(%rbp), %rdx
	movq	-88(%rbp), %rsi
	leaq	-80(%rbp), %rax
	movl	$1, %ecx
	movq	%rax, %rdi
.LEHB15:
	call	_ZN5boost9algorithm5splitISt6vectorINSt7__cxx1112basic_stringIcSt11char_traitsIcESaIcEEESaIS8_EERS8_NS0_6detail10is_any_ofFIcEEEERT_SG_OT0_T1_NS0_24token_compress_mode_typeE
.LEHE15:
	.loc 18 132 61 discriminator 3
	leaq	-48(%rbp), %rax
	movq	%rax, %rdi
	call	_ZN5boost9algorithm6detail10is_any_ofFIcED1Ev
	.loc 18 133 15 discriminator 3
	movq	ti(%rip), %rax
	.loc 18 133 36 discriminator 3
	movq	%rax, %rbx
	.loc 18 133 35 discriminator 3
	leaq	-80(%rbp), %rax
	movl	$0, %esi
	movq	%rax, %rdi
	call	_ZNSt6vectorINSt7__cxx1112basic_stringIcSt11char_traitsIcESaIcEEESaIS5_EEixEm
	.loc 18 133 36 discriminator 3
	movq	%rax, %rsi
	movq	%rbx, %rdi
.LEHB16:
	call	_ZNSt13unordered_mapINSt7__cxx1112basic_stringIcSt11char_traitsIcESaIcEEESt6vectorIP8TinyblobSaIS8_EESt4hashIS5_ESt8equal_toIS5_ESaISt4pairIKS5_SA_EEEixERSG_
.LEHE16:
	movq	%rax, %rbx
	.loc 18 133 37 discriminator 3
	nop
	.loc 18 134 1 discriminator 3
	leaq	-80(%rbp), %rax
	movq	%rax, %rdi
	call	_ZNSt6vectorINSt7__cxx1112basic_stringIcSt11char_traitsIcESaIcEEESaIS5_EED1Ev
	.loc 18 133 37 discriminator 3
	movq	%rbx, %rax
	.loc 18 134 1 discriminator 3
	movq	-24(%rbp), %rdx
	subq	%fs:40, %rdx
	je	.L168
	jmp	.L171
.L170:
	endbr64
	.loc 18 132 61
	movq	%rax, %rbx
	leaq	-48(%rbp), %rax
	movq	%rax, %rdi
	call	_ZN5boost9algorithm6detail10is_any_ofFIcED1Ev
	jmp	.L167
.L169:
	endbr64
	.loc 18 134 1
	movq	%rax, %rbx
.L167:
	leaq	-80(%rbp), %rax
	movq	%rax, %rdi
	call	_ZNSt6vectorINSt7__cxx1112basic_stringIcSt11char_traitsIcESaIcEEESaIS5_EED1Ev
	movq	%rbx, %rax
	movq	%rax, %rdi
.LEHB17:
	call	_Unwind_Resume@PLT
.LEHE17:
.L171:
	call	__stack_chk_fail@PLT
.L168:
	movq	-8(%rbp), %rbx
	leave
	.cfi_def_cfa 7, 8
	ret
	.cfi_endproc
.LFE13379:
	.section	.gcc_except_table
.LLSDA13379:
	.byte	0xff
	.byte	0xff
	.byte	0x1
	.uleb128 .LLSDACSE13379-.LLSDACSB13379
.LLSDACSB13379:
	.uleb128 .LEHB14-.LFB13379
	.uleb128 .LEHE14-.LEHB14
	.uleb128 .L169-.LFB13379
	.uleb128 0
	.uleb128 .LEHB15-.LFB13379
	.uleb128 .LEHE15-.LEHB15
	.uleb128 .L170-.LFB13379
	.uleb128 0
	.uleb128 .LEHB16-.LFB13379
	.uleb128 .LEHE16-.LEHB16
	.uleb128 .L169-.LFB13379
	.uleb128 0
	.uleb128 .LEHB17-.LFB13379
	.uleb128 .LEHE17-.LEHB17
	.uleb128 0
	.uleb128 0
.LLSDACSE13379:
	.text
	.size	_Z14get_scan_valueNSt7__cxx1112basic_stringIcSt11char_traitsIcESaIcEEE, .-_Z14get_scan_valueNSt7__cxx1112basic_stringIcSt11char_traitsIcESaIcEEE
	.globl	_Z13close_scannerPSt14basic_ifstreamIcSt11char_traitsIcEE
	.type	_Z13close_scannerPSt14basic_ifstreamIcSt11char_traitsIcEE, @function
_Z13close_scannerPSt14basic_ifstreamIcSt11char_traitsIcEE:
.LFB13380:
	.loc 18 136 42
	.cfi_startproc
	endbr64
	pushq	%rbp
	.cfi_def_cfa_offset 16
	.cfi_offset 6, -16
	movq	%rsp, %rbp
	.cfi_def_cfa_register 6
	subq	$16, %rsp
	movq	%rdi, -8(%rbp)
	.loc 18 137 2
	cmpq	$0, -8(%rbp)
	je	.L173
	.loc 18 138 17
	movq	-8(%rbp), %rax
	movq	%rax, %rdi
	call	_ZNSt14basic_ifstreamIcSt11char_traitsIcEE5closeEv@PLT
	.loc 18 139 10
	movl	$0, %eax
	jmp	.L174
.L173:
	.loc 18 141 10
	movl	$-1, %eax
.L174:
	.loc 18 142 1
	leave
	.cfi_def_cfa 7, 8
	ret
	.cfi_endproc
.LFE13380:
	.size	_Z13close_scannerPSt14basic_ifstreamIcSt11char_traitsIcEE, .-_Z13close_scannerPSt14basic_ifstreamIcSt11char_traitsIcEE
	.section	.text._ZNSt4pairIKNSt7__cxx1112basic_stringIcSt11char_traitsIcESaIcEEESt6vectorIP8TinyblobSaIS9_EEEC2ERKSC_,"axG",@progbits,_ZNSt4pairIKNSt7__cxx1112basic_stringIcSt11char_traitsIcESaIcEEESt6vectorIP8TinyblobSaIS9_EEEC5ERKSC_,comdat
	.align 2
	.weak	_ZNSt4pairIKNSt7__cxx1112basic_stringIcSt11char_traitsIcESaIcEEESt6vectorIP8TinyblobSaIS9_EEEC2ERKSC_
	.type	_ZNSt4pairIKNSt7__cxx1112basic_stringIcSt11char_traitsIcESaIcEEESt6vectorIP8TinyblobSaIS9_EEEC2ERKSC_, @function
_ZNSt4pairIKNSt7__cxx1112basic_stringIcSt11char_traitsIcESaIcEEESt6vectorIP8TinyblobSaIS9_EEEC2ERKSC_:
.LFB13387:
	.file 20 "/usr/include/c++/11/bits/stl_pair.h"
	.loc 20 314 17
	.cfi_startproc
	.cfi_personality 0x9b,DW.ref.__gxx_personality_v0
	.cfi_lsda 0x1b,.LLSDA13387
	endbr64
	pushq	%rbp
	.cfi_def_cfa_offset 16
	.cfi_offset 6, -16
	movq	%rsp, %rbp
	.cfi_def_cfa_register 6
	pushq	%rbx
	subq	$24, %rsp
	.cfi_offset 3, -24
	movq	%rdi, -24(%rbp)
	movq	%rsi, -32(%rbp)
.LBB44:
	.loc 20 314 17
	movq	-24(%rbp), %rax
	movq	-32(%rbp), %rdx
	movq	%rdx, %rsi
	movq	%rax, %rdi
.LEHB18:
	call	_ZNSt7__cxx1112basic_stringIcSt11char_traitsIcESaIcEEC1ERKS4_
.LEHE18:
	movq	-24(%rbp), %rax
	addq	$32, %rax
	movq	-32(%rbp), %rdx
	addq	$32, %rdx
	movq	%rdx, %rsi
	movq	%rax, %rdi
.LEHB19:
	call	_ZNSt6vectorIP8TinyblobSaIS1_EEC1ERKS3_
.LEHE19:
.LBE44:
	jmp	.L178
.L177:
	endbr64
.LBB45:
	movq	%rax, %rbx
	movq	-24(%rbp), %rax
	movq	%rax, %rdi
	call	_ZNSt7__cxx1112basic_stringIcSt11char_traitsIcESaIcEED1Ev
	movq	%rbx, %rax
	movq	%rax, %rdi
.LEHB20:
	call	_Unwind_Resume@PLT
.LEHE20:
.L178:
.LBE45:
	movq	-8(%rbp), %rbx
	leave
	.cfi_def_cfa 7, 8
	ret
	.cfi_endproc
.LFE13387:
	.section	.gcc_except_table
.LLSDA13387:
	.byte	0xff
	.byte	0xff
	.byte	0x1
	.uleb128 .LLSDACSE13387-.LLSDACSB13387
.LLSDACSB13387:
	.uleb128 .LEHB18-.LFB13387
	.uleb128 .LEHE18-.LEHB18
	.uleb128 0
	.uleb128 0
	.uleb128 .LEHB19-.LFB13387
	.uleb128 .LEHE19-.LEHB19
	.uleb128 .L177-.LFB13387
	.uleb128 0
	.uleb128 .LEHB20-.LFB13387
	.uleb128 .LEHE20-.LEHB20
	.uleb128 0
	.uleb128 0
.LLSDACSE13387:
	.section	.text._ZNSt4pairIKNSt7__cxx1112basic_stringIcSt11char_traitsIcESaIcEEESt6vectorIP8TinyblobSaIS9_EEEC2ERKSC_,"axG",@progbits,_ZNSt4pairIKNSt7__cxx1112basic_stringIcSt11char_traitsIcESaIcEEESt6vectorIP8TinyblobSaIS9_EEEC5ERKSC_,comdat
	.size	_ZNSt4pairIKNSt7__cxx1112basic_stringIcSt11char_traitsIcESaIcEEESt6vectorIP8TinyblobSaIS9_EEEC2ERKSC_, .-_ZNSt4pairIKNSt7__cxx1112basic_stringIcSt11char_traitsIcESaIcEEESt6vectorIP8TinyblobSaIS9_EEEC2ERKSC_
	.weak	_ZNSt4pairIKNSt7__cxx1112basic_stringIcSt11char_traitsIcESaIcEEESt6vectorIP8TinyblobSaIS9_EEEC1ERKSC_
	.set	_ZNSt4pairIKNSt7__cxx1112basic_stringIcSt11char_traitsIcESaIcEEESt6vectorIP8TinyblobSaIS9_EEEC1ERKSC_,_ZNSt4pairIKNSt7__cxx1112basic_stringIcSt11char_traitsIcESaIcEEESt6vectorIP8TinyblobSaIS9_EEEC2ERKSC_
	.section	.text._ZNSt4pairIKNSt7__cxx1112basic_stringIcSt11char_traitsIcESaIcEEESt6vectorIP8TinyblobSaIS9_EEED2Ev,"axG",@progbits,_ZNSt4pairIKNSt7__cxx1112basic_stringIcSt11char_traitsIcESaIcEEESt6vectorIP8TinyblobSaIS9_EEED5Ev,comdat
	.align 2
	.weak	_ZNSt4pairIKNSt7__cxx1112basic_stringIcSt11char_traitsIcESaIcEEESt6vectorIP8TinyblobSaIS9_EEED2Ev
	.type	_ZNSt4pairIKNSt7__cxx1112basic_stringIcSt11char_traitsIcESaIcEEESt6vectorIP8TinyblobSaIS9_EEED2Ev, @function
_ZNSt4pairIKNSt7__cxx1112basic_stringIcSt11char_traitsIcESaIcEEESt6vectorIP8TinyblobSaIS9_EEED2Ev:
.LFB13390:
	.loc 20 211 12
	.cfi_startproc
	endbr64
	pushq	%rbp
	.cfi_def_cfa_offset 16
	.cfi_offset 6, -16
	movq	%rsp, %rbp
	.cfi_def_cfa_register 6
	subq	$16, %rsp
	movq	%rdi, -8(%rbp)
.LBB46:
	.loc 20 211 12
	movq	-8(%rbp), %rax
	addq	$32, %rax
	movq	%rax, %rdi
	call	_ZNSt6vectorIP8TinyblobSaIS1_EED1Ev
	movq	-8(%rbp), %rax
	movq	%rax, %rdi
	call	_ZNSt7__cxx1112basic_stringIcSt11char_traitsIcESaIcEED1Ev
.LBE46:
	nop
	leave
	.cfi_def_cfa 7, 8
	ret
	.cfi_endproc
.LFE13390:
	.size	_ZNSt4pairIKNSt7__cxx1112basic_stringIcSt11char_traitsIcESaIcEEESt6vectorIP8TinyblobSaIS9_EEED2Ev, .-_ZNSt4pairIKNSt7__cxx1112basic_stringIcSt11char_traitsIcESaIcEEESt6vectorIP8TinyblobSaIS9_EEED2Ev
	.weak	_ZNSt4pairIKNSt7__cxx1112basic_stringIcSt11char_traitsIcESaIcEEESt6vectorIP8TinyblobSaIS9_EEED1Ev
	.set	_ZNSt4pairIKNSt7__cxx1112basic_stringIcSt11char_traitsIcESaIcEEESt6vectorIP8TinyblobSaIS9_EEED1Ev,_ZNSt4pairIKNSt7__cxx1112basic_stringIcSt11char_traitsIcESaIcEEESt6vectorIP8TinyblobSaIS9_EEED2Ev
	.section	.text._ZNK9__gnu_cxx17__normal_iteratorIPP8TinyblobSt6vectorIS2_SaIS2_EEE4baseEv,"axG",@progbits,_ZNK9__gnu_cxx17__normal_iteratorIPP8TinyblobSt6vectorIS2_SaIS2_EEE4baseEv,comdat
	.align 2
	.weak	_ZNK9__gnu_cxx17__normal_iteratorIPP8TinyblobSt6vectorIS2_SaIS2_EEE4baseEv
	.type	_ZNK9__gnu_cxx17__normal_iteratorIPP8TinyblobSt6vectorIS2_SaIS2_EEE4baseEv, @function
_ZNK9__gnu_cxx17__normal_iteratorIPP8TinyblobSt6vectorIS2_SaIS2_EEE4baseEv:
.LFB13392:
	.file 21 "/usr/include/c++/11/bits/stl_iterator.h"
	.loc 21 1088 7
	.cfi_startproc
	endbr64
	pushq	%rbp
	.cfi_def_cfa_offset 16
	.cfi_offset 6, -16
	movq	%rsp, %rbp
	.cfi_def_cfa_register 6
	movq	%rdi, -8(%rbp)
	.loc 21 1089 16
	movq	-8(%rbp), %rax
	.loc 21 1089 28
	popq	%rbp
	.cfi_def_cfa 7, 8
	ret
	.cfi_endproc
.LFE13392:
	.size	_ZNK9__gnu_cxx17__normal_iteratorIPP8TinyblobSt6vectorIS2_SaIS2_EEE4baseEv, .-_ZNK9__gnu_cxx17__normal_iteratorIPP8TinyblobSt6vectorIS2_SaIS2_EEE4baseEv
	.section	.text._ZN9__gnu_cxxeqIPP8TinyblobS3_St6vectorIS2_SaIS2_EEEEbRKNS_17__normal_iteratorIT_T1_EERKNS7_IT0_S9_EE,"axG",@progbits,_ZN9__gnu_cxxeqIPP8TinyblobS3_St6vectorIS2_SaIS2_EEEEbRKNS_17__normal_iteratorIT_T1_EERKNS7_IT0_S9_EE,comdat
	.weak	_ZN9__gnu_cxxeqIPP8TinyblobS3_St6vectorIS2_SaIS2_EEEEbRKNS_17__normal_iteratorIT_T1_EERKNS7_IT0_S9_EE
	.type	_ZN9__gnu_cxxeqIPP8TinyblobS3_St6vectorIS2_SaIS2_EEEEbRKNS_17__normal_iteratorIT_T1_EERKNS7_IT0_S9_EE, @function
_ZN9__gnu_cxxeqIPP8TinyblobS3_St6vectorIS2_SaIS2_EEEEbRKNS_17__normal_iteratorIT_T1_EERKNS7_IT0_S9_EE:
.LFB13393:
	.loc 21 1105 5
	.cfi_startproc
	endbr64
	pushq	%rbp
	.cfi_def_cfa_offset 16
	.cfi_offset 6, -16
	movq	%rsp, %rbp
	.cfi_def_cfa_register 6
	pushq	%rbx
	subq	$24, %rsp
	.cfi_offset 3, -24
	movq	%rdi, -24(%rbp)
	movq	%rsi, -32(%rbp)
	.loc 21 1108 24
	movq	-24(%rbp), %rax
	movq	%rax, %rdi
	call	_ZNK9__gnu_cxx17__normal_iteratorIPP8TinyblobSt6vectorIS2_SaIS2_EEE4baseEv
	.loc 21 1108 27
	movq	(%rax), %rbx
	.loc 21 1108 40
	movq	-32(%rbp), %rax
	movq	%rax, %rdi
	call	_ZNK9__gnu_cxx17__normal_iteratorIPP8TinyblobSt6vectorIS2_SaIS2_EEE4baseEv
	.loc 21 1108 27
	movq	(%rax), %rax
	.loc 21 1108 41
	cmpq	%rax, %rbx
	sete	%al
	.loc 21 1108 44
	movq	-8(%rbp), %rbx
	leave
	.cfi_def_cfa 7, 8
	ret
	.cfi_endproc
.LFE13393:
	.size	_ZN9__gnu_cxxeqIPP8TinyblobS3_St6vectorIS2_SaIS2_EEEEbRKNS_17__normal_iteratorIT_T1_EERKNS7_IT0_S9_EE, .-_ZN9__gnu_cxxeqIPP8TinyblobS3_St6vectorIS2_SaIS2_EEEEbRKNS_17__normal_iteratorIT_T1_EERKNS7_IT0_S9_EE
	.section	.text._ZN9__gnu_cxx17__normal_iteratorIPP8TinyblobSt6vectorIS2_SaIS2_EEEppEv,"axG",@progbits,_ZN9__gnu_cxx17__normal_iteratorIPP8TinyblobSt6vectorIS2_SaIS2_EEEppEv,comdat
	.align 2
	.weak	_ZN9__gnu_cxx17__normal_iteratorIPP8TinyblobSt6vectorIS2_SaIS2_EEEppEv
	.type	_ZN9__gnu_cxx17__normal_iteratorIPP8TinyblobSt6vectorIS2_SaIS2_EEEppEv, @function
_ZN9__gnu_cxx17__normal_iteratorIPP8TinyblobSt6vectorIS2_SaIS2_EEEppEv:
.LFB13394:
	.loc 21 1035 7
	.cfi_startproc
	endbr64
	pushq	%rbp
	.cfi_def_cfa_offset 16
	.cfi_offset 6, -16
	movq	%rsp, %rbp
	.cfi_def_cfa_register 6
	movq	%rdi, -8(%rbp)
	.loc 21 1037 4
	movq	-8(%rbp), %rax
	movq	(%rax), %rax
	.loc 21 1037 2
	leaq	8(%rax), %rdx
	movq	-8(%rbp), %rax
	movq	%rdx, (%rax)
	.loc 21 1038 10
	movq	-8(%rbp), %rax
	.loc 21 1039 7
	popq	%rbp
	.cfi_def_cfa 7, 8
	ret
	.cfi_endproc
.LFE13394:
	.size	_ZN9__gnu_cxx17__normal_iteratorIPP8TinyblobSt6vectorIS2_SaIS2_EEEppEv, .-_ZN9__gnu_cxx17__normal_iteratorIPP8TinyblobSt6vectorIS2_SaIS2_EEEppEv
	.section	.text._ZNK9__gnu_cxx17__normal_iteratorIPP8TinyblobSt6vectorIS2_SaIS2_EEEdeEv,"axG",@progbits,_ZNK9__gnu_cxx17__normal_iteratorIPP8TinyblobSt6vectorIS2_SaIS2_EEEdeEv,comdat
	.align 2
	.weak	_ZNK9__gnu_cxx17__normal_iteratorIPP8TinyblobSt6vectorIS2_SaIS2_EEEdeEv
	.type	_ZNK9__gnu_cxx17__normal_iteratorIPP8TinyblobSt6vectorIS2_SaIS2_EEEdeEv, @function
_ZNK9__gnu_cxx17__normal_iteratorIPP8TinyblobSt6vectorIS2_SaIS2_EEEdeEv:
.LFB13395:
	.loc 21 1025 7
	.cfi_startproc
	endbr64
	pushq	%rbp
	.cfi_def_cfa_offset 16
	.cfi_offset 6, -16
	movq	%rsp, %rbp
	.cfi_def_cfa_register 6
	movq	%rdi, -8(%rbp)
	.loc 21 1026 17
	movq	-8(%rbp), %rax
	movq	(%rax), %rax
	.loc 21 1026 29
	popq	%rbp
	.cfi_def_cfa 7, 8
	ret
	.cfi_endproc
.LFE13395:
	.size	_ZNK9__gnu_cxx17__normal_iteratorIPP8TinyblobSt6vectorIS2_SaIS2_EEEdeEv, .-_ZNK9__gnu_cxx17__normal_iteratorIPP8TinyblobSt6vectorIS2_SaIS2_EEEdeEv
	.section	.rodata
.LC11:
	.string	""
.LC12:
	.string	"\n"
	.align 8
.LC13:
	.string	"[PERSIST] *ERROR* : Opening file unsuccessful!"
	.align 8
.LC14:
	.string	"[PERSIST] *ERROR* : Allocating file unsuccessful!"
	.align 8
.LC15:
	.string	"[PERSIST] *ERROR*: posix_memalign failed!"
	.align 8
.LC16:
	.string	"[PERSIST] *ERROR* : Writing file unsuccessful!"
.LC17:
	.string	"Key: "
.LC18:
	.string	" | Value of blob "
.LC19:
	.string	": "
	.text
	.globl	_Z7persistPc
	.type	_Z7persistPc, @function
_Z7persistPc:
.LFB13381:
	.loc 18 144 29
	.cfi_startproc
	.cfi_personality 0x9b,DW.ref.__gxx_personality_v0
	.cfi_lsda 0x1b,.LLSDA13381
	endbr64
	pushq	%rbp
	.cfi_def_cfa_offset 16
	.cfi_offset 6, -16
	movq	%rsp, %rbp
	.cfi_def_cfa_register 6
	pushq	%rbx
	subq	$360, %rsp
	.cfi_offset 3, -24
	movq	%rdi, -360(%rbp)
	.loc 18 144 29
	movq	%fs:40, %rax
	movq	%rax, -24(%rbp)
	xorl	%eax, %eax
	.loc 18 145 26
	leaq	-296(%rbp), %rax
	movq	%rax, %rdi
	call	_ZNSaIcEC1Ev@PLT
	leaq	-296(%rbp), %rdx
	leaq	-240(%rbp), %rax
	leaq	.LC11(%rip), %rcx
	movq	%rcx, %rsi
	movq	%rax, %rdi
.LEHB21:
	call	_ZNSt7__cxx1112basic_stringIcSt11char_traitsIcESaIcEEC1IS3_EEPKcRKS3_
.LEHE21:
	leaq	-296(%rbp), %rax
	movq	%rax, %rdi
	call	_ZNSaIcED1Ev@PLT
.LBB47:
	.loc 18 147 26
	movq	ti(%rip), %rax
	movq	%rax, -288(%rbp)
	movq	-288(%rbp), %rax
	movq	%rax, %rdi
	call	_ZNSt13unordered_mapINSt7__cxx1112basic_stringIcSt11char_traitsIcESaIcEEESt6vectorIP8TinyblobSaIS8_EESt4hashIS5_ESt8equal_toIS5_ESaISt4pairIKS5_SA_EEE5beginEv
	movq	%rax, -320(%rbp)
	movq	-288(%rbp), %rax
	movq	%rax, %rdi
	call	_ZNSt13unordered_mapINSt7__cxx1112basic_stringIcSt11char_traitsIcESaIcEEESt6vectorIP8TinyblobSaIS8_EESt4hashIS5_ESt8equal_toIS5_ESaISt4pairIKS5_SA_EEE3endEv
	movq	%rax, -312(%rbp)
	.loc 18 147 9
	jmp	.L189
.L192:
.LBB48:
	.loc 18 147 26 discriminator 3
	leaq	-320(%rbp), %rax
	movq	%rax, %rdi
	call	_ZNKSt8__detail14_Node_iteratorISt4pairIKNSt7__cxx1112basic_stringIcSt11char_traitsIcESaIcEEESt6vectorIP8TinyblobSaISB_EEELb0ELb1EEdeEv
	movq	%rax, %rdx
	leaq	-80(%rbp), %rax
	movq	%rdx, %rsi
	movq	%rax, %rdi
.LEHB22:
	call	_ZNSt4pairIKNSt7__cxx1112basic_stringIcSt11char_traitsIcESaIcEEESt6vectorIP8TinyblobSaIS9_EEEC1ERKSC_
.LEHE22:
.LBB49:
	.loc 18 148 32
	leaq	-80(%rbp), %rax
	addq	$32, %rax
	movq	%rax, -256(%rbp)
	movq	-256(%rbp), %rax
	movq	%rax, %rdi
	call	_ZNSt6vectorIP8TinyblobSaIS1_EE5beginEv
	movq	%rax, -304(%rbp)
	movq	-256(%rbp), %rax
	movq	%rax, %rdi
	call	_ZNSt6vectorIP8TinyblobSaIS1_EE3endEv
	movq	%rax, -296(%rbp)
	.loc 18 148 17
	jmp	.L190
.L191:
	.loc 18 148 32 discriminator 3
	leaq	-304(%rbp), %rax
	movq	%rax, %rdi
	call	_ZNK9__gnu_cxx17__normal_iteratorIPP8TinyblobSt6vectorIS2_SaIS2_EEEdeEv
	movq	(%rax), %rax
	movq	%rax, -248(%rbp)
	.loc 18 149 47 discriminator 3
	movq	-248(%rbp), %rax
	movq	%rax, %rdi
	call	_ZN8Tinyblob5indexEv
	movl	%eax, %edx
	leaq	-176(%rbp), %rax
	movl	%edx, %esi
	movq	%rax, %rdi
.LEHB23:
	call	_ZNSt7__cxx119to_stringEj
.LEHE23:
	.loc 18 149 25 discriminator 1
	leaq	-208(%rbp), %rax
	leaq	-80(%rbp), %rcx
	leaq	.LC10(%rip), %rdx
	movq	%rcx, %rsi
	movq	%rax, %rdi
.LEHB24:
	call	_ZStplIcSt11char_traitsIcESaIcEENSt7__cxx1112basic_stringIT_T0_T1_EERKS8_PKS5_
.LEHE24:
	.loc 18 149 31 discriminator 3
	leaq	-144(%rbp), %rax
	leaq	-176(%rbp), %rdx
	leaq	-208(%rbp), %rcx
	movq	%rcx, %rsi
	movq	%rax, %rdi
.LEHB25:
	call	_ZStplIcSt11char_traitsIcESaIcEENSt7__cxx1112basic_stringIT_T0_T1_EEOS8_S9_
.LEHE25:
	.loc 18 149 60 discriminator 5
	leaq	-112(%rbp), %rax
	leaq	-144(%rbp), %rcx
	leaq	.LC12(%rip), %rdx
	movq	%rcx, %rsi
	movq	%rax, %rdi
.LEHB26:
	call	_ZStplIcSt11char_traitsIcESaIcEENSt7__cxx1112basic_stringIT_T0_T1_EEOS8_PKS5_
.LEHE26:
	.loc 18 149 62 discriminator 7
	leaq	-112(%rbp), %rdx
	leaq	-240(%rbp), %rax
	movq	%rdx, %rsi
	movq	%rax, %rdi
.LEHB27:
	call	_ZNSt7__cxx1112basic_stringIcSt11char_traitsIcESaIcEEpLERKS4_
.LEHE27:
	.loc 18 149 60 discriminator 9
	leaq	-112(%rbp), %rax
	movq	%rax, %rdi
	call	_ZNSt7__cxx1112basic_stringIcSt11char_traitsIcESaIcEED1Ev
	.loc 18 149 31 discriminator 9
	leaq	-144(%rbp), %rax
	movq	%rax, %rdi
	call	_ZNSt7__cxx1112basic_stringIcSt11char_traitsIcESaIcEED1Ev
	.loc 18 149 25 discriminator 9
	leaq	-208(%rbp), %rax
	movq	%rax, %rdi
	call	_ZNSt7__cxx1112basic_stringIcSt11char_traitsIcESaIcEED1Ev
	.loc 18 149 47 discriminator 9
	leaq	-176(%rbp), %rax
	movq	%rax, %rdi
	call	_ZNSt7__cxx1112basic_stringIcSt11char_traitsIcESaIcEED1Ev
	.loc 18 148 32 discriminator 9
	leaq	-304(%rbp), %rax
	movq	%rax, %rdi
	call	_ZN9__gnu_cxx17__normal_iteratorIPP8TinyblobSt6vectorIS2_SaIS2_EEEppEv
.L190:
	.loc 18 148 32 is_stmt 0 discriminator 2
	leaq	-296(%rbp), %rdx
	leaq	-304(%rbp), %rax
	movq	%rdx, %rsi
	movq	%rax, %rdi
	call	_ZN9__gnu_cxxeqIPP8TinyblobS3_St6vectorIS2_SaIS2_EEEEbRKNS_17__normal_iteratorIT_T1_EERKNS7_IT0_S9_EE
	xorl	$1, %eax
	testb	%al, %al
	jne	.L191
.LBE49:
	.loc 18 149 66 is_stmt 1 discriminator 2
	leaq	-80(%rbp), %rax
	movq	%rax, %rdi
	call	_ZNSt4pairIKNSt7__cxx1112basic_stringIcSt11char_traitsIcESaIcEEESt6vectorIP8TinyblobSaIS9_EEED1Ev
.LBE48:
	.loc 18 147 26 discriminator 2
	leaq	-320(%rbp), %rax
	movq	%rax, %rdi
	call	_ZNSt8__detail14_Node_iteratorISt4pairIKNSt7__cxx1112basic_stringIcSt11char_traitsIcESaIcEEESt6vectorIP8TinyblobSaISB_EEELb0ELb1EEppEv
.L189:
	.loc 18 147 26 is_stmt 0 discriminator 1
	leaq	-312(%rbp), %rdx
	leaq	-320(%rbp), %rax
	movq	%rdx, %rsi
	movq	%rax, %rdi
	call	_ZNSt8__detaileqERKNS_19_Node_iterator_baseISt4pairIKNSt7__cxx1112basic_stringIcSt11char_traitsIcESaIcEEESt6vectorIP8TinyblobSaISB_EEELb1EEESH_
	xorl	$1, %eax
	testb	%al, %al
	jne	.L192
.LBE47:
	.loc 18 151 7 is_stmt 1
	movb	$1, -337(%rbp)
	.loc 18 153 12
	movq	-360(%rbp), %rax
	movl	$0, %esi
	movq	%rax, %rdi
	call	access@PLT
	.loc 18 153 29
	testl	%eax, %eax
	setne	%al
	.loc 18 153 2
	testb	%al, %al
	je	.L193
	.loc 18 154 11
	movb	$0, -337(%rbp)
.L193:
	.loc 18 156 15
	movq	-360(%rbp), %rax
	movl	$384, %edx
	movl	$20546, %esi
	movq	%rax, %rdi
	movl	$0, %eax
.LEHB28:
	call	open@PLT
	movl	%eax, -332(%rbp)
	.loc 18 159 2
	cmpl	$-1, -332(%rbp)
	jne	.L194
	.loc 18 160 16
	leaq	.LC13(%rip), %rax
	movq	%rax, %rsi
	leaq	_ZSt4cout(%rip), %rax
	movq	%rax, %rdi
	call	_ZStlsISt11char_traitsIcEERSt13basic_ostreamIcT_ES5_PKc@PLT
	.loc 18 160 73
	movq	_ZSt4endlIcSt11char_traitsIcEERSt13basic_ostreamIT_T0_ES6_@GOTPCREL(%rip), %rdx
	movq	%rdx, %rsi
	movq	%rax, %rdi
	call	_ZNSolsEPFRSoS_E@PLT
	.loc 18 161 3
	movl	$0, %ebx
	jmp	.L195
.L194:
	.loc 18 164 5
	movzbl	-337(%rbp), %eax
	xorl	$1, %eax
	.loc 18 164 2
	testb	%al, %al
	je	.L196
	.loc 18 165 16
	movl	-332(%rbp), %eax
	movl	$1048576, %ecx
	movl	$0, %edx
	movl	$0, %esi
	movl	%eax, %edi
	call	fallocate@PLT
	movl	%eax, -336(%rbp)
.L196:
	.loc 18 167 9
	cmpl	$-1, -336(%rbp)
	jne	.L197
	.loc 18 168 30
	leaq	.LC14(%rip), %rax
	movq	%rax, %rsi
	leaq	_ZSt4cout(%rip), %rax
	movq	%rax, %rdi
	call	_ZStlsISt11char_traitsIcEERSt13basic_ostreamIcT_ES5_PKc@PLT
	.loc 18 168 90
	movq	_ZSt4endlIcSt11char_traitsIcEERSt13basic_ostreamIT_T0_ES6_@GOTPCREL(%rip), %rdx
	movq	%rdx, %rsi
	movq	%rax, %rdi
	call	_ZNSolsEPFRSoS_E@PLT
	.loc 18 169 17
	movl	$0, %ebx
	jmp	.L195
.L197:
	.loc 18 174 26
	movl	blob_size(%rip), %eax
	movl	%eax, %edx
	leaq	-328(%rbp), %rax
	movl	$512, %esi
	movq	%rax, %rdi
	call	posix_memalign@PLT
	testl	%eax, %eax
	setne	%al
	.loc 18 174 9
	testb	%al, %al
	je	.L198
	.loc 18 175 30
	leaq	.LC15(%rip), %rax
	movq	%rax, %rsi
	leaq	_ZSt4cout(%rip), %rax
	movq	%rax, %rdi
	call	_ZStlsISt11char_traitsIcEERSt13basic_ostreamIcT_ES5_PKc@PLT
	.loc 18 175 82
	movq	_ZSt4endlIcSt11char_traitsIcEERSt13basic_ostreamIT_T0_ES6_@GOTPCREL(%rip), %rdx
	movq	%rdx, %rsi
	movq	%rax, %rdi
	call	_ZNSolsEPFRSoS_E@PLT
	.loc 18 176 3
	movl	$0, %ebx
	jmp	.L195
.L198:
	.loc 18 179 8
	leaq	-240(%rbp), %rax
	movq	%rax, %rdi
	call	_ZNKSt7__cxx1112basic_stringIcSt11char_traitsIcESaIcEE5c_strEv
	movq	%rax, %rdx
	movq	-328(%rbp), %rax
	movq	%rdx, %rsi
	movq	%rax, %rdi
	call	strcpy@PLT
	.loc 18 181 16
	movl	blob_size(%rip), %eax
	movl	%eax, %edx
	movq	-328(%rbp), %rsi
	movl	-332(%rbp), %eax
	movl	$0, %ecx
	movl	%eax, %edi
	call	pwrite@PLT
	.loc 18 181 8
	movl	%eax, -336(%rbp)
	.loc 18 181 62
	cmpl	$-1, -336(%rbp)
	sete	%al
	.loc 18 181 2
	testb	%al, %al
	je	.L199
	.loc 18 182 16
	leaq	.LC16(%rip), %rax
	movq	%rax, %rsi
	leaq	_ZSt4cout(%rip), %rax
	movq	%rax, %rdi
	call	_ZStlsISt11char_traitsIcEERSt13basic_ostreamIcT_ES5_PKc@PLT
	.loc 18 182 73
	movq	_ZSt4endlIcSt11char_traitsIcEERSt13basic_ostreamIT_T0_ES6_@GOTPCREL(%rip), %rdx
	movq	%rdx, %rsi
	movq	%rax, %rdi
	call	_ZNSolsEPFRSoS_E@PLT
	.loc 18 183 3
	movl	$0, %ebx
	jmp	.L195
.L199:
.LBB52:
	.loc 18 187 26
	movq	ti(%rip), %rax
	movq	%rax, -280(%rbp)
	movq	-280(%rbp), %rax
	movq	%rax, %rdi
	call	_ZNSt13unordered_mapINSt7__cxx1112basic_stringIcSt11char_traitsIcESaIcEEESt6vectorIP8TinyblobSaIS8_EESt4hashIS5_ESt8equal_toIS5_ESaISt4pairIKS5_SA_EEE5beginEv
	movq	%rax, -320(%rbp)
	movq	-280(%rbp), %rax
	movq	%rax, %rdi
	call	_ZNSt13unordered_mapINSt7__cxx1112basic_stringIcSt11char_traitsIcESaIcEEESt6vectorIP8TinyblobSaIS8_EESt4hashIS5_ESt8equal_toIS5_ESaISt4pairIKS5_SA_EEE3endEv
	movq	%rax, -312(%rbp)
	.loc 18 187 9
	jmp	.L200
.L203:
.LBB53:
	.loc 18 187 26 discriminator 3
	leaq	-320(%rbp), %rax
	movq	%rax, %rdi
	call	_ZNKSt8__detail14_Node_iteratorISt4pairIKNSt7__cxx1112basic_stringIcSt11char_traitsIcESaIcEEESt6vectorIP8TinyblobSaISB_EEELb0ELb1EEdeEv
	movq	%rax, %rdx
	leaq	-80(%rbp), %rax
	movq	%rdx, %rsi
	movq	%rax, %rdi
	call	_ZNSt4pairIKNSt7__cxx1112basic_stringIcSt11char_traitsIcESaIcEEESt6vectorIP8TinyblobSaIS9_EEEC1ERKSC_
.LEHE28:
.LBB54:
	.loc 18 188 32
	leaq	-80(%rbp), %rax
	addq	$32, %rax
	movq	%rax, -272(%rbp)
	movq	-272(%rbp), %rax
	movq	%rax, %rdi
	call	_ZNSt6vectorIP8TinyblobSaIS1_EE5beginEv
	movq	%rax, -304(%rbp)
	movq	-272(%rbp), %rax
	movq	%rax, %rdi
	call	_ZNSt6vectorIP8TinyblobSaIS1_EE3endEv
	movq	%rax, -296(%rbp)
	.loc 18 188 17
	jmp	.L201
.L202:
	.loc 18 188 32 discriminator 3
	leaq	-304(%rbp), %rax
	movq	%rax, %rdi
	call	_ZNK9__gnu_cxx17__normal_iteratorIPP8TinyblobSt6vectorIS2_SaIS2_EEEdeEv
	movq	(%rax), %rax
	movq	%rax, -264(%rbp)
	.loc 18 189 60 discriminator 3
	leaq	.LC17(%rip), %rax
	movq	%rax, %rsi
	leaq	_ZSt4cout(%rip), %rax
	movq	%rax, %rdi
.LEHB29:
	call	_ZStlsISt11char_traitsIcEERSt13basic_ostreamIcT_ES5_PKc@PLT
	movq	%rax, %rdx
	leaq	-80(%rbp), %rax
	movq	%rax, %rsi
	movq	%rdx, %rdi
	call	_ZStlsIcSt11char_traitsIcESaIcEERSt13basic_ostreamIT_T0_ES7_RKNSt7__cxx1112basic_stringIS4_S5_T1_EE@PLT
	.loc 18 189 60 is_stmt 0 discriminator 1
	movq	%rax, %rdx
	leaq	.LC18(%rip), %rax
	movq	%rax, %rsi
	movq	%rdx, %rdi
	call	_ZStlsISt11char_traitsIcEERSt13basic_ostreamIcT_ES5_PKc@PLT
	.loc 18 189 60 discriminator 2
	movq	%rax, %rbx
	.loc 18 189 92 is_stmt 1 discriminator 2
	movq	-264(%rbp), %rax
	movq	%rax, %rdi
	call	_ZN8Tinyblob5indexEv
	movl	%eax, %esi
	movq	%rbx, %rdi
	call	_ZNSolsEj@PLT
	.loc 18 189 92 is_stmt 0 discriminator 3
	movq	%rax, %rdx
	.loc 18 189 115 is_stmt 1 discriminator 3
	leaq	.LC19(%rip), %rax
	movq	%rax, %rsi
	movq	%rdx, %rdi
	call	_ZStlsISt11char_traitsIcEERSt13basic_ostreamIcT_ES5_PKc@PLT
	.loc 18 189 115 is_stmt 0 discriminator 4
	movq	%rax, %rdx
	movq	-264(%rbp), %rax
	movq	48(%rax), %rax
	movq	%rax, %rsi
	movq	%rdx, %rdi
	call	_ZStlsISt11char_traitsIcEERSt13basic_ostreamIcT_ES5_PKc@PLT
	.loc 18 189 135 is_stmt 1 discriminator 5
	movq	_ZSt4endlIcSt11char_traitsIcEERSt13basic_ostreamIT_T0_ES6_@GOTPCREL(%rip), %rdx
	movq	%rdx, %rsi
	movq	%rax, %rdi
	call	_ZNSolsEPFRSoS_E@PLT
.LEHE29:
	.loc 18 188 32 discriminator 2
	leaq	-304(%rbp), %rax
	movq	%rax, %rdi
	call	_ZN9__gnu_cxx17__normal_iteratorIPP8TinyblobSt6vectorIS2_SaIS2_EEEppEv
.L201:
	.loc 18 188 32 is_stmt 0 discriminator 1
	leaq	-296(%rbp), %rdx
	leaq	-304(%rbp), %rax
	movq	%rdx, %rsi
	movq	%rax, %rdi
	call	_ZN9__gnu_cxxeqIPP8TinyblobS3_St6vectorIS2_SaIS2_EEEEbRKNS_17__normal_iteratorIT_T1_EERKNS7_IT0_S9_EE
	xorl	$1, %eax
	testb	%al, %al
	jne	.L202
.LBE54:
	.loc 18 189 139 is_stmt 1 discriminator 2
	leaq	-80(%rbp), %rax
	movq	%rax, %rdi
	call	_ZNSt4pairIKNSt7__cxx1112basic_stringIcSt11char_traitsIcESaIcEEESt6vectorIP8TinyblobSaIS9_EEED1Ev
.LBE53:
	.loc 18 187 26 discriminator 2
	leaq	-320(%rbp), %rax
	movq	%rax, %rdi
	call	_ZNSt8__detail14_Node_iteratorISt4pairIKNSt7__cxx1112basic_stringIcSt11char_traitsIcESaIcEEESt6vectorIP8TinyblobSaISB_EEELb0ELb1EEppEv
.L200:
	.loc 18 187 26 is_stmt 0 discriminator 1
	leaq	-312(%rbp), %rdx
	leaq	-320(%rbp), %rax
	movq	%rdx, %rsi
	movq	%rax, %rdi
	call	_ZNSt8__detaileqERKNS_19_Node_iterator_baseISt4pairIKNSt7__cxx1112basic_stringIcSt11char_traitsIcESaIcEEESt6vectorIP8TinyblobSaISB_EEELb1EEESH_
	xorl	$1, %eax
	testb	%al, %al
	jne	.L203
.LEHB30:
.LBE52:
	.loc 18 191 13 is_stmt 1
	call	_Z11tb_shutdownv@PLT
.LEHE30:
	.loc 18 192 1
	movl	$1, %ebx
.L195:
	.loc 18 192 1 is_stmt 0 discriminator 1
	leaq	-240(%rbp), %rax
	movq	%rax, %rdi
	call	_ZNSt7__cxx1112basic_stringIcSt11char_traitsIcESaIcEED1Ev
	cmpl	$1, %ebx
	movq	-24(%rbp), %rax
	subq	%fs:40, %rax
	je	.L214
	jmp	.L223
.L215:
	endbr64
	movq	%rax, %rbx
	leaq	-296(%rbp), %rax
	movq	%rax, %rdi
	call	_ZNSaIcED1Ev@PLT
	movq	%rbx, %rax
	movq	%rax, %rdi
.LEHB31:
	call	_Unwind_Resume@PLT
.L220:
	endbr64
.LBB56:
.LBB51:
.LBB50:
	.loc 18 149 60 is_stmt 1
	movq	%rax, %rbx
	leaq	-112(%rbp), %rax
	movq	%rax, %rdi
	call	_ZNSt7__cxx1112basic_stringIcSt11char_traitsIcESaIcEED1Ev
	jmp	.L208
.L219:
	endbr64
	.loc 18 149 31
	movq	%rax, %rbx
.L208:
	.loc 18 149 31 is_stmt 0 discriminator 6
	leaq	-144(%rbp), %rax
	movq	%rax, %rdi
	call	_ZNSt7__cxx1112basic_stringIcSt11char_traitsIcESaIcEED1Ev
	jmp	.L209
.L218:
	endbr64
	.loc 18 149 25 is_stmt 1
	movq	%rax, %rbx
.L209:
	.loc 18 149 25 is_stmt 0 discriminator 4
	leaq	-208(%rbp), %rax
	movq	%rax, %rdi
	call	_ZNSt7__cxx1112basic_stringIcSt11char_traitsIcESaIcEED1Ev
	jmp	.L210
.L217:
	endbr64
	.loc 18 149 47 is_stmt 1
	movq	%rax, %rbx
.L210:
	.loc 18 149 47 is_stmt 0 discriminator 2
	leaq	-176(%rbp), %rax
	movq	%rax, %rdi
	call	_ZNSt7__cxx1112basic_stringIcSt11char_traitsIcESaIcEED1Ev
	jmp	.L211
.L216:
	endbr64
.LBE50:
	.loc 18 149 66 is_stmt 1
	movq	%rax, %rbx
.L211:
	leaq	-80(%rbp), %rax
	movq	%rax, %rdi
	call	_ZNSt4pairIKNSt7__cxx1112basic_stringIcSt11char_traitsIcESaIcEEESt6vectorIP8TinyblobSaIS9_EEED1Ev
	jmp	.L212
.L222:
	endbr64
.LBE51:
.LBE56:
.LBB57:
.LBB55:
	.loc 18 189 139
	movq	%rax, %rbx
	leaq	-80(%rbp), %rax
	movq	%rax, %rdi
	call	_ZNSt4pairIKNSt7__cxx1112basic_stringIcSt11char_traitsIcESaIcEEESt6vectorIP8TinyblobSaIS9_EEED1Ev
	jmp	.L212
.L221:
	endbr64
.LBE55:
.LBE57:
	.loc 18 192 1
	movq	%rax, %rbx
.L212:
	leaq	-240(%rbp), %rax
	movq	%rax, %rdi
	call	_ZNSt7__cxx1112basic_stringIcSt11char_traitsIcESaIcEED1Ev
	movq	%rbx, %rax
	movq	%rax, %rdi
	call	_Unwind_Resume@PLT
.LEHE31:
.L223:
	call	__stack_chk_fail@PLT
.L214:
	movq	-8(%rbp), %rbx
	leave
	.cfi_def_cfa 7, 8
	ret
	.cfi_endproc
.LFE13381:
	.section	.gcc_except_table
.LLSDA13381:
	.byte	0xff
	.byte	0xff
	.byte	0x1
	.uleb128 .LLSDACSE13381-.LLSDACSB13381
.LLSDACSB13381:
	.uleb128 .LEHB21-.LFB13381
	.uleb128 .LEHE21-.LEHB21
	.uleb128 .L215-.LFB13381
	.uleb128 0
	.uleb128 .LEHB22-.LFB13381
	.uleb128 .LEHE22-.LEHB22
	.uleb128 .L221-.LFB13381
	.uleb128 0
	.uleb128 .LEHB23-.LFB13381
	.uleb128 .LEHE23-.LEHB23
	.uleb128 .L216-.LFB13381
	.uleb128 0
	.uleb128 .LEHB24-.LFB13381
	.uleb128 .LEHE24-.LEHB24
	.uleb128 .L217-.LFB13381
	.uleb128 0
	.uleb128 .LEHB25-.LFB13381
	.uleb128 .LEHE25-.LEHB25
	.uleb128 .L218-.LFB13381
	.uleb128 0
	.uleb128 .LEHB26-.LFB13381
	.uleb128 .LEHE26-.LEHB26
	.uleb128 .L219-.LFB13381
	.uleb128 0
	.uleb128 .LEHB27-.LFB13381
	.uleb128 .LEHE27-.LEHB27
	.uleb128 .L220-.LFB13381
	.uleb128 0
	.uleb128 .LEHB28-.LFB13381
	.uleb128 .LEHE28-.LEHB28
	.uleb128 .L221-.LFB13381
	.uleb128 0
	.uleb128 .LEHB29-.LFB13381
	.uleb128 .LEHE29-.LEHB29
	.uleb128 .L222-.LFB13381
	.uleb128 0
	.uleb128 .LEHB30-.LFB13381
	.uleb128 .LEHE30-.LEHB30
	.uleb128 .L221-.LFB13381
	.uleb128 0
	.uleb128 .LEHB31-.LFB13381
	.uleb128 .LEHE31-.LEHB31
	.uleb128 0
	.uleb128 0
.LLSDACSE13381:
	.text
	.size	_Z7persistPc, .-_Z7persistPc
	.section	.rodata
.LC20:
	.string	"device/raw/"
	.align 8
.LC21:
	.string	"[RECOVER] *ERROR* : Opening file unsuccessful!"
	.align 8
.LC22:
	.string	"[RECOVER] *ERROR*: posix_memalign failed!"
	.align 8
.LC23:
	.string	"[RECOVER] *ERROR* : Reading file unsuccessful!"
	.text
	.globl	_Z7recoverPc
	.type	_Z7recoverPc, @function
_Z7recoverPc:
.LFB13396:
	.loc 18 194 29
	.cfi_startproc
	.cfi_personality 0x9b,DW.ref.__gxx_personality_v0
	.cfi_lsda 0x1b,.LLSDA13396
	endbr64
	pushq	%rbp
	.cfi_def_cfa_offset 16
	.cfi_offset 6, -16
	movq	%rsp, %rbp
	.cfi_def_cfa_register 6
	pushq	%rbx
	subq	$248, %rsp
	.cfi_offset 3, -24
	movq	%rdi, -248(%rbp)
	.loc 18 194 29
	movq	%fs:40, %rax
	movq	%rax, -24(%rbp)
	xorl	%eax, %eax
	.loc 18 195 9
	leaq	.LC20(%rip), %rax
	movq	%rax, %rdi
.LEHB32:
	call	_Z7tb_initPc@PLT
	.loc 18 197 22
	movq	-248(%rbp), %rax
	movl	$384, %edx
	movl	$20546, %esi
	movq	%rax, %rdi
	movl	$0, %eax
	call	open@PLT
	movl	%eax, -232(%rbp)
	.loc 18 199 9
	cmpl	$-1, -232(%rbp)
	jne	.L225
	.loc 18 200 30
	leaq	.LC21(%rip), %rax
	movq	%rax, %rsi
	leaq	_ZSt4cout(%rip), %rax
	movq	%rax, %rdi
	call	_ZStlsISt11char_traitsIcEERSt13basic_ostreamIcT_ES5_PKc@PLT
	.loc 18 200 87
	movq	_ZSt4endlIcSt11char_traitsIcEERSt13basic_ostreamIT_T0_ES6_@GOTPCREL(%rip), %rdx
	movq	%rdx, %rsi
	movq	%rax, %rdi
	call	_ZNSolsEPFRSoS_E@PLT
	.loc 18 201 17
	jmp	.L224
.L225:
	.loc 18 207 26
	movl	blob_size(%rip), %eax
	movl	%eax, %edx
	leaq	-224(%rbp), %rax
	movl	$512, %esi
	movq	%rax, %rdi
	call	posix_memalign@PLT
	testl	%eax, %eax
	setne	%al
	.loc 18 207 9
	testb	%al, %al
	je	.L227
	.loc 18 208 30
	leaq	.LC22(%rip), %rax
	movq	%rax, %rsi
	leaq	_ZSt4cout(%rip), %rax
	movq	%rax, %rdi
	call	_ZStlsISt11char_traitsIcEERSt13basic_ostreamIcT_ES5_PKc@PLT
	.loc 18 208 82
	movq	_ZSt4endlIcSt11char_traitsIcEERSt13basic_ostreamIT_T0_ES6_@GOTPCREL(%rip), %rdx
	movq	%rdx, %rsi
	movq	%rax, %rdi
	call	_ZNSolsEPFRSoS_E@PLT
	.loc 18 209 17
	jmp	.L224
.L227:
	.loc 18 212 22
	movl	blob_size(%rip), %eax
	movl	%eax, %edx
	movq	-224(%rbp), %rsi
	movl	-232(%rbp), %eax
	movl	$0, %ecx
	movl	%eax, %edi
	call	pread@PLT
	.loc 18 212 15
	movl	%eax, -228(%rbp)
	.loc 18 212 62
	cmpl	$-1, -228(%rbp)
	sete	%al
	.loc 18 212 9
	testb	%al, %al
	je	.L228
	.loc 18 213 30
	leaq	.LC23(%rip), %rax
	movq	%rax, %rsi
	leaq	_ZSt4cout(%rip), %rax
	movq	%rax, %rdi
	call	_ZStlsISt11char_traitsIcEERSt13basic_ostreamIcT_ES5_PKc@PLT
	.loc 18 213 87
	movq	_ZSt4endlIcSt11char_traitsIcEERSt13basic_ostreamIT_T0_ES6_@GOTPCREL(%rip), %rdx
	movq	%rdx, %rsi
	movq	%rax, %rdi
	call	_ZNSolsEPFRSoS_E@PLT
	.loc 18 214 17
	jmp	.L224
.L228:
	.loc 18 218 15
	movq	-224(%rbp), %rax
	movq	%rax, %rsi
	leaq	_ZSt4cout(%rip), %rax
	movq	%rax, %rdi
	call	_ZStlsISt11char_traitsIcEERSt13basic_ostreamIcT_ES5_PKc@PLT
	.loc 18 218 32
	movq	_ZSt4endlIcSt11char_traitsIcEERSt13basic_ostreamIT_T0_ES6_@GOTPCREL(%rip), %rdx
	movq	%rdx, %rsi
	movq	%rax, %rdi
	call	_ZNSolsEPFRSoS_E@PLT
.LEHE32:
	.loc 18 220 28
	leaq	-160(%rbp), %rax
	movq	%rax, %rdi
	call	_ZNSaIcEC1Ev@PLT
	movq	-224(%rbp), %rcx
	leaq	-160(%rbp), %rdx
	leaq	-128(%rbp), %rax
	movq	%rcx, %rsi
	movq	%rax, %rdi
.LEHB33:
	call	_ZNSt7__cxx1112basic_stringIcSt11char_traitsIcESaIcEEC1IS3_EEPKcRKS3_
.LEHE33:
	leaq	-160(%rbp), %rax
	movq	%rax, %rdi
	call	_ZNSaIcED1Ev@PLT
	.loc 18 221 30
	leaq	-192(%rbp), %rax
	movq	%rax, %rdi
	call	_ZNSt6vectorINSt7__cxx1112basic_stringIcSt11char_traitsIcESaIcEEESaIS5_EEC1Ev
	.loc 18 222 49
	leaq	-64(%rbp), %rax
	leaq	.LC12(%rip), %rdx
	movq	%rdx, %rsi
	movq	%rax, %rdi
.LEHB34:
	call	_ZN5boost9algorithm9is_any_ofIA2_cEENS0_6detail10is_any_ofFINS_11range_valueIT_E4typeEEERKS6_
.LEHE34:
	.loc 18 222 17 discriminator 1
	leaq	-64(%rbp), %rdx
	leaq	-128(%rbp), %rsi
	leaq	-192(%rbp), %rax
	movl	$1, %ecx
	movq	%rax, %rdi
.LEHB35:
	call	_ZN5boost9algorithm5splitISt6vectorINSt7__cxx1112basic_stringIcSt11char_traitsIcESaIcEEESaIS8_EERS8_NS0_6detail10is_any_ofFIcEEEERT_SG_OT0_T1_NS0_24token_compress_mode_typeE
.LEHE35:
	.loc 18 222 49 discriminator 3
	leaq	-64(%rbp), %rax
	movq	%rax, %rdi
	call	_ZN5boost9algorithm6detail10is_any_ofFIcED1Ev
.LBB58:
	.loc 18 224 14 discriminator 3
	movl	$0, -236(%rbp)
	.loc 18 224 5 discriminator 3
	jmp	.L229
.L230:
.LBB59:
	.loc 18 225 36
	movl	-236(%rbp), %eax
	movslq	%eax, %rdx
	leaq	-192(%rbp), %rax
	movq	%rdx, %rsi
	movq	%rax, %rdi
	call	_ZNSt6vectorINSt7__cxx1112basic_stringIcSt11char_traitsIcESaIcEEESaIS5_EEixEm
	movq	%rax, %rdx
	.loc 18 225 37
	leaq	-96(%rbp), %rax
	movq	%rdx, %rsi
	movq	%rax, %rdi
.LEHB36:
	call	_ZNSt7__cxx1112basic_stringIcSt11char_traitsIcESaIcEEC1ERKS4_
.LEHE36:
	.loc 18 226 31
	leaq	-160(%rbp), %rax
	movq	%rax, %rdi
	call	_ZNSt6vectorINSt7__cxx1112basic_stringIcSt11char_traitsIcESaIcEEESaIS5_EEC1Ev
	.loc 18 227 52
	leaq	-64(%rbp), %rax
	leaq	.LC10(%rip), %rdx
	movq	%rdx, %rsi
	movq	%rax, %rdi
.LEHB37:
	call	_ZN5boost9algorithm9is_any_ofIA2_cEENS0_6detail10is_any_ofFINS_11range_valueIT_E4typeEEERKS6_
.LEHE37:
	.loc 18 227 18 discriminator 1
	leaq	-64(%rbp), %rdx
	leaq	-96(%rbp), %rsi
	leaq	-160(%rbp), %rax
	movl	$1, %ecx
	movq	%rax, %rdi
.LEHB38:
	call	_ZN5boost9algorithm5splitISt6vectorINSt7__cxx1112basic_stringIcSt11char_traitsIcESaIcEEESaIS8_EERS8_NS0_6detail10is_any_ofFIcEEEERT_SG_OT0_T1_NS0_24token_compress_mode_typeE
.LEHE38:
	.loc 18 227 52 discriminator 3
	leaq	-64(%rbp), %rax
	movq	%rax, %rdi
	call	_ZN5boost9algorithm6detail10is_any_ofFIcED1Ev
	.loc 18 228 14 discriminator 3
	leaq	-64(%rbp), %rax
	movq	%rax, %rdi
	call	_ZNSt7__cxx1112basic_stringIcSt11char_traitsIcESaIcEEC1Ev
	.loc 18 229 17 discriminator 3
	leaq	-160(%rbp), %rax
	movl	$0, %esi
	movq	%rax, %rdi
	call	_ZNSt6vectorINSt7__cxx1112basic_stringIcSt11char_traitsIcESaIcEEESaIS5_EEixEm
	movq	%rax, %rdx
	leaq	-64(%rbp), %rax
	movq	%rdx, %rsi
	movq	%rax, %rdi
.LEHB39:
	call	_ZNSt7__cxx1112basic_stringIcSt11char_traitsIcESaIcEEaSERKS4_
	.loc 18 230 6
	movq	ti(%rip), %rax
	.loc 18 230 20
	movq	%rax, %rdx
	leaq	-64(%rbp), %rax
	movq	%rax, %rsi
	movq	%rdx, %rdi
	call	_ZNSt13unordered_mapINSt7__cxx1112basic_stringIcSt11char_traitsIcESaIcEEESt6vectorIP8TinyblobSaIS8_EESt4hashIS5_ESt8equal_toIS5_ESaISt4pairIKS5_SA_EEEixERSG_
	movq	%rax, %rbx
	.loc 18 230 57
	leaq	-160(%rbp), %rax
	movl	$1, %esi
	movq	%rax, %rdi
	call	_ZNSt6vectorINSt7__cxx1112basic_stringIcSt11char_traitsIcESaIcEEESaIS5_EEixEm
	.loc 18 230 47
	movl	$10, %edx
	movl	$0, %esi
	movq	%rax, %rdi
	call	_ZNSt7__cxx114stoiERKNS_12basic_stringIcSt11char_traitsIcESaIcEEEPmi
	.loc 18 230 59 discriminator 1
	cltq
	movq	%rax, %rsi
	leaq	blobs(%rip), %rax
	movq	%rax, %rdi
	call	_ZNSt6vectorIP8TinyblobSaIS1_EEixEm
	.loc 18 230 31 discriminator 1
	movq	%rax, %rsi
	movq	%rbx, %rdi
	call	_ZNSt6vectorIP8TinyblobSaIS1_EE9push_backERKS1_
.LEHE39:
	.loc 18 231 5 discriminator 2
	leaq	-64(%rbp), %rax
	movq	%rax, %rdi
	call	_ZNSt7__cxx1112basic_stringIcSt11char_traitsIcESaIcEED1Ev
	leaq	-160(%rbp), %rax
	movq	%rax, %rdi
	call	_ZNSt6vectorINSt7__cxx1112basic_stringIcSt11char_traitsIcESaIcEEESaIS5_EED1Ev
	leaq	-96(%rbp), %rax
	movq	%rax, %rdi
	call	_ZNSt7__cxx1112basic_stringIcSt11char_traitsIcESaIcEED1Ev
.LBE59:
	.loc 18 224 5 discriminator 2
	addl	$1, -236(%rbp)
.L229:
	.loc 18 224 21 discriminator 1
	movl	-236(%rbp), %eax
	movslq	%eax, %rbx
	.loc 18 224 36 discriminator 1
	leaq	-192(%rbp), %rax
	movq	%rax, %rdi
	call	_ZNKSt6vectorINSt7__cxx1112basic_stringIcSt11char_traitsIcESaIcEEESaIS5_EE4sizeEv
	.loc 18 224 38 discriminator 1
	subq	$1, %rax
	.loc 18 224 23 discriminator 1
	cmpq	%rax, %rbx
	setb	%al
	testb	%al, %al
	jne	.L230
.LBE58:
.LBB61:
	.loc 18 234 28
	leaq	blobs(%rip), %rax
	movq	%rax, -208(%rbp)
	movq	-208(%rbp), %rax
	movq	%rax, %rdi
	call	_ZNSt6vectorIP8TinyblobSaIS1_EE5beginEv
	movq	%rax, -216(%rbp)
	movq	-208(%rbp), %rax
	movq	%rax, %rdi
	call	_ZNSt6vectorIP8TinyblobSaIS1_EE3endEv
	movq	%rax, -160(%rbp)
	.loc 18 234 9
	jmp	.L231
.L232:
	.loc 18 234 28 discriminator 3
	leaq	-216(%rbp), %rax
	movq	%rax, %rdi
	call	_ZNK9__gnu_cxx17__normal_iteratorIPP8TinyblobSt6vectorIS2_SaIS2_EEEdeEv
	movq	(%rax), %rax
	movq	%rax, -200(%rbp)
	.loc 18 235 28 discriminator 3
	movq	-200(%rbp), %rax
	movq	%rax, %rdi
.LEHB40:
	call	_ZN8Tinyblob7printTbEv
.LEHE40:
	.loc 18 234 28 discriminator 2
	leaq	-216(%rbp), %rax
	movq	%rax, %rdi
	call	_ZN9__gnu_cxx17__normal_iteratorIPP8TinyblobSt6vectorIS2_SaIS2_EEEppEv
.L231:
	.loc 18 234 28 is_stmt 0 discriminator 1
	leaq	-160(%rbp), %rdx
	leaq	-216(%rbp), %rax
	movq	%rdx, %rsi
	movq	%rax, %rdi
	call	_ZN9__gnu_cxxeqIPP8TinyblobS3_St6vectorIS2_SaIS2_EEEEbRKNS_17__normal_iteratorIT_T1_EERKNS7_IT0_S9_EE
	xorl	$1, %eax
	testb	%al, %al
	jne	.L232
.LBE61:
	.loc 18 237 1 is_stmt 1
	leaq	-192(%rbp), %rax
	movq	%rax, %rdi
	call	_ZNSt6vectorINSt7__cxx1112basic_stringIcSt11char_traitsIcESaIcEEESaIS5_EED1Ev
	leaq	-128(%rbp), %rax
	movq	%rax, %rdi
	call	_ZNSt7__cxx1112basic_stringIcSt11char_traitsIcESaIcEED1Ev
	jmp	.L224
.L241:
	endbr64
	movq	%rax, %rbx
	leaq	-160(%rbp), %rax
	movq	%rax, %rdi
	call	_ZNSaIcED1Ev@PLT
	movq	%rbx, %rax
	movq	%rax, %rdi
.LEHB41:
	call	_Unwind_Resume@PLT
.L243:
	endbr64
	.loc 18 222 49
	movq	%rax, %rbx
	leaq	-64(%rbp), %rax
	movq	%rax, %rdi
	call	_ZN5boost9algorithm6detail10is_any_ofFIcED1Ev
	jmp	.L236
.L245:
	endbr64
.LBB62:
.LBB60:
	.loc 18 227 52
	movq	%rax, %rbx
	leaq	-64(%rbp), %rax
	movq	%rax, %rdi
	call	_ZN5boost9algorithm6detail10is_any_ofFIcED1Ev
	jmp	.L238
.L246:
	endbr64
	.loc 18 231 5
	movq	%rax, %rbx
	leaq	-64(%rbp), %rax
	movq	%rax, %rdi
	call	_ZNSt7__cxx1112basic_stringIcSt11char_traitsIcESaIcEED1Ev
	jmp	.L238
.L244:
	endbr64
	movq	%rax, %rbx
.L238:
	leaq	-160(%rbp), %rax
	movq	%rax, %rdi
	call	_ZNSt6vectorINSt7__cxx1112basic_stringIcSt11char_traitsIcESaIcEEESaIS5_EED1Ev
	leaq	-96(%rbp), %rax
	movq	%rax, %rdi
	call	_ZNSt7__cxx1112basic_stringIcSt11char_traitsIcESaIcEED1Ev
	jmp	.L236
.L242:
	endbr64
.LBE60:
.LBE62:
	.loc 18 237 1
	movq	%rax, %rbx
.L236:
	leaq	-192(%rbp), %rax
	movq	%rax, %rdi
	call	_ZNSt6vectorINSt7__cxx1112basic_stringIcSt11char_traitsIcESaIcEEESaIS5_EED1Ev
	leaq	-128(%rbp), %rax
	movq	%rax, %rdi
	call	_ZNSt7__cxx1112basic_stringIcSt11char_traitsIcESaIcEED1Ev
	movq	%rbx, %rax
	movq	%rax, %rdi
	call	_Unwind_Resume@PLT
.LEHE41:
.L224:
	movq	-24(%rbp), %rax
	subq	%fs:40, %rax
	je	.L240
	call	__stack_chk_fail@PLT
.L240:
	movq	-8(%rbp), %rbx
	leave
	.cfi_def_cfa 7, 8
	ret
	.cfi_endproc
.LFE13396:
	.section	.gcc_except_table
.LLSDA13396:
	.byte	0xff
	.byte	0xff
	.byte	0x1
	.uleb128 .LLSDACSE13396-.LLSDACSB13396
.LLSDACSB13396:
	.uleb128 .LEHB32-.LFB13396
	.uleb128 .LEHE32-.LEHB32
	.uleb128 0
	.uleb128 0
	.uleb128 .LEHB33-.LFB13396
	.uleb128 .LEHE33-.LEHB33
	.uleb128 .L241-.LFB13396
	.uleb128 0
	.uleb128 .LEHB34-.LFB13396
	.uleb128 .LEHE34-.LEHB34
	.uleb128 .L242-.LFB13396
	.uleb128 0
	.uleb128 .LEHB35-.LFB13396
	.uleb128 .LEHE35-.LEHB35
	.uleb128 .L243-.LFB13396
	.uleb128 0
	.uleb128 .LEHB36-.LFB13396
	.uleb128 .LEHE36-.LEHB36
	.uleb128 .L242-.LFB13396
	.uleb128 0
	.uleb128 .LEHB37-.LFB13396
	.uleb128 .LEHE37-.LEHB37
	.uleb128 .L244-.LFB13396
	.uleb128 0
	.uleb128 .LEHB38-.LFB13396
	.uleb128 .LEHE38-.LEHB38
	.uleb128 .L245-.LFB13396
	.uleb128 0
	.uleb128 .LEHB39-.LFB13396
	.uleb128 .LEHE39-.LEHB39
	.uleb128 .L246-.LFB13396
	.uleb128 0
	.uleb128 .LEHB40-.LFB13396
	.uleb128 .LEHE40-.LEHB40
	.uleb128 .L242-.LFB13396
	.uleb128 0
	.uleb128 .LEHB41-.LFB13396
	.uleb128 .LEHE41-.LEHB41
	.uleb128 0
	.uleb128 0
.LLSDACSE13396:
	.text
	.size	_Z7recoverPc, .-_Z7recoverPc
	.section	.text._ZN9__gnu_cxx11char_traitsIcE2eqERKcS3_,"axG",@progbits,_ZN9__gnu_cxx11char_traitsIcE2eqERKcS3_,comdat
	.weak	_ZN9__gnu_cxx11char_traitsIcE2eqERKcS3_
	.type	_ZN9__gnu_cxx11char_traitsIcE2eqERKcS3_, @function
_ZN9__gnu_cxx11char_traitsIcE2eqERKcS3_:
.LFB13398:
	.loc 6 106 7
	.cfi_startproc
	endbr64
	pushq	%rbp
	.cfi_def_cfa_offset 16
	.cfi_offset 6, -16
	movq	%rsp, %rbp
	.cfi_def_cfa_register 6
	movq	%rdi, -8(%rbp)
	movq	%rsi, -16(%rbp)
	.loc 6 107 21
	movq	-8(%rbp), %rax
	movzbl	(%rax), %edx
	movq	-16(%rbp), %rax
	movzbl	(%rax), %eax
	.loc 6 107 24
	cmpb	%al, %dl
	sete	%al
	.loc 6 107 30
	popq	%rbp
	.cfi_def_cfa 7, 8
	ret
	.cfi_endproc
.LFE13398:
	.size	_ZN9__gnu_cxx11char_traitsIcE2eqERKcS3_, .-_ZN9__gnu_cxx11char_traitsIcE2eqERKcS3_
	.section	.text._ZN9__gnu_cxx11char_traitsIcE6lengthEPKc,"axG",@progbits,_ZN9__gnu_cxx11char_traitsIcE6lengthEPKc,comdat
	.align 2
	.weak	_ZN9__gnu_cxx11char_traitsIcE6lengthEPKc
	.type	_ZN9__gnu_cxx11char_traitsIcE6lengthEPKc, @function
_ZN9__gnu_cxx11char_traitsIcE6lengthEPKc:
.LFB13397:
	.loc 6 167 5
	.cfi_startproc
	endbr64
	pushq	%rbp
	.cfi_def_cfa_offset 16
	.cfi_offset 6, -16
	movq	%rsp, %rbp
	.cfi_def_cfa_register 6
	subq	$48, %rsp
	movq	%rdi, -40(%rbp)
	.loc 6 167 5
	movq	%fs:40, %rax
	movq	%rax, -8(%rbp)
	xorl	%eax, %eax
	.loc 6 170 19
	movq	$0, -16(%rbp)
	.loc 6 171 7
	jmp	.L250
.L251:
	.loc 6 172 9
	addq	$1, -16(%rbp)
.L250:
	.loc 6 171 17
	movb	$0, -17(%rbp)
	.loc 6 171 21
	movq	-40(%rbp), %rdx
	movq	-16(%rbp), %rax
	addq	%rax, %rdx
	.loc 6 171 17
	leaq	-17(%rbp), %rax
	movq	%rax, %rsi
	movq	%rdx, %rdi
	call	_ZN9__gnu_cxx11char_traitsIcE2eqERKcS3_
	xorl	$1, %eax
	testb	%al, %al
	jne	.L251
	.loc 6 173 14
	movq	-16(%rbp), %rax
	.loc 6 174 5
	movq	-8(%rbp), %rdx
	subq	%fs:40, %rdx
	je	.L253
	call	__stack_chk_fail@PLT
.L253:
	leave
	.cfi_def_cfa 7, 8
	ret
	.cfi_endproc
.LFE13397:
	.size	_ZN9__gnu_cxx11char_traitsIcE6lengthEPKc, .-_ZN9__gnu_cxx11char_traitsIcE6lengthEPKc
	.section	.text._ZSt4copyIPKcPcET0_T_S4_S3_,"axG",@progbits,_ZSt4copyIPKcPcET0_T_S4_S3_,comdat
	.weak	_ZSt4copyIPKcPcET0_T_S4_S3_
	.type	_ZSt4copyIPKcPcET0_T_S4_S3_, @function
_ZSt4copyIPKcPcET0_T_S4_S3_:
.LFB13402:
	.loc 5 611 5
	.cfi_startproc
	endbr64
	pushq	%rbp
	.cfi_def_cfa_offset 16
	.cfi_offset 6, -16
	movq	%rsp, %rbp
	.cfi_def_cfa_register 6
	pushq	%rbx
	subq	$40, %rsp
	.cfi_offset 3, -24
	movq	%rdi, -24(%rbp)
	movq	%rsi, -32(%rbp)
	movq	%rdx, -40(%rbp)
	.loc 5 620 7
	movq	-32(%rbp), %rax
	movq	%rax, %rdi
	call	_ZSt12__miter_baseIPKcET_S2_
	movq	%rax, %rbx
	movq	-24(%rbp), %rax
	movq	%rax, %rdi
	call	_ZSt12__miter_baseIPKcET_S2_
	movq	%rax, %rcx
	movq	-40(%rbp), %rax
	movq	%rax, %rdx
	movq	%rbx, %rsi
	movq	%rcx, %rdi
	call	_ZSt13__copy_move_aILb0EPKcPcET1_T0_S4_S3_
	.loc 5 621 5
	movq	-8(%rbp), %rbx
	leave
	.cfi_def_cfa 7, 8
	ret
	.cfi_endproc
.LFE13402:
	.size	_ZSt4copyIPKcPcET0_T_S4_S3_, .-_ZSt4copyIPKcPcET0_T_S4_S3_
	.section	.text._ZN9__gnu_cxx11char_traitsIcE4copyEPcPKcm,"axG",@progbits,_ZN9__gnu_cxx11char_traitsIcE4copyEPcPKcm,comdat
	.align 2
	.weak	_ZN9__gnu_cxx11char_traitsIcE4copyEPcPKcm
	.type	_ZN9__gnu_cxx11char_traitsIcE4copyEPcPKcm, @function
_ZN9__gnu_cxx11char_traitsIcE4copyEPcPKcm:
.LFB13401:
	.loc 6 240 5
	.cfi_startproc
	endbr64
	pushq	%rbp
	.cfi_def_cfa_offset 16
	.cfi_offset 6, -16
	movq	%rsp, %rbp
	.cfi_def_cfa_register 6
	subq	$32, %rsp
	movq	%rdi, -8(%rbp)
	movq	%rsi, -16(%rbp)
	movq	%rdx, -24(%rbp)
	.loc 6 244 16
	movq	-16(%rbp), %rdx
	movq	-24(%rbp), %rax
	leaq	(%rdx,%rax), %rcx
	movq	-8(%rbp), %rdx
	movq	-16(%rbp), %rax
	movq	%rcx, %rsi
	movq	%rax, %rdi
	call	_ZSt4copyIPKcPcET0_T_S4_S3_
	.loc 6 245 14
	movq	-8(%rbp), %rax
	.loc 6 246 5
	leave
	.cfi_def_cfa 7, 8
	ret
	.cfi_endproc
.LFE13401:
	.size	_ZN9__gnu_cxx11char_traitsIcE4copyEPcPKcm, .-_ZN9__gnu_cxx11char_traitsIcE4copyEPcPKcm
	.section	.text._ZN9__gnu_cxx11char_traitsIcE4moveEPcPKcm,"axG",@progbits,_ZN9__gnu_cxx11char_traitsIcE4moveEPcPKcm,comdat
	.align 2
	.weak	_ZN9__gnu_cxx11char_traitsIcE4moveEPcPKcm
	.type	_ZN9__gnu_cxx11char_traitsIcE4moveEPcPKcm, @function
_ZN9__gnu_cxx11char_traitsIcE4moveEPcPKcm:
.LFB13400:
	.loc 6 190 5
	.cfi_startproc
	endbr64
	pushq	%rbp
	.cfi_def_cfa_offset 16
	.cfi_offset 6, -16
	movq	%rsp, %rbp
	.cfi_def_cfa_register 6
	subq	$48, %rsp
	movq	%rdi, -24(%rbp)
	movq	%rsi, -32(%rbp)
	movq	%rdx, -40(%rbp)
	.loc 6 193 7
	cmpq	$0, -40(%rbp)
	jne	.L259
	.loc 6 194 9
	movq	-24(%rbp), %rax
	jmp	.L260
.L259:
.LBB63:
	.loc 6 196 37
	call	_ZSt21is_constant_evaluatedv
	.loc 6 196 7
	testb	%al, %al
	je	.L261
.LBB64:
	.loc 6 198 4
	movq	-24(%rbp), %rax
	cmpq	-32(%rbp), %rax
	jne	.L262
	.loc 6 199 13
	movq	-24(%rbp), %rax
	jmp	.L260
.L262:
	.loc 6 203 23
	movq	-40(%rbp), %rax
	movq	%rax, %rdi
	call	_Znam@PLT
	movq	%rax, -8(%rbp)
	.loc 6 204 8
	movq	-40(%rbp), %rdx
	movq	-32(%rbp), %rcx
	movq	-8(%rbp), %rax
	movq	%rcx, %rsi
	movq	%rax, %rdi
	call	_ZN9__gnu_cxx11char_traitsIcE4copyEPcPKcm
	.loc 6 205 8
	movq	-40(%rbp), %rdx
	movq	-8(%rbp), %rcx
	movq	-24(%rbp), %rax
	movq	%rcx, %rsi
	movq	%rax, %rdi
	call	_ZN9__gnu_cxx11char_traitsIcE4copyEPcPKcm
	.loc 6 206 4
	cmpq	$0, -8(%rbp)
	je	.L263
	.loc 6 206 4 is_stmt 0 discriminator 1
	movq	-8(%rbp), %rax
	movq	%rax, %rdi
	call	_ZdaPv@PLT
.L263:
	.loc 6 230 11 is_stmt 1
	movq	-24(%rbp), %rax
	jmp	.L260
.L261:
.LBE64:
.LBE63:
	.loc 6 233 24
	movq	-40(%rbp), %rdx
	movq	-32(%rbp), %rcx
	movq	-24(%rbp), %rax
	movq	%rcx, %rsi
	movq	%rax, %rdi
	call	memmove@PLT
	.loc 6 234 14
	movq	-24(%rbp), %rax
.L260:
	.loc 6 235 5
	leave
	.cfi_def_cfa 7, 8
	ret
	.cfi_endproc
.LFE13400:
	.size	_ZN9__gnu_cxx11char_traitsIcE4moveEPcPKcm, .-_ZN9__gnu_cxx11char_traitsIcE4moveEPcPKcm
	.section	.text._ZSt6fill_nIPcmcET_S1_T0_RKT1_,"axG",@progbits,_ZSt6fill_nIPcmcET_S1_T0_RKT1_,comdat
	.weak	_ZSt6fill_nIPcmcET_S1_T0_RKT1_
	.type	_ZSt6fill_nIPcmcET_S1_T0_RKT1_, @function
_ZSt6fill_nIPcmcET_S1_T0_RKT1_:
.LFB13404:
	.loc 5 1144 5
	.cfi_startproc
	endbr64
	pushq	%rbp
	.cfi_def_cfa_offset 16
	.cfi_offset 6, -16
	movq	%rsp, %rbp
	.cfi_def_cfa_register 6
	subq	$32, %rsp
	movq	%rdi, -8(%rbp)
	movq	%rsi, -16(%rbp)
	movq	%rdx, -24(%rbp)
	.loc 5 1150 35
	leaq	-8(%rbp), %rax
	movq	%rax, %rdi
	call	_ZSt19__iterator_categoryIPcENSt15iterator_traitsIT_E17iterator_categoryERKS2_
	.loc 5 1149 29
	movq	-16(%rbp), %rax
	movq	%rax, %rdi
	call	_ZSt17__size_to_integerm
	movq	%rax, %rcx
	movq	-8(%rbp), %rax
	movq	-24(%rbp), %rdx
	movq	%rcx, %rsi
	movq	%rax, %rdi
	call	_ZSt10__fill_n_aIPcmcET_S1_T0_RKT1_St26random_access_iterator_tag
	.loc 5 1151 5
	leave
	.cfi_def_cfa 7, 8
	ret
	.cfi_endproc
.LFE13404:
	.size	_ZSt6fill_nIPcmcET_S1_T0_RKT1_, .-_ZSt6fill_nIPcmcET_S1_T0_RKT1_
	.section	.text._ZN9__gnu_cxx11char_traitsIcE6assignEPcmc,"axG",@progbits,_ZN9__gnu_cxx11char_traitsIcE6assignEPcmc,comdat
	.align 2
	.weak	_ZN9__gnu_cxx11char_traitsIcE6assignEPcmc
	.type	_ZN9__gnu_cxx11char_traitsIcE6assignEPcmc, @function
_ZN9__gnu_cxx11char_traitsIcE6assignEPcmc:
.LFB13403:
	.loc 6 251 5
	.cfi_startproc
	endbr64
	pushq	%rbp
	.cfi_def_cfa_offset 16
	.cfi_offset 6, -16
	movq	%rsp, %rbp
	.cfi_def_cfa_register 6
	subq	$32, %rsp
	movq	%rdi, -8(%rbp)
	movq	%rsi, -16(%rbp)
	movl	%edx, %eax
	movb	%al, -20(%rbp)
	.loc 6 255 18
	leaq	-20(%rbp), %rdx
	movq	-16(%rbp), %rcx
	movq	-8(%rbp), %rax
	movq	%rcx, %rsi
	movq	%rax, %rdi
	call	_ZSt6fill_nIPcmcET_S1_T0_RKT1_
	.loc 6 256 14
	movq	-8(%rbp), %rax
	.loc 6 257 5
	leave
	.cfi_def_cfa 7, 8
	ret
	.cfi_endproc
.LFE13403:
	.size	_ZN9__gnu_cxx11char_traitsIcE6assignEPcmc, .-_ZN9__gnu_cxx11char_traitsIcE6assignEPcmc
	.section	.text._ZNKSt7__cxx1112basic_stringIcSt11char_traitsIcESaIcEE5c_strEv,"axG",@progbits,_ZNKSt7__cxx1112basic_stringIcSt11char_traitsIcESaIcEE5c_strEv,comdat
	.align 2
	.weak	_ZNKSt7__cxx1112basic_stringIcSt11char_traitsIcESaIcEE5c_strEv
	.type	_ZNKSt7__cxx1112basic_stringIcSt11char_traitsIcESaIcEE5c_strEv, @function
_ZNKSt7__cxx1112basic_stringIcSt11char_traitsIcESaIcEE5c_strEv:
.LFB13455:
	.loc 8 2320 7
	.cfi_startproc
	endbr64
	pushq	%rbp
	.cfi_def_cfa_offset 16
	.cfi_offset 6, -16
	movq	%rsp, %rbp
	.cfi_def_cfa_register 6
	subq	$16, %rsp
	movq	%rdi, -8(%rbp)
	.loc 8 2321 23
	movq	-8(%rbp), %rax
	movq	%rax, %rdi
	call	_ZNKSt7__cxx1112basic_stringIcSt11char_traitsIcESaIcEE7_M_dataEv
	.loc 8 2321 27
	leave
	.cfi_def_cfa 7, 8
	ret
	.cfi_endproc
.LFE13455:
	.size	_ZNKSt7__cxx1112basic_stringIcSt11char_traitsIcESaIcEE5c_strEv, .-_ZNKSt7__cxx1112basic_stringIcSt11char_traitsIcESaIcEE5c_strEv
	.section	.text._ZZN9__gnu_cxx6__stoaIlicJiEEET0_PFT_PKT1_PPS3_DpT2_EPKcS5_PmS9_EN11_Save_errnoC2Ev,"axG",@progbits,_ZZN9__gnu_cxx6__stoaIlicJiEEET0_PFT_PKT1_PPS3_DpT2_EPKcS5_PmS9_EN11_Save_errnoC5Ev,comdat
	.align 2
	.weak	_ZZN9__gnu_cxx6__stoaIlicJiEEET0_PFT_PKT1_PPS3_DpT2_EPKcS5_PmS9_EN11_Save_errnoC2Ev
	.type	_ZZN9__gnu_cxx6__stoaIlicJiEEET0_PFT_PKT1_PPS3_DpT2_EPKcS5_PmS9_EN11_Save_errnoC2Ev, @function
_ZZN9__gnu_cxx6__stoaIlicJiEEET0_PFT_PKT1_PPS3_DpT2_EPKcS5_PmS9_EN11_Save_errnoC2Ev:
.LFB13458:
	.file 22 "/usr/include/c++/11/ext/string_conversions.h"
	.loc 22 63 2
	.cfi_startproc
	endbr64
	pushq	%rbp
	.cfi_def_cfa_offset 16
	.cfi_offset 6, -16
	movq	%rsp, %rbp
	.cfi_def_cfa_register 6
	subq	$16, %rsp
	movq	%rdi, -8(%rbp)
.LBB65:
	.loc 22 63 27
	call	__errno_location@PLT
	.loc 22 63 18
	movl	(%rax), %edx
	movq	-8(%rbp), %rax
	movl	%edx, (%rax)
	.loc 22 63 36
	call	__errno_location@PLT
	.loc 22 63 42
	movl	$0, (%rax)
.LBE65:
	.loc 22 63 47
	nop
	leave
	.cfi_def_cfa 7, 8
	ret
	.cfi_endproc
.LFE13458:
	.size	_ZZN9__gnu_cxx6__stoaIlicJiEEET0_PFT_PKT1_PPS3_DpT2_EPKcS5_PmS9_EN11_Save_errnoC2Ev, .-_ZZN9__gnu_cxx6__stoaIlicJiEEET0_PFT_PKT1_PPS3_DpT2_EPKcS5_PmS9_EN11_Save_errnoC2Ev
	.weak	_ZZN9__gnu_cxx6__stoaIlicJiEEET0_PFT_PKT1_PPS3_DpT2_EPKcS5_PmS9_EN11_Save_errnoC1Ev
	.set	_ZZN9__gnu_cxx6__stoaIlicJiEEET0_PFT_PKT1_PPS3_DpT2_EPKcS5_PmS9_EN11_Save_errnoC1Ev,_ZZN9__gnu_cxx6__stoaIlicJiEEET0_PFT_PKT1_PPS3_DpT2_EPKcS5_PmS9_EN11_Save_errnoC2Ev
	.section	.text._ZZN9__gnu_cxx6__stoaIlicJiEEET0_PFT_PKT1_PPS3_DpT2_EPKcS5_PmS9_EN11_Save_errnoD2Ev,"axG",@progbits,_ZZN9__gnu_cxx6__stoaIlicJiEEET0_PFT_PKT1_PPS3_DpT2_EPKcS5_PmS9_EN11_Save_errnoD5Ev,comdat
	.align 2
	.weak	_ZZN9__gnu_cxx6__stoaIlicJiEEET0_PFT_PKT1_PPS3_DpT2_EPKcS5_PmS9_EN11_Save_errnoD2Ev
	.type	_ZZN9__gnu_cxx6__stoaIlicJiEEET0_PFT_PKT1_PPS3_DpT2_EPKcS5_PmS9_EN11_Save_errnoD2Ev, @function
_ZZN9__gnu_cxx6__stoaIlicJiEEET0_PFT_PKT1_PPS3_DpT2_EPKcS5_PmS9_EN11_Save_errnoD2Ev:
.LFB13461:
	.loc 22 64 2
	.cfi_startproc
	endbr64
	pushq	%rbp
	.cfi_def_cfa_offset 16
	.cfi_offset 6, -16
	movq	%rsp, %rbp
	.cfi_def_cfa_register 6
	subq	$16, %rsp
	movq	%rdi, -8(%rbp)
.LBB66:
	.loc 22 64 23
	call	__errno_location@PLT
	.loc 22 64 29
	movl	(%rax), %eax
	.loc 22 64 19
	testl	%eax, %eax
	jne	.L273
	.loc 22 64 35 discriminator 1
	call	__errno_location@PLT
	.loc 22 64 43 discriminator 1
	movq	-8(%rbp), %rdx
	movl	(%rdx), %edx
	.loc 22 64 41 discriminator 1
	movl	%edx, (%rax)
.L273:
.LBE66:
	.loc 22 64 53
	nop
	leave
	.cfi_def_cfa 7, 8
	ret
	.cfi_endproc
.LFE13461:
	.size	_ZZN9__gnu_cxx6__stoaIlicJiEEET0_PFT_PKT1_PPS3_DpT2_EPKcS5_PmS9_EN11_Save_errnoD2Ev, .-_ZZN9__gnu_cxx6__stoaIlicJiEEET0_PFT_PKT1_PPS3_DpT2_EPKcS5_PmS9_EN11_Save_errnoD2Ev
	.weak	_ZZN9__gnu_cxx6__stoaIlicJiEEET0_PFT_PKT1_PPS3_DpT2_EPKcS5_PmS9_EN11_Save_errnoD1Ev
	.set	_ZZN9__gnu_cxx6__stoaIlicJiEEET0_PFT_PKT1_PPS3_DpT2_EPKcS5_PmS9_EN11_Save_errnoD1Ev,_ZZN9__gnu_cxx6__stoaIlicJiEEET0_PFT_PKT1_PPS3_DpT2_EPKcS5_PmS9_EN11_Save_errnoD2Ev
	.section	.text._ZZN9__gnu_cxx6__stoaIlicJiEEET0_PFT_PKT1_PPS3_DpT2_EPKcS5_PmS9_EN10_Range_chk6_S_chkElSt17integral_constantIbLb1EE,"axG",@progbits,_ZZN9__gnu_cxx6__stoaIlicJiEEET0_PFT_PKT1_PPS3_DpT2_EPKcS5_PmS9_EN10_Range_chk6_S_chkElSt17integral_constantIbLb1EE,comdat
	.weak	_ZZN9__gnu_cxx6__stoaIlicJiEEET0_PFT_PKT1_PPS3_DpT2_EPKcS5_PmS9_EN10_Range_chk6_S_chkElSt17integral_constantIbLb1EE
	.type	_ZZN9__gnu_cxx6__stoaIlicJiEEET0_PFT_PKT1_PPS3_DpT2_EPKcS5_PmS9_EN10_Range_chk6_S_chkElSt17integral_constantIbLb1EE, @function
_ZZN9__gnu_cxx6__stoaIlicJiEEET0_PFT_PKT1_PPS3_DpT2_EPKcS5_PmS9_EN10_Range_chk6_S_chkElSt17integral_constantIbLb1EE:
.LFB13464:
	.loc 22 73 4
	.cfi_startproc
	endbr64
	pushq	%rbp
	.cfi_def_cfa_offset 16
	.cfi_offset 6, -16
	movq	%rsp, %rbp
	.cfi_def_cfa_register 6
	movq	%rdi, -8(%rbp)
	.loc 22 76 8
	movabsq	$-2147483649, %rax
	cmpq	%rax, -8(%rbp)
	jle	.L275
	.loc 22 76 8 is_stmt 0 discriminator 2
	movl	$2147483648, %eax
	cmpq	%rax, -8(%rbp)
	jl	.L276
.L275:
	.loc 22 76 8 discriminator 3
	movl	$1, %eax
	jmp	.L277
.L276:
	.loc 22 76 8 discriminator 4
	movl	$0, %eax
.L277:
	.loc 22 77 4 is_stmt 1 discriminator 6
	popq	%rbp
	.cfi_def_cfa 7, 8
	ret
	.cfi_endproc
.LFE13464:
	.size	_ZZN9__gnu_cxx6__stoaIlicJiEEET0_PFT_PKT1_PPS3_DpT2_EPKcS5_PmS9_EN10_Range_chk6_S_chkElSt17integral_constantIbLb1EE, .-_ZZN9__gnu_cxx6__stoaIlicJiEEET0_PFT_PKT1_PPS3_DpT2_EPKcS5_PmS9_EN10_Range_chk6_S_chkElSt17integral_constantIbLb1EE
	.section	.text._ZN9__gnu_cxx6__stoaIlicJiEEET0_PFT_PKT1_PPS3_DpT2_EPKcS5_PmS9_,"axG",@progbits,_ZN9__gnu_cxx6__stoaIlicJiEEET0_PFT_PKT1_PPS3_DpT2_EPKcS5_PmS9_,comdat
	.weak	_ZN9__gnu_cxx6__stoaIlicJiEEET0_PFT_PKT1_PPS3_DpT2_EPKcS5_PmS9_
	.type	_ZN9__gnu_cxx6__stoaIlicJiEEET0_PFT_PKT1_PPS3_DpT2_EPKcS5_PmS9_, @function
_ZN9__gnu_cxx6__stoaIlicJiEEET0_PFT_PKT1_PPS3_DpT2_EPKcS5_PmS9_:
.LFB13456:
	.loc 22 54 5
	.cfi_startproc
	.cfi_personality 0x9b,DW.ref.__gxx_personality_v0
	.cfi_lsda 0x1b,.LLSDA13456
	endbr64
	pushq	%rbp
	.cfi_def_cfa_offset 16
	.cfi_offset 6, -16
	movq	%rsp, %rbp
	.cfi_def_cfa_register 6
	pushq	%rbx
	subq	$104, %rsp
	.cfi_offset 3, -24
	movq	%rdi, -72(%rbp)
	movq	%rsi, -80(%rbp)
	movq	%rdx, -88(%rbp)
	movq	%rcx, -96(%rbp)
	movl	%r8d, -100(%rbp)
	.loc 22 54 5
	movq	%fs:40, %rax
	movq	%rax, -24(%rbp)
	xorl	%eax, %eax
	.loc 22 66 15
	leaq	-48(%rbp), %rax
	movq	%rax, %rdi
	call	_ZZN9__gnu_cxx6__stoaIlicJiEEET0_PFT_PKT1_PPS3_DpT2_EPKcS5_PmS9_EN11_Save_errnoC1Ev
	.loc 22 80 34
	movq	-72(%rbp), %r8
	movl	-100(%rbp), %edx
	leaq	-40(%rbp), %rcx
	movq	-88(%rbp), %rax
	movq	%rcx, %rsi
	movq	%rax, %rdi
.LEHB42:
	call	*%r8
.LVL1:
	movq	%rax, -32(%rbp)
	.loc 22 82 11
	movq	-40(%rbp), %rax
	.loc 22 82 7
	cmpq	%rax, -88(%rbp)
	jne	.L280
	.loc 22 83 31
	movq	-80(%rbp), %rax
	movq	%rax, %rdi
	call	_ZSt24__throw_invalid_argumentPKc@PLT
.L280:
	.loc 22 84 16
	call	__errno_location@PLT
	.loc 22 84 22
	movl	(%rax), %eax
	.loc 22 85 4
	cmpl	$34, %eax
	je	.L281
	.loc 22 85 25 discriminator 2
	movq	-32(%rbp), %rax
	movq	%rax, %rdi
	call	_ZZN9__gnu_cxx6__stoaIlicJiEEET0_PFT_PKT1_PPS3_DpT2_EPKcS5_PmS9_EN10_Range_chk6_S_chkElSt17integral_constantIbLb1EE
	.loc 22 85 4 discriminator 2
	testb	%al, %al
	je	.L282
.L281:
	.loc 22 85 4 is_stmt 0 discriminator 3
	movl	$1, %eax
	jmp	.L283
.L282:
	.loc 22 85 4 discriminator 4
	movl	$0, %eax
.L283:
	.loc 22 84 12 is_stmt 1 discriminator 6
	testb	%al, %al
	je	.L284
	.loc 22 86 27
	movq	-80(%rbp), %rax
	movq	%rax, %rdi
	call	_ZSt20__throw_out_of_rangePKc@PLT
.LEHE42:
.L284:
	.loc 22 88 8
	movq	-32(%rbp), %rax
	movl	%eax, -44(%rbp)
	.loc 22 90 7
	cmpq	$0, -96(%rbp)
	je	.L285
	.loc 22 91 20
	movq	-40(%rbp), %rax
	subq	-88(%rbp), %rax
	movq	%rax, %rdx
	.loc 22 91 9
	movq	-96(%rbp), %rax
	movq	%rdx, (%rax)
.L285:
	.loc 22 93 14
	movl	-44(%rbp), %ebx
	.loc 22 94 5
	leaq	-48(%rbp), %rax
	movq	%rax, %rdi
	call	_ZZN9__gnu_cxx6__stoaIlicJiEEET0_PFT_PKT1_PPS3_DpT2_EPKcS5_PmS9_EN11_Save_errnoD1Ev
	.loc 22 93 14
	movl	%ebx, %eax
	.loc 22 94 5
	movq	-24(%rbp), %rdx
	subq	%fs:40, %rdx
	je	.L288
	jmp	.L290
.L289:
	endbr64
	movq	%rax, %rbx
	leaq	-48(%rbp), %rax
	movq	%rax, %rdi
	call	_ZZN9__gnu_cxx6__stoaIlicJiEEET0_PFT_PKT1_PPS3_DpT2_EPKcS5_PmS9_EN11_Save_errnoD1Ev
	movq	%rbx, %rax
	movq	%rax, %rdi
.LEHB43:
	call	_Unwind_Resume@PLT
.LEHE43:
.L290:
	call	__stack_chk_fail@PLT
.L288:
	movq	-8(%rbp), %rbx
	leave
	.cfi_def_cfa 7, 8
	ret
	.cfi_endproc
.LFE13456:
	.section	.gcc_except_table
.LLSDA13456:
	.byte	0xff
	.byte	0xff
	.byte	0x1
	.uleb128 .LLSDACSE13456-.LLSDACSB13456
.LLSDACSB13456:
	.uleb128 .LEHB42-.LFB13456
	.uleb128 .LEHE42-.LEHB42
	.uleb128 .L289-.LFB13456
	.uleb128 0
	.uleb128 .LEHB43-.LFB13456
	.uleb128 .LEHE43-.LEHB43
	.uleb128 0
	.uleb128 0
.LLSDACSE13456:
	.section	.text._ZN9__gnu_cxx6__stoaIlicJiEEET0_PFT_PKT1_PPS3_DpT2_EPKcS5_PmS9_,"axG",@progbits,_ZN9__gnu_cxx6__stoaIlicJiEEET0_PFT_PKT1_PPS3_DpT2_EPKcS5_PmS9_,comdat
	.size	_ZN9__gnu_cxx6__stoaIlicJiEEET0_PFT_PKT1_PPS3_DpT2_EPKcS5_PmS9_, .-_ZN9__gnu_cxx6__stoaIlicJiEEET0_PFT_PKT1_PPS3_DpT2_EPKcS5_PmS9_
	.section	.text._ZNSt7__cxx1112basic_stringIcSt11char_traitsIcESaIcEE12_Alloc_hiderD2Ev,"axG",@progbits,_ZNSt7__cxx1112basic_stringIcSt11char_traitsIcESaIcEE12_Alloc_hiderD5Ev,comdat
	.align 2
	.weak	_ZNSt7__cxx1112basic_stringIcSt11char_traitsIcESaIcEE12_Alloc_hiderD2Ev
	.type	_ZNSt7__cxx1112basic_stringIcSt11char_traitsIcESaIcEE12_Alloc_hiderD2Ev, @function
_ZNSt7__cxx1112basic_stringIcSt11char_traitsIcESaIcEE12_Alloc_hiderD2Ev:
.LFB13536:
	.loc 8 158 14
	.cfi_startproc
	endbr64
	pushq	%rbp
	.cfi_def_cfa_offset 16
	.cfi_offset 6, -16
	movq	%rsp, %rbp
	.cfi_def_cfa_register 6
	subq	$16, %rsp
	movq	%rdi, -8(%rbp)
.LBB67:
	.loc 8 158 14
	movq	-8(%rbp), %rax
	movq	%rax, %rdi
	call	_ZNSaIcED2Ev@PLT
.LBE67:
	nop
	leave
	.cfi_def_cfa 7, 8
	ret
	.cfi_endproc
.LFE13536:
	.size	_ZNSt7__cxx1112basic_stringIcSt11char_traitsIcESaIcEE12_Alloc_hiderD2Ev, .-_ZNSt7__cxx1112basic_stringIcSt11char_traitsIcESaIcEE12_Alloc_hiderD2Ev
	.weak	_ZNSt7__cxx1112basic_stringIcSt11char_traitsIcESaIcEE12_Alloc_hiderD1Ev
	.set	_ZNSt7__cxx1112basic_stringIcSt11char_traitsIcESaIcEE12_Alloc_hiderD1Ev,_ZNSt7__cxx1112basic_stringIcSt11char_traitsIcESaIcEE12_Alloc_hiderD2Ev
	.section	.text._ZNSt7__cxx1112basic_stringIcSt11char_traitsIcESaIcEEC2IS3_EEmcRKS3_,"axG",@progbits,_ZNSt7__cxx1112basic_stringIcSt11char_traitsIcESaIcEEC5IS3_EEmcRKS3_,comdat
	.align 2
	.weak	_ZNSt7__cxx1112basic_stringIcSt11char_traitsIcESaIcEEC2IS3_EEmcRKS3_
	.type	_ZNSt7__cxx1112basic_stringIcSt11char_traitsIcESaIcEEC2IS3_EEmcRKS3_, @function
_ZNSt7__cxx1112basic_stringIcSt11char_traitsIcESaIcEEC2IS3_EEmcRKS3_:
.LFB13538:
	.loc 8 553 7
	.cfi_startproc
	.cfi_personality 0x9b,DW.ref.__gxx_personality_v0
	.cfi_lsda 0x1b,.LLSDA13538
	endbr64
	pushq	%rbp
	.cfi_def_cfa_offset 16
	.cfi_offset 6, -16
	movq	%rsp, %rbp
	.cfi_def_cfa_register 6
	pushq	%rbx
	subq	$40, %rsp
	.cfi_offset 3, -24
	movq	%rdi, -24(%rbp)
	movq	%rsi, -32(%rbp)
	movl	%edx, %eax
	movq	%rcx, -48(%rbp)
	movb	%al, -36(%rbp)
.LBB68:
	.loc 8 554 9
	movq	-24(%rbp), %rbx
	movq	-24(%rbp), %rax
	movq	%rax, %rdi
	call	_ZNSt7__cxx1112basic_stringIcSt11char_traitsIcESaIcEE13_M_local_dataEv
	movq	%rax, %rcx
	movq	-48(%rbp), %rax
	movq	%rax, %rdx
	movq	%rcx, %rsi
	movq	%rbx, %rdi
	call	_ZNSt7__cxx1112basic_stringIcSt11char_traitsIcESaIcEE12_Alloc_hiderC1EPcRKS3_
	.loc 8 555 21
	movsbl	-36(%rbp), %edx
	movq	-32(%rbp), %rcx
	movq	-24(%rbp), %rax
	movq	%rcx, %rsi
	movq	%rax, %rdi
.LEHB44:
	call	_ZNSt7__cxx1112basic_stringIcSt11char_traitsIcESaIcEE12_M_constructEmc
.LEHE44:
.LBE68:
	.loc 8 555 33
	jmp	.L295
.L294:
	endbr64
.LBB69:
	movq	%rax, %rbx
	movq	-24(%rbp), %rax
	movq	%rax, %rdi
	call	_ZNSt7__cxx1112basic_stringIcSt11char_traitsIcESaIcEE12_Alloc_hiderD1Ev
	movq	%rbx, %rax
	movq	%rax, %rdi
.LEHB45:
	call	_Unwind_Resume@PLT
.LEHE45:
.L295:
.LBE69:
	movq	-8(%rbp), %rbx
	leave
	.cfi_def_cfa 7, 8
	ret
	.cfi_endproc
.LFE13538:
	.section	.gcc_except_table
.LLSDA13538:
	.byte	0xff
	.byte	0xff
	.byte	0x1
	.uleb128 .LLSDACSE13538-.LLSDACSB13538
.LLSDACSB13538:
	.uleb128 .LEHB44-.LFB13538
	.uleb128 .LEHE44-.LEHB44
	.uleb128 .L294-.LFB13538
	.uleb128 0
	.uleb128 .LEHB45-.LFB13538
	.uleb128 .LEHE45-.LEHB45
	.uleb128 0
	.uleb128 0
.LLSDACSE13538:
	.section	.text._ZNSt7__cxx1112basic_stringIcSt11char_traitsIcESaIcEEC2IS3_EEmcRKS3_,"axG",@progbits,_ZNSt7__cxx1112basic_stringIcSt11char_traitsIcESaIcEEC5IS3_EEmcRKS3_,comdat
	.size	_ZNSt7__cxx1112basic_stringIcSt11char_traitsIcESaIcEEC2IS3_EEmcRKS3_, .-_ZNSt7__cxx1112basic_stringIcSt11char_traitsIcESaIcEEC2IS3_EEmcRKS3_
	.weak	_ZNSt7__cxx1112basic_stringIcSt11char_traitsIcESaIcEEC1IS3_EEmcRKS3_
	.set	_ZNSt7__cxx1112basic_stringIcSt11char_traitsIcESaIcEEC1IS3_EEmcRKS3_,_ZNSt7__cxx1112basic_stringIcSt11char_traitsIcESaIcEEC2IS3_EEmcRKS3_
	.section	.text._ZNSt7__cxx1112basic_stringIcSt11char_traitsIcESaIcEED2Ev,"axG",@progbits,_ZNSt7__cxx1112basic_stringIcSt11char_traitsIcESaIcEED5Ev,comdat
	.align 2
	.weak	_ZNSt7__cxx1112basic_stringIcSt11char_traitsIcESaIcEED2Ev
	.type	_ZNSt7__cxx1112basic_stringIcSt11char_traitsIcESaIcEED2Ev, @function
_ZNSt7__cxx1112basic_stringIcSt11char_traitsIcESaIcEED2Ev:
.LFB13541:
	.loc 8 671 7
	.cfi_startproc
	.cfi_personality 0x9b,DW.ref.__gxx_personality_v0
	.cfi_lsda 0x1b,.LLSDA13541
	endbr64
	pushq	%rbp
	.cfi_def_cfa_offset 16
	.cfi_offset 6, -16
	movq	%rsp, %rbp
	.cfi_def_cfa_register 6
	subq	$16, %rsp
	movq	%rdi, -8(%rbp)
.LBB70:
	.loc 8 672 19
	movq	-8(%rbp), %rax
	movq	%rax, %rdi
	call	_ZNSt7__cxx1112basic_stringIcSt11char_traitsIcESaIcEE10_M_disposeEv
	.loc 8 672 23
	movq	-8(%rbp), %rax
	movq	%rax, %rdi
	call	_ZNSt7__cxx1112basic_stringIcSt11char_traitsIcESaIcEE12_Alloc_hiderD1Ev
.LBE70:
	nop
	leave
	.cfi_def_cfa 7, 8
	ret
	.cfi_endproc
.LFE13541:
	.section	.gcc_except_table
.LLSDA13541:
	.byte	0xff
	.byte	0xff
	.byte	0x1
	.uleb128 .LLSDACSE13541-.LLSDACSB13541
.LLSDACSB13541:
.LLSDACSE13541:
	.section	.text._ZNSt7__cxx1112basic_stringIcSt11char_traitsIcESaIcEED2Ev,"axG",@progbits,_ZNSt7__cxx1112basic_stringIcSt11char_traitsIcESaIcEED5Ev,comdat
	.size	_ZNSt7__cxx1112basic_stringIcSt11char_traitsIcESaIcEED2Ev, .-_ZNSt7__cxx1112basic_stringIcSt11char_traitsIcESaIcEED2Ev
	.weak	_ZNSt7__cxx1112basic_stringIcSt11char_traitsIcESaIcEED1Ev
	.set	_ZNSt7__cxx1112basic_stringIcSt11char_traitsIcESaIcEED1Ev,_ZNSt7__cxx1112basic_stringIcSt11char_traitsIcESaIcEED2Ev
	.section	.text._ZNSt7__cxx1112basic_stringIcSt11char_traitsIcESaIcEEixEm,"axG",@progbits,_ZNSt7__cxx1112basic_stringIcSt11char_traitsIcESaIcEEixEm,comdat
	.align 2
	.weak	_ZNSt7__cxx1112basic_stringIcSt11char_traitsIcESaIcEEixEm
	.type	_ZNSt7__cxx1112basic_stringIcSt11char_traitsIcESaIcEEixEm, @function
_ZNSt7__cxx1112basic_stringIcSt11char_traitsIcESaIcEEixEm:
.LFB13543:
	.loc 8 1055 7
	.cfi_startproc
	endbr64
	pushq	%rbp
	.cfi_def_cfa_offset 16
	.cfi_offset 6, -16
	movq	%rsp, %rbp
	.cfi_def_cfa_register 6
	subq	$16, %rsp
	movq	%rdi, -8(%rbp)
	movq	%rsi, -16(%rbp)
	.loc 8 1059 2
	movl	$0, %eax
	testb	%al, %al
	.loc 8 1062 16
	movq	-8(%rbp), %rax
	movq	%rax, %rdi
	call	_ZNKSt7__cxx1112basic_stringIcSt11char_traitsIcESaIcEE7_M_dataEv
	.loc 8 1062 24
	movq	-16(%rbp), %rdx
	addq	%rdx, %rax
	.loc 8 1063 7
	leave
	.cfi_def_cfa 7, 8
	ret
	.cfi_endproc
.LFE13543:
	.size	_ZNSt7__cxx1112basic_stringIcSt11char_traitsIcESaIcEEixEm, .-_ZNSt7__cxx1112basic_stringIcSt11char_traitsIcESaIcEEixEm
	.weak	_ZZNSt8__detail18__to_chars_10_implIjEEvPcjT_E8__digits
	.section	.rodata._ZZNSt8__detail18__to_chars_10_implIjEEvPcjT_E8__digits,"aG",@progbits,_ZZNSt8__detail18__to_chars_10_implIjEEvPcjT_E8__digits,comdat
	.align 32
	.type	_ZZNSt8__detail18__to_chars_10_implIjEEvPcjT_E8__digits, @gnu_unique_object
	.size	_ZZNSt8__detail18__to_chars_10_implIjEEvPcjT_E8__digits, 201
_ZZNSt8__detail18__to_chars_10_implIjEEvPcjT_E8__digits:
	.string	"00010203040506070809101112131415161718192021222324252627282930313233343536373839404142434445464748495051525354555657585960616263646566676869707172737475767778798081828384858687888990919293949596979899"
	.section	.text._ZNSt8__detail18__to_chars_10_implIjEEvPcjT_,"axG",@progbits,_ZNSt8__detail18__to_chars_10_implIjEEvPcjT_,comdat
	.weak	_ZNSt8__detail18__to_chars_10_implIjEEvPcjT_
	.type	_ZNSt8__detail18__to_chars_10_implIjEEvPcjT_, @function
_ZNSt8__detail18__to_chars_10_implIjEEvPcjT_:
.LFB13544:
	.loc 9 72 5
	.cfi_startproc
	endbr64
	pushq	%rbp
	.cfi_def_cfa_offset 16
	.cfi_offset 6, -16
	movq	%rsp, %rbp
	.cfi_def_cfa_register 6
	movq	%rdi, -24(%rbp)
	movl	%esi, -28(%rbp)
	movl	%edx, -32(%rbp)
	.loc 9 83 16
	movl	-28(%rbp), %eax
	subl	$1, %eax
	movl	%eax, -12(%rbp)
	.loc 9 84 7
	jmp	.L301
.L302:
.LBB71:
	.loc 9 86 30
	movl	-32(%rbp), %edx
	movl	%edx, %eax
	imulq	$1374389535, %rax, %rax
	shrq	$32, %rax
	shrl	$5, %eax
	imull	$100, %eax, %ecx
	movl	%edx, %eax
	subl	%ecx, %eax
	.loc 9 86 15
	addl	%eax, %eax
	movl	%eax, -4(%rbp)
	.loc 9 87 10
	movl	-32(%rbp), %eax
	movl	%eax, %eax
	imulq	$1374389535, %rax, %rax
	shrq	$32, %rax
	shrl	$5, %eax
	movl	%eax, -32(%rbp)
	.loc 9 88 36
	movl	-4(%rbp), %eax
	leal	1(%rax), %ecx
	.loc 9 88 12
	movl	-12(%rbp), %edx
	.loc 9 88 17
	movq	-24(%rbp), %rax
	addq	%rax, %rdx
	.loc 9 88 29
	movl	%ecx, %ecx
	leaq	_ZZNSt8__detail18__to_chars_10_implIjEEvPcjT_E8__digits(%rip), %rax
	movzbl	(%rcx,%rax), %eax
	.loc 9 88 19
	movb	%al, (%rdx)
	.loc 9 89 18
	movl	-12(%rbp), %eax
	subl	$1, %eax
	movl	%eax, %edx
	.loc 9 89 21
	movq	-24(%rbp), %rax
	addq	%rax, %rdx
	.loc 9 89 33
	movl	-4(%rbp), %eax
	leaq	_ZZNSt8__detail18__to_chars_10_implIjEEvPcjT_E8__digits(%rip), %rcx
	movzbl	(%rax,%rcx), %eax
	.loc 9 89 23
	movb	%al, (%rdx)
	.loc 9 90 10
	subl	$2, -12(%rbp)
.L301:
.LBE71:
	.loc 9 84 20
	cmpl	$99, -32(%rbp)
	ja	.L302
.LBB72:
	.loc 9 92 7
	cmpl	$9, -32(%rbp)
	jbe	.L303
.LBB73:
	.loc 9 94 15
	movl	-32(%rbp), %eax
	addl	%eax, %eax
	movl	%eax, -8(%rbp)
	.loc 9 95 32
	movl	-8(%rbp), %eax
	leal	1(%rax), %ecx
	.loc 9 95 13
	movq	-24(%rbp), %rax
	leaq	1(%rax), %rdx
	.loc 9 95 25
	movl	%ecx, %ecx
	leaq	_ZZNSt8__detail18__to_chars_10_implIjEEvPcjT_E8__digits(%rip), %rax
	movzbl	(%rcx,%rax), %eax
	.loc 9 95 15
	movb	%al, (%rdx)
	.loc 9 96 25
	movl	-8(%rbp), %eax
	leaq	_ZZNSt8__detail18__to_chars_10_implIjEEvPcjT_E8__digits(%rip), %rdx
	movzbl	(%rax,%rdx), %edx
	.loc 9 96 15
	movq	-24(%rbp), %rax
	movb	%dl, (%rax)
.LBE73:
.LBE72:
	.loc 9 100 5
	jmp	.L305
.L303:
.LBB74:
	.loc 9 99 19
	movl	-32(%rbp), %eax
	addl	$48, %eax
	movl	%eax, %edx
	.loc 9 99 13
	movq	-24(%rbp), %rax
	movb	%dl, (%rax)
.L305:
.LBE74:
	.loc 9 100 5
	nop
	popq	%rbp
	.cfi_def_cfa 7, 8
	ret
	.cfi_endproc
.LFE13544:
	.size	_ZNSt8__detail18__to_chars_10_implIjEEvPcjT_, .-_ZNSt8__detail18__to_chars_10_implIjEEvPcjT_
	.section	.text._ZNSt7__cxx1112basic_stringIcSt11char_traitsIcESaIcEEC2EOS4_,"axG",@progbits,_ZNSt7__cxx1112basic_stringIcSt11char_traitsIcESaIcEEC5EOS4_,comdat
	.align 2
	.weak	_ZNSt7__cxx1112basic_stringIcSt11char_traitsIcESaIcEEC2EOS4_
	.type	_ZNSt7__cxx1112basic_stringIcSt11char_traitsIcESaIcEEC2EOS4_, @function
_ZNSt7__cxx1112basic_stringIcSt11char_traitsIcESaIcEEC2EOS4_:
.LFB13546:
	.loc 8 565 7
	.cfi_startproc
	.cfi_personality 0x9b,DW.ref.__gxx_personality_v0
	.cfi_lsda 0x1b,.LLSDA13546
	endbr64
	pushq	%rbp
	.cfi_def_cfa_offset 16
	.cfi_offset 6, -16
	movq	%rsp, %rbp
	.cfi_def_cfa_register 6
	pushq	%r12
	pushq	%rbx
	subq	$16, %rsp
	.cfi_offset 12, -24
	.cfi_offset 3, -32
	movq	%rdi, -24(%rbp)
	movq	%rsi, -32(%rbp)
.LBB75:
	.loc 8 566 9
	movq	-24(%rbp), %rbx
	.loc 8 566 70
	movq	-32(%rbp), %rax
	movq	%rax, %rdi
	call	_ZNSt7__cxx1112basic_stringIcSt11char_traitsIcESaIcEE16_M_get_allocatorEv
	.loc 8 566 47
	movq	%rax, %rdi
	call	_ZSt4moveIRSaIcEEONSt16remove_referenceIT_E4typeEOS3_
	movq	%rax, %r12
	.loc 8 566 9
	movq	-24(%rbp), %rax
	movq	%rax, %rdi
	call	_ZNSt7__cxx1112basic_stringIcSt11char_traitsIcESaIcEE13_M_local_dataEv
	movq	%r12, %rdx
	movq	%rax, %rsi
	movq	%rbx, %rdi
	call	_ZNSt7__cxx1112basic_stringIcSt11char_traitsIcESaIcEE12_Alloc_hiderC1EPcOS3_
	.loc 8 568 23
	movq	-32(%rbp), %rax
	movq	%rax, %rdi
	call	_ZNKSt7__cxx1112basic_stringIcSt11char_traitsIcESaIcEE11_M_is_localEv
	.loc 8 568 2
	testb	%al, %al
	je	.L307
	.loc 8 570 44
	movq	-32(%rbp), %rax
	leaq	16(%rax), %rcx
	.loc 8 570 24
	movq	-24(%rbp), %rax
	addq	$16, %rax
	.loc 8 570 23
	movl	$16, %edx
	movq	%rcx, %rsi
	movq	%rax, %rdi
	call	_ZNSt11char_traitsIcE4copyEPcPKcm
	jmp	.L308
.L307:
	.loc 8 575 13
	movq	-32(%rbp), %rax
	movq	%rax, %rdi
	call	_ZNKSt7__cxx1112basic_stringIcSt11char_traitsIcESaIcEE7_M_dataEv
	movq	%rax, %rdx
	movq	-24(%rbp), %rax
	movq	%rdx, %rsi
	movq	%rax, %rdi
	call	_ZNSt7__cxx1112basic_stringIcSt11char_traitsIcESaIcEE7_M_dataEPc
	.loc 8 576 17
	movq	-32(%rbp), %rax
	movq	16(%rax), %rdx
	movq	-24(%rbp), %rax
	movq	%rdx, %rsi
	movq	%rax, %rdi
	call	_ZNSt7__cxx1112basic_stringIcSt11char_traitsIcESaIcEE11_M_capacityEm
.L308:
	.loc 8 582 11
	movq	-32(%rbp), %rax
	movq	%rax, %rdi
	call	_ZNKSt7__cxx1112basic_stringIcSt11char_traitsIcESaIcEE6lengthEv
	movq	%rax, %rdx
	movq	-24(%rbp), %rax
	movq	%rdx, %rsi
	movq	%rax, %rdi
	call	_ZNSt7__cxx1112basic_stringIcSt11char_traitsIcESaIcEE9_M_lengthEm
	.loc 8 583 15
	movq	-32(%rbp), %rax
	movq	%rax, %rdi
	call	_ZNSt7__cxx1112basic_stringIcSt11char_traitsIcESaIcEE13_M_local_dataEv
	movq	%rax, %rdx
	movq	-32(%rbp), %rax
	movq	%rdx, %rsi
	movq	%rax, %rdi
	call	_ZNSt7__cxx1112basic_stringIcSt11char_traitsIcESaIcEE7_M_dataEPc
	.loc 8 584 21
	movq	-32(%rbp), %rax
	movl	$0, %esi
	movq	%rax, %rdi
	call	_ZNSt7__cxx1112basic_stringIcSt11char_traitsIcESaIcEE13_M_set_lengthEm
.LBE75:
	.loc 8 585 7
	nop
	addq	$16, %rsp
	popq	%rbx
	popq	%r12
	popq	%rbp
	.cfi_def_cfa 7, 8
	ret
	.cfi_endproc
.LFE13546:
	.section	.gcc_except_table
.LLSDA13546:
	.byte	0xff
	.byte	0xff
	.byte	0x1
	.uleb128 .LLSDACSE13546-.LLSDACSB13546
.LLSDACSB13546:
.LLSDACSE13546:
	.section	.text._ZNSt7__cxx1112basic_stringIcSt11char_traitsIcESaIcEEC2EOS4_,"axG",@progbits,_ZNSt7__cxx1112basic_stringIcSt11char_traitsIcESaIcEEC5EOS4_,comdat
	.size	_ZNSt7__cxx1112basic_stringIcSt11char_traitsIcESaIcEEC2EOS4_, .-_ZNSt7__cxx1112basic_stringIcSt11char_traitsIcESaIcEEC2EOS4_
	.weak	_ZNSt7__cxx1112basic_stringIcSt11char_traitsIcESaIcEEC1EOS4_
	.set	_ZNSt7__cxx1112basic_stringIcSt11char_traitsIcESaIcEEC1EOS4_,_ZNSt7__cxx1112basic_stringIcSt11char_traitsIcESaIcEEC2EOS4_
	.section	.text._ZNKSt7__cxx1112basic_stringIcSt11char_traitsIcESaIcEE4sizeEv,"axG",@progbits,_ZNKSt7__cxx1112basic_stringIcSt11char_traitsIcESaIcEE4sizeEv,comdat
	.align 2
	.weak	_ZNKSt7__cxx1112basic_stringIcSt11char_traitsIcESaIcEE4sizeEv
	.type	_ZNKSt7__cxx1112basic_stringIcSt11char_traitsIcESaIcEE4sizeEv, @function
_ZNKSt7__cxx1112basic_stringIcSt11char_traitsIcESaIcEE4sizeEv:
.LFB13548:
	.loc 8 920 7
	.cfi_startproc
	endbr64
	pushq	%rbp
	.cfi_def_cfa_offset 16
	.cfi_offset 6, -16
	movq	%rsp, %rbp
	.cfi_def_cfa_register 6
	movq	%rdi, -8(%rbp)
	.loc 8 921 16
	movq	-8(%rbp), %rax
	movq	8(%rax), %rax
	.loc 8 921 34
	popq	%rbp
	.cfi_def_cfa 7, 8
	ret
	.cfi_endproc
.LFE13548:
	.size	_ZNKSt7__cxx1112basic_stringIcSt11char_traitsIcESaIcEE4sizeEv, .-_ZNKSt7__cxx1112basic_stringIcSt11char_traitsIcESaIcEE4sizeEv
	.section	.text._ZNKSt7__cxx1112basic_stringIcSt11char_traitsIcESaIcEE4dataEv,"axG",@progbits,_ZNKSt7__cxx1112basic_stringIcSt11char_traitsIcESaIcEE4dataEv,comdat
	.align 2
	.weak	_ZNKSt7__cxx1112basic_stringIcSt11char_traitsIcESaIcEE4dataEv
	.type	_ZNKSt7__cxx1112basic_stringIcSt11char_traitsIcESaIcEE4dataEv, @function
_ZNKSt7__cxx1112basic_stringIcSt11char_traitsIcESaIcEE4dataEv:
.LFB13632:
	.loc 8 2332 7
	.cfi_startproc
	endbr64
	pushq	%rbp
	.cfi_def_cfa_offset 16
	.cfi_offset 6, -16
	movq	%rsp, %rbp
	.cfi_def_cfa_register 6
	subq	$16, %rsp
	movq	%rdi, -8(%rbp)
	.loc 8 2333 23
	movq	-8(%rbp), %rax
	movq	%rax, %rdi
	call	_ZNKSt7__cxx1112basic_stringIcSt11char_traitsIcESaIcEE7_M_dataEv
	.loc 8 2333 27
	leave
	.cfi_def_cfa 7, 8
	ret
	.cfi_endproc
.LFE13632:
	.size	_ZNKSt7__cxx1112basic_stringIcSt11char_traitsIcESaIcEE4dataEv, .-_ZNKSt7__cxx1112basic_stringIcSt11char_traitsIcESaIcEE4dataEv
	.section	.text._ZNKSt7__cxx1112basic_stringIcSt11char_traitsIcESaIcEE6lengthEv,"axG",@progbits,_ZNKSt7__cxx1112basic_stringIcSt11char_traitsIcESaIcEE6lengthEv,comdat
	.align 2
	.weak	_ZNKSt7__cxx1112basic_stringIcSt11char_traitsIcESaIcEE6lengthEv
	.type	_ZNKSt7__cxx1112basic_stringIcSt11char_traitsIcESaIcEE6lengthEv, @function
_ZNKSt7__cxx1112basic_stringIcSt11char_traitsIcESaIcEE6lengthEv:
.LFB13633:
	.loc 8 926 7
	.cfi_startproc
	endbr64
	pushq	%rbp
	.cfi_def_cfa_offset 16
	.cfi_offset 6, -16
	movq	%rsp, %rbp
	.cfi_def_cfa_register 6
	movq	%rdi, -8(%rbp)
	.loc 8 927 16
	movq	-8(%rbp), %rax
	movq	8(%rax), %rax
	.loc 8 927 34
	popq	%rbp
	.cfi_def_cfa 7, 8
	ret
	.cfi_endproc
.LFE13633:
	.size	_ZNKSt7__cxx1112basic_stringIcSt11char_traitsIcESaIcEE6lengthEv, .-_ZNKSt7__cxx1112basic_stringIcSt11char_traitsIcESaIcEE6lengthEv
	.section	.text._ZStplIcSt11char_traitsIcESaIcEENSt7__cxx1112basic_stringIT_T0_T1_EERKS8_PKS5_,"axG",@progbits,_ZStplIcSt11char_traitsIcESaIcEENSt7__cxx1112basic_stringIT_T0_T1_EERKS8_PKS5_,comdat
	.weak	_ZStplIcSt11char_traitsIcESaIcEENSt7__cxx1112basic_stringIT_T0_T1_EERKS8_PKS5_
	.type	_ZStplIcSt11char_traitsIcESaIcEENSt7__cxx1112basic_stringIT_T0_T1_EERKS8_PKS5_, @function
_ZStplIcSt11char_traitsIcESaIcEENSt7__cxx1112basic_stringIT_T0_T1_EERKS8_PKS5_:
.LFB13699:
	.loc 8 6132 5
	.cfi_startproc
	.cfi_personality 0x9b,DW.ref.__gxx_personality_v0
	.cfi_lsda 0x1b,.LLSDA13699
	endbr64
	pushq	%rbp
	.cfi_def_cfa_offset 16
	.cfi_offset 6, -16
	movq	%rsp, %rbp
	.cfi_def_cfa_register 6
	pushq	%rbx
	subq	$40, %rsp
	.cfi_offset 3, -24
	movq	%rdi, -24(%rbp)
	movq	%rsi, -32(%rbp)
	movq	%rdx, -40(%rbp)
	.loc 8 6135 45
	movq	-32(%rbp), %rdx
	movq	-24(%rbp), %rax
	movq	%rdx, %rsi
	movq	%rax, %rdi
.LEHB46:
	call	_ZNSt7__cxx1112basic_stringIcSt11char_traitsIcESaIcEEC1ERKS4_
.LEHE46:
	.loc 8 6136 19
	movq	-40(%rbp), %rdx
	movq	-24(%rbp), %rax
	movq	%rdx, %rsi
	movq	%rax, %rdi
.LEHB47:
	call	_ZNSt7__cxx1112basic_stringIcSt11char_traitsIcESaIcEE6appendEPKc
.LEHE47:
	.loc 8 6137 14
	jmp	.L319
.L318:
	endbr64
	.loc 8 6138 5
	movq	%rax, %rbx
	movq	-24(%rbp), %rax
	movq	%rax, %rdi
	call	_ZNSt7__cxx1112basic_stringIcSt11char_traitsIcESaIcEED1Ev
	movq	%rbx, %rax
	movq	%rax, %rdi
.LEHB48:
	call	_Unwind_Resume@PLT
.LEHE48:
.L319:
	movq	-24(%rbp), %rax
	movq	-8(%rbp), %rbx
	leave
	.cfi_def_cfa 7, 8
	ret
	.cfi_endproc
.LFE13699:
	.section	.gcc_except_table
.LLSDA13699:
	.byte	0xff
	.byte	0xff
	.byte	0x1
	.uleb128 .LLSDACSE13699-.LLSDACSB13699
.LLSDACSB13699:
	.uleb128 .LEHB46-.LFB13699
	.uleb128 .LEHE46-.LEHB46
	.uleb128 0
	.uleb128 0
	.uleb128 .LEHB47-.LFB13699
	.uleb128 .LEHE47-.LEHB47
	.uleb128 .L318-.LFB13699
	.uleb128 0
	.uleb128 .LEHB48-.LFB13699
	.uleb128 .LEHE48-.LEHB48
	.uleb128 0
	.uleb128 0
.LLSDACSE13699:
	.section	.text._ZStplIcSt11char_traitsIcESaIcEENSt7__cxx1112basic_stringIT_T0_T1_EERKS8_PKS5_,"axG",@progbits,_ZStplIcSt11char_traitsIcESaIcEENSt7__cxx1112basic_stringIT_T0_T1_EERKS8_PKS5_,comdat
	.size	_ZStplIcSt11char_traitsIcESaIcEENSt7__cxx1112basic_stringIT_T0_T1_EERKS8_PKS5_, .-_ZStplIcSt11char_traitsIcESaIcEENSt7__cxx1112basic_stringIT_T0_T1_EERKS8_PKS5_
	.section	.text._ZStplIcSt11char_traitsIcESaIcEENSt7__cxx1112basic_stringIT_T0_T1_EEOS8_S9_,"axG",@progbits,_ZStplIcSt11char_traitsIcESaIcEENSt7__cxx1112basic_stringIT_T0_T1_EEOS8_S9_,comdat
	.weak	_ZStplIcSt11char_traitsIcESaIcEENSt7__cxx1112basic_stringIT_T0_T1_EEOS8_S9_
	.type	_ZStplIcSt11char_traitsIcESaIcEENSt7__cxx1112basic_stringIT_T0_T1_EEOS8_S9_, @function
_ZStplIcSt11char_traitsIcESaIcEENSt7__cxx1112basic_stringIT_T0_T1_EEOS8_S9_:
.LFB13700:
	.loc 8 6172 5
	.cfi_startproc
	endbr64
	pushq	%rbp
	.cfi_def_cfa_offset 16
	.cfi_offset 6, -16
	movq	%rsp, %rbp
	.cfi_def_cfa_register 6
	pushq	%rbx
	subq	$56, %rsp
	.cfi_offset 3, -24
	movq	%rdi, -40(%rbp)
	movq	%rsi, -48(%rbp)
	movq	%rdx, -56(%rbp)
	.loc 8 6177 12
	movb	$0, -25(%rbp)
	.loc 8 6179 12
	movb	$1, -25(%rbp)
.LBB76:
	.loc 8 6182 7
	cmpb	$0, -25(%rbp)
	je	.L321
.LBB77:
	.loc 8 6185 34
	movq	-48(%rbp), %rax
	movq	%rax, %rdi
	call	_ZNKSt7__cxx1112basic_stringIcSt11char_traitsIcESaIcEE4sizeEv
	movq	%rax, %rbx
	.loc 8 6185 49
	movq	-56(%rbp), %rax
	movq	%rax, %rdi
	call	_ZNKSt7__cxx1112basic_stringIcSt11char_traitsIcESaIcEE4sizeEv
	.loc 8 6185 15
	addq	%rbx, %rax
	movq	%rax, -24(%rbp)
	.loc 8 6186 31
	movq	-48(%rbp), %rax
	movq	%rax, %rdi
	call	_ZNKSt7__cxx1112basic_stringIcSt11char_traitsIcESaIcEE8capacityEv
	.loc 8 6186 34
	cmpq	%rax, -24(%rbp)
	jbe	.L322
	.loc 8 6186 61 discriminator 1
	movq	-56(%rbp), %rax
	movq	%rax, %rdi
	call	_ZNKSt7__cxx1112basic_stringIcSt11char_traitsIcESaIcEE8capacityEv
	.loc 8 6186 34 discriminator 1
	cmpq	%rax, -24(%rbp)
	ja	.L322
	.loc 8 6186 34 is_stmt 0 discriminator 3
	movl	$1, %eax
	jmp	.L323
.L322:
	.loc 8 6186 34 discriminator 4
	movl	$0, %eax
.L323:
	.loc 8 6186 4 is_stmt 1 discriminator 6
	testb	%al, %al
	je	.L321
	.loc 8 6187 22
	movq	-48(%rbp), %rdx
	movq	-56(%rbp), %rax
	movl	$0, %esi
	movq	%rax, %rdi
	call	_ZNSt7__cxx1112basic_stringIcSt11char_traitsIcESaIcEE6insertEmRKS4_
	movq	%rax, %rdi
	call	_ZSt4moveIRNSt7__cxx1112basic_stringIcSt11char_traitsIcESaIcEEEEONSt16remove_referenceIT_E4typeEOS8_
	movq	%rax, %rdx
	.loc 8 6187 45
	movq	-40(%rbp), %rax
	movq	%rdx, %rsi
	movq	%rax, %rdi
	call	_ZNSt7__cxx1112basic_stringIcSt11char_traitsIcESaIcEEC1EOS4_
	jmp	.L324
.L321:
.LBE77:
.LBE76:
	.loc 8 6189 23
	movq	-56(%rbp), %rdx
	movq	-48(%rbp), %rax
	movq	%rdx, %rsi
	movq	%rax, %rdi
	call	_ZNSt7__cxx1112basic_stringIcSt11char_traitsIcESaIcEE6appendERKS4_
	movq	%rax, %rdi
	call	_ZSt4moveIRNSt7__cxx1112basic_stringIcSt11char_traitsIcESaIcEEEEONSt16remove_referenceIT_E4typeEOS8_
	movq	%rax, %rdx
	.loc 8 6189 43
	movq	-40(%rbp), %rax
	movq	%rdx, %rsi
	movq	%rax, %rdi
	call	_ZNSt7__cxx1112basic_stringIcSt11char_traitsIcESaIcEEC1EOS4_
.L324:
	.loc 8 6190 5
	movq	-40(%rbp), %rax
	movq	-8(%rbp), %rbx
	leave
	.cfi_def_cfa 7, 8
	ret
	.cfi_endproc
.LFE13700:
	.size	_ZStplIcSt11char_traitsIcESaIcEENSt7__cxx1112basic_stringIT_T0_T1_EEOS8_S9_, .-_ZStplIcSt11char_traitsIcESaIcEENSt7__cxx1112basic_stringIT_T0_T1_EEOS8_S9_
	.section	.text._ZSt3maxImERKT_S2_S2_,"axG",@progbits,_ZSt3maxImERKT_S2_S2_,comdat
	.weak	_ZSt3maxImERKT_S2_S2_
	.type	_ZSt3maxImERKT_S2_S2_, @function
_ZSt3maxImERKT_S2_S2_:
.LFB13704:
	.loc 5 254 5
	.cfi_startproc
	endbr64
	pushq	%rbp
	.cfi_def_cfa_offset 16
	.cfi_offset 6, -16
	movq	%rsp, %rbp
	.cfi_def_cfa_register 6
	movq	%rdi, -8(%rbp)
	movq	%rsi, -16(%rbp)
	.loc 5 259 15
	movq	-8(%rbp), %rax
	movq	(%rax), %rdx
	movq	-16(%rbp), %rax
	movq	(%rax), %rax
	.loc 5 259 7
	cmpq	%rax, %rdx
	jnb	.L326
	.loc 5 260 9
	movq	-16(%rbp), %rax
	jmp	.L327
.L326:
	.loc 5 261 14
	movq	-8(%rbp), %rax
.L327:
	.loc 5 262 5
	popq	%rbp
	.cfi_def_cfa 7, 8
	ret
	.cfi_endproc
.LFE13704:
	.size	_ZSt3maxImERKT_S2_S2_, .-_ZSt3maxImERKT_S2_S2_
	.section	.text._ZNSt7__cxx1112basic_stringIcSt11char_traitsIcESaIcEEC2IS3_EEPKcRKS3_,"axG",@progbits,_ZNSt7__cxx1112basic_stringIcSt11char_traitsIcESaIcEEC5IS3_EEPKcRKS3_,comdat
	.align 2
	.weak	_ZNSt7__cxx1112basic_stringIcSt11char_traitsIcESaIcEEC2IS3_EEPKcRKS3_
	.type	_ZNSt7__cxx1112basic_stringIcSt11char_traitsIcESaIcEEC2IS3_EEPKcRKS3_, @function
_ZNSt7__cxx1112basic_stringIcSt11char_traitsIcESaIcEEC2IS3_EEPKcRKS3_:
.LFB14129:
	.loc 8 533 7
	.cfi_startproc
	.cfi_personality 0x9b,DW.ref.__gxx_personality_v0
	.cfi_lsda 0x1b,.LLSDA14129
	endbr64
	pushq	%rbp
	.cfi_def_cfa_offset 16
	.cfi_offset 6, -16
	movq	%rsp, %rbp
	.cfi_def_cfa_register 6
	pushq	%rbx
	subq	$72, %rsp
	.cfi_offset 3, -24
	movq	%rdi, -56(%rbp)
	movq	%rsi, -64(%rbp)
	movq	%rdx, -72(%rbp)
	.loc 8 533 7
	movq	%fs:40, %rax
	movq	%rax, -24(%rbp)
	xorl	%eax, %eax
.LBB78:
	.loc 8 534 9
	movq	-56(%rbp), %rbx
	movq	-56(%rbp), %rax
	movq	%rax, %rdi
	call	_ZNSt7__cxx1112basic_stringIcSt11char_traitsIcESaIcEE13_M_local_dataEv
	movq	%rax, %rcx
	movq	-72(%rbp), %rax
	movq	%rax, %rdx
	movq	%rcx, %rsi
	movq	%rbx, %rdi
	call	_ZNSt7__cxx1112basic_stringIcSt11char_traitsIcESaIcEE12_Alloc_hiderC1EPcRKS3_
.LBB79:
	.loc 8 536 28
	cmpq	$0, -64(%rbp)
	je	.L329
	.loc 8 536 55 discriminator 1
	movq	-64(%rbp), %rax
	movq	%rax, %rdi
.LEHB49:
	call	_ZNSt11char_traitsIcE6lengthEPKc
	.loc 8 536 28 discriminator 1
	movq	-64(%rbp), %rdx
	addq	%rdx, %rax
	jmp	.L330
.L329:
	.loc 8 536 28 is_stmt 0 discriminator 2
	movl	$1, %eax
.L330:
	.loc 8 536 16 is_stmt 1 discriminator 5
	movq	%rax, -32(%rbp)
	.loc 8 539 14 discriminator 5
	movq	-32(%rbp), %rdx
	movq	-64(%rbp), %rcx
	movq	-56(%rbp), %rax
	movq	%rcx, %rsi
	movq	%rax, %rdi
	call	_ZNSt7__cxx1112basic_stringIcSt11char_traitsIcESaIcEE12_M_constructIPKcEEvT_S8_St20forward_iterator_tag
.LEHE49:
.LBE79:
.LBE78:
	.loc 8 540 7
	jmp	.L334
.L333:
	endbr64
.LBB80:
	movq	%rax, %rbx
	movq	-56(%rbp), %rax
	movq	%rax, %rdi
	call	_ZNSt7__cxx1112basic_stringIcSt11char_traitsIcESaIcEE12_Alloc_hiderD1Ev
	movq	%rbx, %rax
	movq	%rax, %rdi
.LEHB50:
	call	_Unwind_Resume@PLT
.LEHE50:
.L334:
.LBE80:
	movq	-24(%rbp), %rax
	subq	%fs:40, %rax
	je	.L332
	call	__stack_chk_fail@PLT
.L332:
	movq	-8(%rbp), %rbx
	leave
	.cfi_def_cfa 7, 8
	ret
	.cfi_endproc
.LFE14129:
	.section	.gcc_except_table
.LLSDA14129:
	.byte	0xff
	.byte	0xff
	.byte	0x1
	.uleb128 .LLSDACSE14129-.LLSDACSB14129
.LLSDACSB14129:
	.uleb128 .LEHB49-.LFB14129
	.uleb128 .LEHE49-.LEHB49
	.uleb128 .L333-.LFB14129
	.uleb128 0
	.uleb128 .LEHB50-.LFB14129
	.uleb128 .LEHE50-.LEHB50
	.uleb128 0
	.uleb128 0
.LLSDACSE14129:
	.section	.text._ZNSt7__cxx1112basic_stringIcSt11char_traitsIcESaIcEEC2IS3_EEPKcRKS3_,"axG",@progbits,_ZNSt7__cxx1112basic_stringIcSt11char_traitsIcESaIcEEC5IS3_EEPKcRKS3_,comdat
	.size	_ZNSt7__cxx1112basic_stringIcSt11char_traitsIcESaIcEEC2IS3_EEPKcRKS3_, .-_ZNSt7__cxx1112basic_stringIcSt11char_traitsIcESaIcEEC2IS3_EEPKcRKS3_
	.weak	_ZNSt7__cxx1112basic_stringIcSt11char_traitsIcESaIcEEC1IS3_EEPKcRKS3_
	.set	_ZNSt7__cxx1112basic_stringIcSt11char_traitsIcESaIcEEC1IS3_EEPKcRKS3_,_ZNSt7__cxx1112basic_stringIcSt11char_traitsIcESaIcEEC2IS3_EEPKcRKS3_
	.section	.text._ZNSt7__cxx1112basic_stringIcSt11char_traitsIcESaIcEEC2Ev,"axG",@progbits,_ZNSt7__cxx1112basic_stringIcSt11char_traitsIcESaIcEEC5Ev,comdat
	.align 2
	.weak	_ZNSt7__cxx1112basic_stringIcSt11char_traitsIcESaIcEEC2Ev
	.type	_ZNSt7__cxx1112basic_stringIcSt11char_traitsIcESaIcEEC2Ev, @function
_ZNSt7__cxx1112basic_stringIcSt11char_traitsIcESaIcEEC2Ev:
.LFB14174:
	.loc 8 439 7
	.cfi_startproc
	endbr64
	pushq	%rbp
	.cfi_def_cfa_offset 16
	.cfi_offset 6, -16
	movq	%rsp, %rbp
	.cfi_def_cfa_register 6
	pushq	%rbx
	subq	$40, %rsp
	.cfi_offset 3, -24
	movq	%rdi, -40(%rbp)
	.loc 8 439 7
	movq	%fs:40, %rax
	movq	%rax, -24(%rbp)
	xorl	%eax, %eax
.LBB81:
	.loc 8 441 9
	movq	-40(%rbp), %rbx
	leaq	-25(%rbp), %rax
	movq	%rax, %rdi
	call	_ZNSaIcEC1Ev@PLT
	movq	-40(%rbp), %rax
	movq	%rax, %rdi
	call	_ZNSt7__cxx1112basic_stringIcSt11char_traitsIcESaIcEE13_M_local_dataEv
	movq	%rax, %rcx
	leaq	-25(%rbp), %rax
	movq	%rax, %rdx
	movq	%rcx, %rsi
	movq	%rbx, %rdi
	call	_ZNSt7__cxx1112basic_stringIcSt11char_traitsIcESaIcEE12_Alloc_hiderC1EPcOS3_
	leaq	-25(%rbp), %rax
	movq	%rax, %rdi
	call	_ZNSaIcED1Ev@PLT
	.loc 8 442 22
	movq	-40(%rbp), %rax
	movl	$0, %esi
	movq	%rax, %rdi
	call	_ZNSt7__cxx1112basic_stringIcSt11char_traitsIcESaIcEE13_M_set_lengthEm
.LBE81:
	.loc 8 442 27
	nop
	movq	-24(%rbp), %rax
	subq	%fs:40, %rax
	je	.L336
	call	__stack_chk_fail@PLT
.L336:
	movq	-8(%rbp), %rbx
	leave
	.cfi_def_cfa 7, 8
	ret
	.cfi_endproc
.LFE14174:
	.size	_ZNSt7__cxx1112basic_stringIcSt11char_traitsIcESaIcEEC2Ev, .-_ZNSt7__cxx1112basic_stringIcSt11char_traitsIcESaIcEEC2Ev
	.weak	_ZNSt7__cxx1112basic_stringIcSt11char_traitsIcESaIcEEC1Ev
	.set	_ZNSt7__cxx1112basic_stringIcSt11char_traitsIcESaIcEEC1Ev,_ZNSt7__cxx1112basic_stringIcSt11char_traitsIcESaIcEEC2Ev
	.section	.text._ZSt4moveIRNSt7__cxx1112basic_stringIcSt11char_traitsIcESaIcEEEEONSt16remove_referenceIT_E4typeEOS8_,"axG",@progbits,_ZSt4moveIRNSt7__cxx1112basic_stringIcSt11char_traitsIcESaIcEEEEONSt16remove_referenceIT_E4typeEOS8_,comdat
	.weak	_ZSt4moveIRNSt7__cxx1112basic_stringIcSt11char_traitsIcESaIcEEEEONSt16remove_referenceIT_E4typeEOS8_
	.type	_ZSt4moveIRNSt7__cxx1112basic_stringIcSt11char_traitsIcESaIcEEEEONSt16remove_referenceIT_E4typeEOS8_, @function
_ZSt4moveIRNSt7__cxx1112basic_stringIcSt11char_traitsIcESaIcEEEEONSt16remove_referenceIT_E4typeEOS8_:
.LFB14176:
	.file 23 "/usr/include/c++/11/bits/move.h"
	.loc 23 104 5
	.cfi_startproc
	endbr64
	pushq	%rbp
	.cfi_def_cfa_offset 16
	.cfi_offset 6, -16
	movq	%rsp, %rbp
	.cfi_def_cfa_register 6
	movq	%rdi, -8(%rbp)
	.loc 23 105 74
	movq	-8(%rbp), %rax
	.loc 23 105 77
	popq	%rbp
	.cfi_def_cfa 7, 8
	ret
	.cfi_endproc
.LFE14176:
	.size	_ZSt4moveIRNSt7__cxx1112basic_stringIcSt11char_traitsIcESaIcEEEEONSt16remove_referenceIT_E4typeEOS8_, .-_ZSt4moveIRNSt7__cxx1112basic_stringIcSt11char_traitsIcESaIcEEEEONSt16remove_referenceIT_E4typeEOS8_
	.section	.text._ZNSt7__cxx1112basic_stringIcSt11char_traitsIcESaIcEEC2ERKS4_,"axG",@progbits,_ZNSt7__cxx1112basic_stringIcSt11char_traitsIcESaIcEEC5ERKS4_,comdat
	.align 2
	.weak	_ZNSt7__cxx1112basic_stringIcSt11char_traitsIcESaIcEEC2ERKS4_
	.type	_ZNSt7__cxx1112basic_stringIcSt11char_traitsIcESaIcEEC2ERKS4_, @function
_ZNSt7__cxx1112basic_stringIcSt11char_traitsIcESaIcEEC2ERKS4_:
.LFB14189:
	.loc 8 456 7
	.cfi_startproc
	.cfi_personality 0x9b,DW.ref.__gxx_personality_v0
	.cfi_lsda 0x1b,.LLSDA14189
	endbr64
	pushq	%rbp
	.cfi_def_cfa_offset 16
	.cfi_offset 6, -16
	movq	%rsp, %rbp
	.cfi_def_cfa_register 6
	pushq	%rbx
	subq	$40, %rsp
	.cfi_offset 3, -24
	movq	%rdi, -40(%rbp)
	movq	%rsi, -48(%rbp)
	.loc 8 456 7
	movq	%fs:40, %rax
	movq	%rax, -24(%rbp)
	xorl	%eax, %eax
.LBB82:
	.loc 8 457 9
	movq	-40(%rbp), %rbx
	.loc 8 458 62
	movq	-48(%rbp), %rax
	movq	%rax, %rdi
	call	_ZNKSt7__cxx1112basic_stringIcSt11char_traitsIcESaIcEE16_M_get_allocatorEv
	movq	%rax, %rdx
	.loc 8 457 9
	leaq	-25(%rbp), %rax
	movq	%rdx, %rsi
	movq	%rax, %rdi
.LEHB51:
	call	_ZN9__gnu_cxx14__alloc_traitsISaIcEcE17_S_select_on_copyERKS1_
.LEHE51:
	movq	-40(%rbp), %rax
	movq	%rax, %rdi
	call	_ZNSt7__cxx1112basic_stringIcSt11char_traitsIcESaIcEE13_M_local_dataEv
	movq	%rax, %rcx
	leaq	-25(%rbp), %rax
	movq	%rax, %rdx
	movq	%rcx, %rsi
	movq	%rbx, %rdi
	call	_ZNSt7__cxx1112basic_stringIcSt11char_traitsIcESaIcEE12_Alloc_hiderC1EPcOS3_
	leaq	-25(%rbp), %rax
	movq	%rax, %rdi
	call	_ZNSaIcED1Ev@PLT
	.loc 8 459 52
	movq	-48(%rbp), %rax
	movq	%rax, %rdi
	call	_ZNKSt7__cxx1112basic_stringIcSt11char_traitsIcESaIcEE7_M_dataEv
	movq	%rax, %rbx
	.loc 8 459 69
	movq	-48(%rbp), %rax
	movq	%rax, %rdi
	call	_ZNKSt7__cxx1112basic_stringIcSt11char_traitsIcESaIcEE6lengthEv
	.loc 8 459 21
	addq	%rax, %rbx
	movq	-48(%rbp), %rax
	movq	%rax, %rdi
	call	_ZNKSt7__cxx1112basic_stringIcSt11char_traitsIcESaIcEE7_M_dataEv
	movq	%rax, %rcx
	movq	-40(%rbp), %rax
	movq	%rbx, %rdx
	movq	%rcx, %rsi
	movq	%rax, %rdi
.LEHB52:
	call	_ZNSt7__cxx1112basic_stringIcSt11char_traitsIcESaIcEE12_M_constructIPcEEvT_S7_
.LEHE52:
.LBE82:
	.loc 8 459 74
	jmp	.L343
.L342:
	endbr64
.LBB83:
	movq	%rax, %rbx
	movq	-40(%rbp), %rax
	movq	%rax, %rdi
	call	_ZNSt7__cxx1112basic_stringIcSt11char_traitsIcESaIcEE12_Alloc_hiderD1Ev
	movq	%rbx, %rax
	movq	%rax, %rdi
.LEHB53:
	call	_Unwind_Resume@PLT
.LEHE53:
.L343:
.LBE83:
	movq	-24(%rbp), %rax
	subq	%fs:40, %rax
	je	.L341
	call	__stack_chk_fail@PLT
.L341:
	movq	-8(%rbp), %rbx
	leave
	.cfi_def_cfa 7, 8
	ret
	.cfi_endproc
.LFE14189:
	.section	.gcc_except_table
.LLSDA14189:
	.byte	0xff
	.byte	0xff
	.byte	0x1
	.uleb128 .LLSDACSE14189-.LLSDACSB14189
.LLSDACSB14189:
	.uleb128 .LEHB51-.LFB14189
	.uleb128 .LEHE51-.LEHB51
	.uleb128 0
	.uleb128 0
	.uleb128 .LEHB52-.LFB14189
	.uleb128 .LEHE52-.LEHB52
	.uleb128 .L342-.LFB14189
	.uleb128 0
	.uleb128 .LEHB53-.LFB14189
	.uleb128 .LEHE53-.LEHB53
	.uleb128 0
	.uleb128 0
.LLSDACSE14189:
	.section	.text._ZNSt7__cxx1112basic_stringIcSt11char_traitsIcESaIcEEC2ERKS4_,"axG",@progbits,_ZNSt7__cxx1112basic_stringIcSt11char_traitsIcESaIcEEC5ERKS4_,comdat
	.size	_ZNSt7__cxx1112basic_stringIcSt11char_traitsIcESaIcEEC2ERKS4_, .-_ZNSt7__cxx1112basic_stringIcSt11char_traitsIcESaIcEEC2ERKS4_
	.weak	_ZNSt7__cxx1112basic_stringIcSt11char_traitsIcESaIcEEC1ERKS4_
	.set	_ZNSt7__cxx1112basic_stringIcSt11char_traitsIcESaIcEEC1ERKS4_,_ZNSt7__cxx1112basic_stringIcSt11char_traitsIcESaIcEEC2ERKS4_
	.section	.text._ZSt11__addressofINSt7__cxx1112basic_stringIcSt11char_traitsIcESaIcEEEEPT_RS6_,"axG",@progbits,_ZSt11__addressofINSt7__cxx1112basic_stringIcSt11char_traitsIcESaIcEEEEPT_RS6_,comdat
	.weak	_ZSt11__addressofINSt7__cxx1112basic_stringIcSt11char_traitsIcESaIcEEEEPT_RS6_
	.type	_ZSt11__addressofINSt7__cxx1112basic_stringIcSt11char_traitsIcESaIcEEEEPT_RS6_, @function
_ZSt11__addressofINSt7__cxx1112basic_stringIcSt11char_traitsIcESaIcEEEEPT_RS6_:
.LFB14200:
	.loc 23 49 5
	.cfi_startproc
	endbr64
	pushq	%rbp
	.cfi_def_cfa_offset 16
	.cfi_offset 6, -16
	movq	%rsp, %rbp
	.cfi_def_cfa_register 6
	movq	%rdi, -8(%rbp)
	.loc 23 50 37
	movq	-8(%rbp), %rax
	.loc 23 50 40
	popq	%rbp
	.cfi_def_cfa 7, 8
	ret
	.cfi_endproc
.LFE14200:
	.size	_ZSt11__addressofINSt7__cxx1112basic_stringIcSt11char_traitsIcESaIcEEEEPT_RS6_, .-_ZSt11__addressofINSt7__cxx1112basic_stringIcSt11char_traitsIcESaIcEEEEPT_RS6_
	.section	.text._ZSteqRKSaIcES1_,"axG",@progbits,_ZSteqRKSaIcES1_,comdat
	.weak	_ZSteqRKSaIcES1_
	.type	_ZSteqRKSaIcES1_, @function
_ZSteqRKSaIcES1_:
.LFB14201:
	.file 24 "/usr/include/c++/11/bits/allocator.h"
	.loc 24 204 7
	.cfi_startproc
	endbr64
	pushq	%rbp
	.cfi_def_cfa_offset 16
	.cfi_offset 6, -16
	movq	%rsp, %rbp
	.cfi_def_cfa_register 6
	movq	%rdi, -8(%rbp)
	movq	%rsi, -16(%rbp)
	.loc 24 205 16
	movl	$1, %eax
	.loc 24 205 22
	popq	%rbp
	.cfi_def_cfa 7, 8
	ret
	.cfi_endproc
.LFE14201:
	.size	_ZSteqRKSaIcES1_, .-_ZSteqRKSaIcES1_
	.section	.text._ZN9__gnu_cxx14__alloc_traitsISaIcEcE27_S_propagate_on_copy_assignEv,"axG",@progbits,_ZN9__gnu_cxx14__alloc_traitsISaIcEcE27_S_propagate_on_copy_assignEv,comdat
	.weak	_ZN9__gnu_cxx14__alloc_traitsISaIcEcE27_S_propagate_on_copy_assignEv
	.type	_ZN9__gnu_cxx14__alloc_traitsISaIcEcE27_S_propagate_on_copy_assignEv, @function
_ZN9__gnu_cxx14__alloc_traitsISaIcEcE27_S_propagate_on_copy_assignEv:
.LFB14243:
	.loc 11 103 27
	.cfi_startproc
	endbr64
	pushq	%rbp
	.cfi_def_cfa_offset 16
	.cfi_offset 6, -16
	movq	%rsp, %rbp
	.cfi_def_cfa_register 6
	.loc 11 104 66
	movl	$0, %eax
	.loc 11 104 73
	popq	%rbp
	.cfi_def_cfa 7, 8
	ret
	.cfi_endproc
.LFE14243:
	.size	_ZN9__gnu_cxx14__alloc_traitsISaIcEcE27_S_propagate_on_copy_assignEv, .-_ZN9__gnu_cxx14__alloc_traitsISaIcEcE27_S_propagate_on_copy_assignEv
	.section	.text._ZNSt16allocator_traitsISaIcEE8allocateERS0_m,"axG",@progbits,_ZNSt16allocator_traitsISaIcEE8allocateERS0_m,comdat
	.weak	_ZNSt16allocator_traitsISaIcEE8allocateERS0_m
	.type	_ZNSt16allocator_traitsISaIcEE8allocateERS0_m, @function
_ZNSt16allocator_traitsISaIcEE8allocateERS0_m:
.LFB14244:
	.file 25 "/usr/include/c++/11/bits/alloc_traits.h"
	.loc 25 463 7
	.cfi_startproc
	endbr64
	pushq	%rbp
	.cfi_def_cfa_offset 16
	.cfi_offset 6, -16
	movq	%rsp, %rbp
	.cfi_def_cfa_register 6
	subq	$32, %rsp
	movq	%rdi, -24(%rbp)
	movq	%rsi, -32(%rbp)
	movq	-24(%rbp), %rax
	movq	%rax, -16(%rbp)
	movq	-32(%rbp), %rax
	movq	%rax, -8(%rbp)
.LBB84:
.LBB85:
	.loc 24 182 32
	call	_ZSt21is_constant_evaluatedv
	.loc 24 182 2
	testb	%al, %al
	je	.L351
	.loc 24 183 43
	movq	-8(%rbp), %rax
	movq	%rax, %rdi
	call	_Znwm@PLT
	.loc 24 183 62
	jmp	.L352
.L351:
	.loc 24 185 40
	movq	-8(%rbp), %rcx
	movq	-16(%rbp), %rax
	movl	$0, %edx
	movq	%rcx, %rsi
	movq	%rax, %rdi
	call	_ZN9__gnu_cxx13new_allocatorIcE8allocateEmPKv
	.loc 24 185 47
	nop
.L352:
.LBE85:
.LBE84:
	.loc 25 464 35
	leave
	.cfi_def_cfa 7, 8
	ret
	.cfi_endproc
.LFE14244:
	.size	_ZNSt16allocator_traitsISaIcEE8allocateERS0_m, .-_ZNSt16allocator_traitsISaIcEE8allocateERS0_m
	.section	.text._ZNSt7__cxx1112basic_stringIcSt11char_traitsIcESaIcEE6assignERKS4_,"axG",@progbits,_ZNSt7__cxx1112basic_stringIcSt11char_traitsIcESaIcEE6assignERKS4_,comdat
	.align 2
	.weak	_ZNSt7__cxx1112basic_stringIcSt11char_traitsIcESaIcEE6assignERKS4_
	.type	_ZNSt7__cxx1112basic_stringIcSt11char_traitsIcESaIcEE6assignERKS4_, @function
_ZNSt7__cxx1112basic_stringIcSt11char_traitsIcESaIcEE6assignERKS4_:
.LFB14242:
	.loc 8 1356 7
	.cfi_startproc
	.cfi_personality 0x9b,DW.ref.__gxx_personality_v0
	.cfi_lsda 0x1b,.LLSDA14242
	endbr64
	pushq	%rbp
	.cfi_def_cfa_offset 16
	.cfi_offset 6, -16
	movq	%rsp, %rbp
	.cfi_def_cfa_register 6
	pushq	%rbx
	subq	$56, %rsp
	.cfi_offset 3, -24
	movq	%rdi, -56(%rbp)
	movq	%rsi, -64(%rbp)
	.loc 8 1356 7
	movq	%fs:40, %rax
	movq	%rax, -24(%rbp)
	xorl	%eax, %eax
.LBB86:
	.loc 8 1359 48
	call	_ZN9__gnu_cxx14__alloc_traitsISaIcEcE27_S_propagate_on_copy_assignEv
	.loc 8 1359 2
	testb	%al, %al
	je	.L355
.LBB87:
.LBB88:
	.loc 8 1361 41
	call	_ZN9__gnu_cxx14__alloc_traitsISaIcEcE15_S_always_equalEv
	xorl	$1, %eax
	.loc 8 1362 3
	testb	%al, %al
	je	.L356
	.loc 8 1361 59
	movq	-56(%rbp), %rax
	movq	%rax, %rdi
.LEHB54:
	call	_ZNKSt7__cxx1112basic_stringIcSt11char_traitsIcESaIcEE11_M_is_localEv
.LEHE54:
	xorl	$1, %eax
	.loc 8 1361 44
	testb	%al, %al
	je	.L356
	.loc 8 1362 50 discriminator 3
	movq	-64(%rbp), %rax
	movq	%rax, %rdi
	call	_ZNKSt7__cxx1112basic_stringIcSt11char_traitsIcESaIcEE16_M_get_allocatorEv
	movq	%rax, %rbx
	.loc 8 1362 22 discriminator 3
	movq	-56(%rbp), %rax
	movq	%rax, %rdi
	call	_ZNSt7__cxx1112basic_stringIcSt11char_traitsIcESaIcEE16_M_get_allocatorEv
	.loc 8 1362 25 discriminator 3
	movq	%rbx, %rsi
	movq	%rax, %rdi
	call	_ZSteqRKSaIcES1_
	xorl	$1, %eax
	.loc 8 1362 3 discriminator 3
	testb	%al, %al
	je	.L356
	.loc 8 1362 3 is_stmt 0 discriminator 2
	movl	$1, %eax
	jmp	.L357
.L356:
	.loc 8 1362 3 discriminator 1
	movl	$0, %eax
.L357:
	.loc 8 1361 6 is_stmt 1 discriminator 5
	testb	%al, %al
	je	.L358
.LBB89:
.LBB90:
	.loc 8 1366 17
	movq	-64(%rbp), %rax
	movq	%rax, %rdi
	call	_ZNKSt7__cxx1112basic_stringIcSt11char_traitsIcESaIcEE4sizeEv
	.loc 8 1366 20
	cmpq	$15, %rax
	setbe	%al
	.loc 8 1366 3
	testb	%al, %al
	je	.L359
	.loc 8 1368 17
	movq	-56(%rbp), %rax
	movq	16(%rax), %rdx
	movq	-56(%rbp), %rax
	movq	%rdx, %rsi
	movq	%rax, %rdi
	call	_ZNSt7__cxx1112basic_stringIcSt11char_traitsIcESaIcEE10_M_destroyEm
	.loc 8 1369 14
	movq	-56(%rbp), %rax
	movq	%rax, %rdi
	call	_ZNSt7__cxx1112basic_stringIcSt11char_traitsIcESaIcEE13_M_local_dataEv
	movq	%rax, %rdx
	movq	-56(%rbp), %rax
	movq	%rdx, %rsi
	movq	%rax, %rdi
	call	_ZNSt7__cxx1112basic_stringIcSt11char_traitsIcESaIcEE7_M_dataEPc
	.loc 8 1370 20
	movq	-56(%rbp), %rax
	movl	$0, %esi
	movq	%rax, %rdi
	call	_ZNSt7__cxx1112basic_stringIcSt11char_traitsIcESaIcEE13_M_set_lengthEm
	jmp	.L358
.L359:
.LBB91:
	.loc 8 1374 36
	movq	-64(%rbp), %rax
	movq	%rax, %rdi
	call	_ZNKSt7__cxx1112basic_stringIcSt11char_traitsIcESaIcEE4sizeEv
	movq	%rax, -40(%rbp)
	.loc 8 1375 44
	movq	-64(%rbp), %rax
	movq	%rax, %rdi
	call	_ZNKSt7__cxx1112basic_stringIcSt11char_traitsIcESaIcEE16_M_get_allocatorEv
	movq	%rax, %rdx
	.loc 8 1375 12
	leaq	-41(%rbp), %rax
	movq	%rdx, %rsi
	movq	%rax, %rdi
	call	_ZNSaIcEC1ERKS_@PLT
	.loc 8 1377 43
	movq	-40(%rbp), %rax
	leaq	1(%rax), %rdx
	leaq	-41(%rbp), %rax
	movq	%rdx, %rsi
	movq	%rax, %rdi
.LEHB55:
	call	_ZNSt16allocator_traitsISaIcEE8allocateERS0_m
.LEHE55:
	movq	%rax, -32(%rbp)
	.loc 8 1378 17
	movq	-56(%rbp), %rax
	movq	16(%rax), %rdx
	movq	-56(%rbp), %rax
	movq	%rdx, %rsi
	movq	%rax, %rdi
	call	_ZNSt7__cxx1112basic_stringIcSt11char_traitsIcESaIcEE10_M_destroyEm
	.loc 8 1379 14
	movq	-32(%rbp), %rdx
	movq	-56(%rbp), %rax
	movq	%rdx, %rsi
	movq	%rax, %rdi
	call	_ZNSt7__cxx1112basic_stringIcSt11char_traitsIcESaIcEE7_M_dataEPc
	.loc 8 1380 18
	movq	-40(%rbp), %rdx
	movq	-56(%rbp), %rax
	movq	%rdx, %rsi
	movq	%rax, %rdi
	call	_ZNSt7__cxx1112basic_stringIcSt11char_traitsIcESaIcEE11_M_capacityEm
	.loc 8 1381 20
	movq	-40(%rbp), %rdx
	movq	-56(%rbp), %rax
	movq	%rdx, %rsi
	movq	%rax, %rdi
	call	_ZNSt7__cxx1112basic_stringIcSt11char_traitsIcESaIcEE13_M_set_lengthEm
	.loc 8 1382 5
	leaq	-41(%rbp), %rax
	movq	%rax, %rdi
	call	_ZNSaIcED1Ev@PLT
.L358:
.LBE91:
.LBE90:
.LBE89:
.LBE88:
	.loc 8 1384 69
	movq	-64(%rbp), %rax
	movq	%rax, %rdi
	call	_ZNKSt7__cxx1112basic_stringIcSt11char_traitsIcESaIcEE16_M_get_allocatorEv
	movq	%rax, %rbx
	.loc 8 1384 43
	movq	-56(%rbp), %rax
	movq	%rax, %rdi
	call	_ZNSt7__cxx1112basic_stringIcSt11char_traitsIcESaIcEE16_M_get_allocatorEv
	.loc 8 1384 26
	movq	%rbx, %rsi
	movq	%rax, %rdi
	call	_ZSt15__alloc_on_copyISaIcEEvRT_RKS1_
.L355:
.LBE87:
.LBE86:
	.loc 8 1387 17
	movq	-64(%rbp), %rdx
	movq	-56(%rbp), %rax
	movq	%rdx, %rsi
	movq	%rax, %rdi
.LEHB56:
	call	_ZNSt7__cxx1112basic_stringIcSt11char_traitsIcESaIcEE9_M_assignERKS4_
	.loc 8 1388 10
	movq	-56(%rbp), %rax
	.loc 8 1389 7
	movq	-24(%rbp), %rdx
	subq	%fs:40, %rdx
	je	.L362
	jmp	.L364
.L363:
	endbr64
.LBB97:
.LBB96:
.LBB95:
.LBB94:
.LBB93:
.LBB92:
	.loc 8 1382 5
	movq	%rax, %rbx
	leaq	-41(%rbp), %rax
	movq	%rax, %rdi
	call	_ZNSaIcED1Ev@PLT
	movq	%rbx, %rax
	movq	%rax, %rdi
	call	_Unwind_Resume@PLT
.LEHE56:
.L364:
.LBE92:
.LBE93:
.LBE94:
.LBE95:
.LBE96:
.LBE97:
	.loc 8 1389 7
	call	__stack_chk_fail@PLT
.L362:
	movq	-8(%rbp), %rbx
	leave
	.cfi_def_cfa 7, 8
	ret
	.cfi_endproc
.LFE14242:
	.section	.gcc_except_table
.LLSDA14242:
	.byte	0xff
	.byte	0xff
	.byte	0x1
	.uleb128 .LLSDACSE14242-.LLSDACSB14242
.LLSDACSB14242:
	.uleb128 .LEHB54-.LFB14242
	.uleb128 .LEHE54-.LEHB54
	.uleb128 0
	.uleb128 0
	.uleb128 .LEHB55-.LFB14242
	.uleb128 .LEHE55-.LEHB55
	.uleb128 .L363-.LFB14242
	.uleb128 0
	.uleb128 .LEHB56-.LFB14242
	.uleb128 .LEHE56-.LEHB56
	.uleb128 0
	.uleb128 0
.LLSDACSE14242:
	.section	.text._ZNSt7__cxx1112basic_stringIcSt11char_traitsIcESaIcEE6assignERKS4_,"axG",@progbits,_ZNSt7__cxx1112basic_stringIcSt11char_traitsIcESaIcEE6assignERKS4_,comdat
	.size	_ZNSt7__cxx1112basic_stringIcSt11char_traitsIcESaIcEE6assignERKS4_, .-_ZNSt7__cxx1112basic_stringIcSt11char_traitsIcESaIcEE6assignERKS4_
	.section	.text._ZN5boost16exception_detail12refcount_ptrINS0_20error_info_containerEEC2Ev,"axG",@progbits,_ZN5boost16exception_detail12refcount_ptrINS0_20error_info_containerEEC5Ev,comdat
	.align 2
	.weak	_ZN5boost16exception_detail12refcount_ptrINS0_20error_info_containerEEC2Ev
	.type	_ZN5boost16exception_detail12refcount_ptrINS0_20error_info_containerEEC2Ev, @function
_ZN5boost16exception_detail12refcount_ptrINS0_20error_info_containerEEC2Ev:
.LFB14246:
	.loc 15 44 13
	.cfi_startproc
	endbr64
	pushq	%rbp
	.cfi_def_cfa_offset 16
	.cfi_offset 6, -16
	movq	%rsp, %rbp
	.cfi_def_cfa_register 6
	movq	%rdi, -8(%rbp)
.LBB98:
	.loc 15 45 17
	movq	-8(%rbp), %rax
	movq	$0, (%rax)
.LBE98:
	.loc 15 47 17
	nop
	popq	%rbp
	.cfi_def_cfa 7, 8
	ret
	.cfi_endproc
.LFE14246:
	.size	_ZN5boost16exception_detail12refcount_ptrINS0_20error_info_containerEEC2Ev, .-_ZN5boost16exception_detail12refcount_ptrINS0_20error_info_containerEEC2Ev
	.weak	_ZN5boost16exception_detail12refcount_ptrINS0_20error_info_containerEEC1Ev
	.set	_ZN5boost16exception_detail12refcount_ptrINS0_20error_info_containerEEC1Ev,_ZN5boost16exception_detail12refcount_ptrINS0_20error_info_containerEEC2Ev
	.section	.text._ZN5boost16exception_detail12refcount_ptrINS0_20error_info_containerEED2Ev,"axG",@progbits,_ZN5boost16exception_detail12refcount_ptrINS0_20error_info_containerEED5Ev,comdat
	.align 2
	.weak	_ZN5boost16exception_detail12refcount_ptrINS0_20error_info_containerEED2Ev
	.type	_ZN5boost16exception_detail12refcount_ptrINS0_20error_info_containerEED2Ev, @function
_ZN5boost16exception_detail12refcount_ptrINS0_20error_info_containerEED2Ev:
.LFB14249:
	.loc 15 49 13
	.cfi_startproc
	.cfi_personality 0x9b,DW.ref.__gxx_personality_v0
	.cfi_lsda 0x1b,.LLSDA14249
	endbr64
	pushq	%rbp
	.cfi_def_cfa_offset 16
	.cfi_offset 6, -16
	movq	%rsp, %rbp
	.cfi_def_cfa_register 6
	subq	$16, %rsp
	movq	%rdi, -8(%rbp)
.LBB99:
	.loc 15 51 24
	movq	-8(%rbp), %rax
	movq	%rax, %rdi
	call	_ZN5boost16exception_detail12refcount_ptrINS0_20error_info_containerEE7releaseEv
.LBE99:
	.loc 15 52 17
	nop
	leave
	.cfi_def_cfa 7, 8
	ret
	.cfi_endproc
.LFE14249:
	.section	.gcc_except_table
.LLSDA14249:
	.byte	0xff
	.byte	0xff
	.byte	0x1
	.uleb128 .LLSDACSE14249-.LLSDACSB14249
.LLSDACSB14249:
.LLSDACSE14249:
	.section	.text._ZN5boost16exception_detail12refcount_ptrINS0_20error_info_containerEED2Ev,"axG",@progbits,_ZN5boost16exception_detail12refcount_ptrINS0_20error_info_containerEED5Ev,comdat
	.size	_ZN5boost16exception_detail12refcount_ptrINS0_20error_info_containerEED2Ev, .-_ZN5boost16exception_detail12refcount_ptrINS0_20error_info_containerEED2Ev
	.weak	_ZN5boost16exception_detail12refcount_ptrINS0_20error_info_containerEED1Ev
	.set	_ZN5boost16exception_detail12refcount_ptrINS0_20error_info_containerEED1Ev,_ZN5boost16exception_detail12refcount_ptrINS0_20error_info_containerEED2Ev
	.section	.text._ZNK5boost16exception_detail12refcount_ptrINS0_20error_info_containerEE3getEv,"axG",@progbits,_ZNK5boost16exception_detail12refcount_ptrINS0_20error_info_containerEE3getEv,comdat
	.align 2
	.weak	_ZNK5boost16exception_detail12refcount_ptrINS0_20error_info_containerEE3getEv
	.type	_ZNK5boost16exception_detail12refcount_ptrINS0_20error_info_containerEE3getEv, @function
_ZNK5boost16exception_detail12refcount_ptrINS0_20error_info_containerEE3getEv:
.LFB14251:
	.loc 15 76 13
	.cfi_startproc
	endbr64
	pushq	%rbp
	.cfi_def_cfa_offset 16
	.cfi_offset 6, -16
	movq	%rsp, %rbp
	.cfi_def_cfa_register 6
	movq	%rdi, -8(%rbp)
	.loc 15 78 24
	movq	-8(%rbp), %rax
	movq	(%rax), %rax
	.loc 15 79 17
	popq	%rbp
	.cfi_def_cfa 7, 8
	ret
	.cfi_endproc
.LFE14251:
	.size	_ZNK5boost16exception_detail12refcount_ptrINS0_20error_info_containerEE3getEv, .-_ZNK5boost16exception_detail12refcount_ptrINS0_20error_info_containerEE3getEv
	.section	.text._ZN5boost16exception_detail12refcount_ptrINS0_20error_info_containerEEaSERKS3_,"axG",@progbits,_ZN5boost16exception_detail12refcount_ptrINS0_20error_info_containerEEaSERKS3_,comdat
	.align 2
	.weak	_ZN5boost16exception_detail12refcount_ptrINS0_20error_info_containerEEaSERKS3_
	.type	_ZN5boost16exception_detail12refcount_ptrINS0_20error_info_containerEEaSERKS3_, @function
_ZN5boost16exception_detail12refcount_ptrINS0_20error_info_containerEEaSERKS3_:
.LFB14252:
	.loc 15 61 13
	.cfi_startproc
	endbr64
	pushq	%rbp
	.cfi_def_cfa_offset 16
	.cfi_offset 6, -16
	movq	%rsp, %rbp
	.cfi_def_cfa_register 6
	subq	$16, %rsp
	movq	%rdi, -8(%rbp)
	movq	%rsi, -16(%rbp)
	.loc 15 63 25
	movq	-16(%rbp), %rax
	movq	(%rax), %rdx
	.loc 15 63 22
	movq	-8(%rbp), %rax
	movq	%rdx, %rsi
	movq	%rax, %rdi
	call	_ZN5boost16exception_detail12refcount_ptrINS0_20error_info_containerEE5adoptEPS2_
	.loc 15 64 25
	movq	-8(%rbp), %rax
	.loc 15 65 17
	leave
	.cfi_def_cfa 7, 8
	ret
	.cfi_endproc
.LFE14252:
	.size	_ZN5boost16exception_detail12refcount_ptrINS0_20error_info_containerEEaSERKS3_, .-_ZN5boost16exception_detail12refcount_ptrINS0_20error_info_containerEEaSERKS3_
	.section	.text._ZNSt13unordered_mapINSt7__cxx1112basic_stringIcSt11char_traitsIcESaIcEEESt6vectorIP8TinyblobSaIS8_EESt4hashIS5_ESt8equal_toIS5_ESaISt4pairIKS5_SA_EEEixERSG_,"axG",@progbits,_ZNSt13unordered_mapINSt7__cxx1112basic_stringIcSt11char_traitsIcESaIcEEESt6vectorIP8TinyblobSaIS8_EESt4hashIS5_ESt8equal_toIS5_ESaISt4pairIKS5_SA_EEEixERSG_,comdat
	.align 2
	.weak	_ZNSt13unordered_mapINSt7__cxx1112basic_stringIcSt11char_traitsIcESaIcEEESt6vectorIP8TinyblobSaIS8_EESt4hashIS5_ESt8equal_toIS5_ESaISt4pairIKS5_SA_EEEixERSG_
	.type	_ZNSt13unordered_mapINSt7__cxx1112basic_stringIcSt11char_traitsIcESaIcEEESt6vectorIP8TinyblobSaIS8_EESt4hashIS5_ESt8equal_toIS5_ESaISt4pairIKS5_SA_EEEixERSG_, @function
_ZNSt13unordered_mapINSt7__cxx1112basic_stringIcSt11char_traitsIcESaIcEEESt6vectorIP8TinyblobSaIS8_EESt4hashIS5_ESt8equal_toIS5_ESaISt4pairIKS5_SA_EEEixERSG_:
.LFB14262:
	.file 26 "/usr/include/c++/11/bits/unordered_map.h"
	.loc 26 979 7
	.cfi_startproc
	endbr64
	pushq	%rbp
	.cfi_def_cfa_offset 16
	.cfi_offset 6, -16
	movq	%rsp, %rbp
	.cfi_def_cfa_register 6
	subq	$16, %rsp
	movq	%rdi, -8(%rbp)
	movq	%rsi, -16(%rbp)
	.loc 26 980 16
	movq	-8(%rbp), %rax
	.loc 26 980 20
	movq	-16(%rbp), %rdx
	movq	%rdx, %rsi
	movq	%rax, %rdi
	call	_ZNSt8__detail9_Map_baseINSt7__cxx1112basic_stringIcSt11char_traitsIcESaIcEEESt4pairIKS6_St6vectorIP8TinyblobSaISB_EEESaISE_ENS_10_Select1stESt8equal_toIS6_ESt4hashIS6_ENS_18_Mod_range_hashingENS_20_Default_ranged_hashENS_20_Prime_rehash_policyENS_17_Hashtable_traitsILb1ELb0ELb1EEELb1EEixERS8_
	.loc 26 980 27
	leave
	.cfi_def_cfa 7, 8
	ret
	.cfi_endproc
.LFE14262:
	.size	_ZNSt13unordered_mapINSt7__cxx1112basic_stringIcSt11char_traitsIcESaIcEEESt6vectorIP8TinyblobSaIS8_EESt4hashIS5_ESt8equal_toIS5_ESaISt4pairIKS5_SA_EEEixERSG_, .-_ZNSt13unordered_mapINSt7__cxx1112basic_stringIcSt11char_traitsIcESaIcEEESt6vectorIP8TinyblobSaIS8_EESt4hashIS5_ESt8equal_toIS5_ESaISt4pairIKS5_SA_EEEixERSG_
	.section	.text._ZNKSt6vectorIP8TinyblobSaIS1_EE4sizeEv,"axG",@progbits,_ZNKSt6vectorIP8TinyblobSaIS1_EE4sizeEv,comdat
	.align 2
	.weak	_ZNKSt6vectorIP8TinyblobSaIS1_EE4sizeEv
	.type	_ZNKSt6vectorIP8TinyblobSaIS1_EE4sizeEv, @function
_ZNKSt6vectorIP8TinyblobSaIS1_EE4sizeEv:
.LFB14263:
	.loc 19 918 7
	.cfi_startproc
	endbr64
	pushq	%rbp
	.cfi_def_cfa_offset 16
	.cfi_offset 6, -16
	movq	%rsp, %rbp
	.cfi_def_cfa_register 6
	movq	%rdi, -8(%rbp)
	.loc 19 919 40
	movq	-8(%rbp), %rax
	movq	8(%rax), %rdx
	.loc 19 919 66
	movq	-8(%rbp), %rax
	movq	(%rax), %rcx
	.loc 19 919 50
	movq	%rdx, %rax
	subq	%rcx, %rax
	sarq	$3, %rax
	.loc 19 919 77
	popq	%rbp
	.cfi_def_cfa 7, 8
	ret
	.cfi_endproc
.LFE14263:
	.size	_ZNKSt6vectorIP8TinyblobSaIS1_EE4sizeEv, .-_ZNKSt6vectorIP8TinyblobSaIS1_EE4sizeEv
	.section	.text._ZNSt6vectorIP8TinyblobSaIS1_EEixEm,"axG",@progbits,_ZNSt6vectorIP8TinyblobSaIS1_EEixEm,comdat
	.align 2
	.weak	_ZNSt6vectorIP8TinyblobSaIS1_EEixEm
	.type	_ZNSt6vectorIP8TinyblobSaIS1_EEixEm, @function
_ZNSt6vectorIP8TinyblobSaIS1_EEixEm:
.LFB14264:
	.loc 19 1043 7
	.cfi_startproc
	endbr64
	pushq	%rbp
	.cfi_def_cfa_offset 16
	.cfi_offset 6, -16
	movq	%rsp, %rbp
	.cfi_def_cfa_register 6
	movq	%rdi, -8(%rbp)
	movq	%rsi, -16(%rbp)
	.loc 19 1046 25
	movq	-8(%rbp), %rax
	movq	(%rax), %rdx
	.loc 19 1046 34
	movq	-16(%rbp), %rax
	salq	$3, %rax
	.loc 19 1046 39
	addq	%rdx, %rax
	.loc 19 1047 7
	popq	%rbp
	.cfi_def_cfa 7, 8
	ret
	.cfi_endproc
.LFE14264:
	.size	_ZNSt6vectorIP8TinyblobSaIS1_EEixEm, .-_ZNSt6vectorIP8TinyblobSaIS1_EEixEm
	.section	.text._ZNSt6vectorIP8TinyblobSaIS1_EE9push_backERKS1_,"axG",@progbits,_ZNSt6vectorIP8TinyblobSaIS1_EE9push_backERKS1_,comdat
	.align 2
	.weak	_ZNSt6vectorIP8TinyblobSaIS1_EE9push_backERKS1_
	.type	_ZNSt6vectorIP8TinyblobSaIS1_EE9push_backERKS1_, @function
_ZNSt6vectorIP8TinyblobSaIS1_EE9push_backERKS1_:
.LFB14265:
	.loc 19 1187 7
	.cfi_startproc
	endbr64
	pushq	%rbp
	.cfi_def_cfa_offset 16
	.cfi_offset 6, -16
	movq	%rsp, %rbp
	.cfi_def_cfa_register 6
	subq	$16, %rsp
	movq	%rdi, -8(%rbp)
	movq	%rsi, -16(%rbp)
	.loc 19 1189 20
	movq	-8(%rbp), %rax
	movq	8(%rax), %rdx
	.loc 19 1189 47
	movq	-8(%rbp), %rax
	movq	16(%rax), %rax
	.loc 19 1189 2
	cmpq	%rax, %rdx
	je	.L378
	.loc 19 1192 30
	movq	-8(%rbp), %rax
	movq	8(%rax), %rcx
	.loc 19 1192 37
	movq	-8(%rbp), %rax
	.loc 19 1192 30
	movq	-16(%rbp), %rdx
	movq	%rcx, %rsi
	movq	%rax, %rdi
	call	_ZNSt16allocator_traitsISaIP8TinyblobEE9constructIS1_JRKS1_EEEvRS2_PT_DpOT0_
	.loc 19 1194 22
	movq	-8(%rbp), %rax
	movq	8(%rax), %rax
	.loc 19 1194 6
	leaq	8(%rax), %rdx
	movq	-8(%rbp), %rax
	movq	%rdx, 8(%rax)
	.loc 19 1199 7
	jmp	.L380
.L378:
	.loc 19 1198 21
	movq	-8(%rbp), %rax
	movq	%rax, %rdi
	call	_ZNSt6vectorIP8TinyblobSaIS1_EE3endEv
	movq	%rax, %rcx
	movq	-16(%rbp), %rdx
	movq	-8(%rbp), %rax
	movq	%rcx, %rsi
	movq	%rax, %rdi
	call	_ZNSt6vectorIP8TinyblobSaIS1_EE17_M_realloc_insertIJRKS1_EEEvN9__gnu_cxx17__normal_iteratorIPS1_S3_EEDpOT_
.L380:
	.loc 19 1199 7
	nop
	leave
	.cfi_def_cfa 7, 8
	ret
	.cfi_endproc
.LFE14265:
	.size	_ZNSt6vectorIP8TinyblobSaIS1_EE9push_backERKS1_, .-_ZNSt6vectorIP8TinyblobSaIS1_EE9push_backERKS1_
	.section	.text._ZNSt13unordered_mapINSt7__cxx1112basic_stringIcSt11char_traitsIcESaIcEEESt6vectorIP8TinyblobSaIS8_EESt4hashIS5_ESt8equal_toIS5_ESaISt4pairIKS5_SA_EEE4findERSG_,"axG",@progbits,_ZNSt13unordered_mapINSt7__cxx1112basic_stringIcSt11char_traitsIcESaIcEEESt6vectorIP8TinyblobSaIS8_EESt4hashIS5_ESt8equal_toIS5_ESaISt4pairIKS5_SA_EEE4findERSG_,comdat
	.align 2
	.weak	_ZNSt13unordered_mapINSt7__cxx1112basic_stringIcSt11char_traitsIcESaIcEEESt6vectorIP8TinyblobSaIS8_EESt4hashIS5_ESt8equal_toIS5_ESaISt4pairIKS5_SA_EEE4findERSG_
	.type	_ZNSt13unordered_mapINSt7__cxx1112basic_stringIcSt11char_traitsIcESaIcEEESt6vectorIP8TinyblobSaIS8_EESt4hashIS5_ESt8equal_toIS5_ESaISt4pairIKS5_SA_EEE4findERSG_, @function
_ZNSt13unordered_mapINSt7__cxx1112basic_stringIcSt11char_traitsIcESaIcEEESt6vectorIP8TinyblobSaIS8_EESt4hashIS5_ESt8equal_toIS5_ESaISt4pairIKS5_SA_EEE4findERSG_:
.LFB14267:
	.loc 26 868 7
	.cfi_startproc
	endbr64
	pushq	%rbp
	.cfi_def_cfa_offset 16
	.cfi_offset 6, -16
	movq	%rsp, %rbp
	.cfi_def_cfa_register 6
	subq	$16, %rsp
	movq	%rdi, -8(%rbp)
	movq	%rsi, -16(%rbp)
	.loc 26 869 25
	movq	-8(%rbp), %rax
	movq	-16(%rbp), %rdx
	movq	%rdx, %rsi
	movq	%rax, %rdi
	call	_ZNSt10_HashtableINSt7__cxx1112basic_stringIcSt11char_traitsIcESaIcEEESt4pairIKS5_St6vectorIP8TinyblobSaISA_EEESaISD_ENSt8__detail10_Select1stESt8equal_toIS5_ESt4hashIS5_ENSF_18_Mod_range_hashingENSF_20_Default_ranged_hashENSF_20_Prime_rehash_policyENSF_17_Hashtable_traitsILb1ELb0ELb1EEEE4findERS7_
	.loc 26 869 32
	leave
	.cfi_def_cfa 7, 8
	ret
	.cfi_endproc
.LFE14267:
	.size	_ZNSt13unordered_mapINSt7__cxx1112basic_stringIcSt11char_traitsIcESaIcEEESt6vectorIP8TinyblobSaIS8_EESt4hashIS5_ESt8equal_toIS5_ESaISt4pairIKS5_SA_EEE4findERSG_, .-_ZNSt13unordered_mapINSt7__cxx1112basic_stringIcSt11char_traitsIcESaIcEEESt6vectorIP8TinyblobSaIS8_EESt4hashIS5_ESt8equal_toIS5_ESaISt4pairIKS5_SA_EEE4findERSG_
	.section	.text._ZNSt13unordered_mapINSt7__cxx1112basic_stringIcSt11char_traitsIcESaIcEEESt6vectorIP8TinyblobSaIS8_EESt4hashIS5_ESt8equal_toIS5_ESaISt4pairIKS5_SA_EEE3endEv,"axG",@progbits,_ZNSt13unordered_mapINSt7__cxx1112basic_stringIcSt11char_traitsIcESaIcEEESt6vectorIP8TinyblobSaIS8_EESt4hashIS5_ESt8equal_toIS5_ESaISt4pairIKS5_SA_EEE3endEv,comdat
	.align 2
	.weak	_ZNSt13unordered_mapINSt7__cxx1112basic_stringIcSt11char_traitsIcESaIcEEESt6vectorIP8TinyblobSaIS8_EESt4hashIS5_ESt8equal_toIS5_ESaISt4pairIKS5_SA_EEE3endEv
	.type	_ZNSt13unordered_mapINSt7__cxx1112basic_stringIcSt11char_traitsIcESaIcEEESt6vectorIP8TinyblobSaIS8_EESt4hashIS5_ESt8equal_toIS5_ESaISt4pairIKS5_SA_EEE3endEv, @function
_ZNSt13unordered_mapINSt7__cxx1112basic_stringIcSt11char_traitsIcESaIcEEESt6vectorIP8TinyblobSaIS8_EESt4hashIS5_ESt8equal_toIS5_ESaISt4pairIKS5_SA_EEE3endEv:
.LFB14268:
	.loc 26 347 7
	.cfi_startproc
	endbr64
	pushq	%rbp
	.cfi_def_cfa_offset 16
	.cfi_offset 6, -16
	movq	%rsp, %rbp
	.cfi_def_cfa_register 6
	subq	$16, %rsp
	movq	%rdi, -8(%rbp)
	.loc 26 348 24
	movq	-8(%rbp), %rax
	movq	%rax, %rdi
	call	_ZNSt10_HashtableINSt7__cxx1112basic_stringIcSt11char_traitsIcESaIcEEESt4pairIKS5_St6vectorIP8TinyblobSaISA_EEESaISD_ENSt8__detail10_Select1stESt8equal_toIS5_ESt4hashIS5_ENSF_18_Mod_range_hashingENSF_20_Default_ranged_hashENSF_20_Prime_rehash_policyENSF_17_Hashtable_traitsILb1ELb0ELb1EEEE3endEv
	.loc 26 348 28
	leave
	.cfi_def_cfa 7, 8
	ret
	.cfi_endproc
.LFE14268:
	.size	_ZNSt13unordered_mapINSt7__cxx1112basic_stringIcSt11char_traitsIcESaIcEEESt6vectorIP8TinyblobSaIS8_EESt4hashIS5_ESt8equal_toIS5_ESaISt4pairIKS5_SA_EEE3endEv, .-_ZNSt13unordered_mapINSt7__cxx1112basic_stringIcSt11char_traitsIcESaIcEEESt6vectorIP8TinyblobSaIS8_EESt4hashIS5_ESt8equal_toIS5_ESaISt4pairIKS5_SA_EEE3endEv
	.section	.text._ZNSt8__detaileqERKNS_19_Node_iterator_baseISt4pairIKNSt7__cxx1112basic_stringIcSt11char_traitsIcESaIcEEESt6vectorIP8TinyblobSaISB_EEELb1EEESH_,"axG",@progbits,_ZNSt8__detaileqERKNS_19_Node_iterator_baseISt4pairIKNSt7__cxx1112basic_stringIcSt11char_traitsIcESaIcEEESt6vectorIP8TinyblobSaISB_EEELb1EEESH_,comdat
	.weak	_ZNSt8__detaileqERKNS_19_Node_iterator_baseISt4pairIKNSt7__cxx1112basic_stringIcSt11char_traitsIcESaIcEEESt6vectorIP8TinyblobSaISB_EEELb1EEESH_
	.type	_ZNSt8__detaileqERKNS_19_Node_iterator_baseISt4pairIKNSt7__cxx1112basic_stringIcSt11char_traitsIcESaIcEEESt6vectorIP8TinyblobSaISB_EEELb1EEESH_, @function
_ZNSt8__detaileqERKNS_19_Node_iterator_baseISt4pairIKNSt7__cxx1112basic_stringIcSt11char_traitsIcESaIcEEESt6vectorIP8TinyblobSaISB_EEELb1EEESH_:
.LFB14269:
	.loc 10 303 7
	.cfi_startproc
	endbr64
	pushq	%rbp
	.cfi_def_cfa_offset 16
	.cfi_offset 6, -16
	movq	%rsp, %rbp
	.cfi_def_cfa_register 6
	movq	%rdi, -8(%rbp)
	movq	%rsi, -16(%rbp)
	.loc 10 305 20
	movq	-8(%rbp), %rax
	movq	(%rax), %rdx
	.loc 10 305 34
	movq	-16(%rbp), %rax
	movq	(%rax), %rax
	cmpq	%rax, %rdx
	sete	%al
	.loc 10 305 42
	popq	%rbp
	.cfi_def_cfa 7, 8
	ret
	.cfi_endproc
.LFE14269:
	.size	_ZNSt8__detaileqERKNS_19_Node_iterator_baseISt4pairIKNSt7__cxx1112basic_stringIcSt11char_traitsIcESaIcEEESt6vectorIP8TinyblobSaISB_EEELb1EEESH_, .-_ZNSt8__detaileqERKNS_19_Node_iterator_baseISt4pairIKNSt7__cxx1112basic_stringIcSt11char_traitsIcESaIcEEESt6vectorIP8TinyblobSaISB_EEELb1EEESH_
	.section	.text._ZNSt13unordered_mapINSt7__cxx1112basic_stringIcSt11char_traitsIcESaIcEEESt6vectorIP8TinyblobSaIS8_EESt4hashIS5_ESt8equal_toIS5_ESaISt4pairIKS5_SA_EEE5beginEv,"axG",@progbits,_ZNSt13unordered_mapINSt7__cxx1112basic_stringIcSt11char_traitsIcESaIcEEESt6vectorIP8TinyblobSaIS8_EESt4hashIS5_ESt8equal_toIS5_ESaISt4pairIKS5_SA_EEE5beginEv,comdat
	.align 2
	.weak	_ZNSt13unordered_mapINSt7__cxx1112basic_stringIcSt11char_traitsIcESaIcEEESt6vectorIP8TinyblobSaIS8_EESt4hashIS5_ESt8equal_toIS5_ESaISt4pairIKS5_SA_EEE5beginEv
	.type	_ZNSt13unordered_mapINSt7__cxx1112basic_stringIcSt11char_traitsIcESaIcEEESt6vectorIP8TinyblobSaIS8_EESt4hashIS5_ESt8equal_toIS5_ESaISt4pairIKS5_SA_EEE5beginEv, @function
_ZNSt13unordered_mapINSt7__cxx1112basic_stringIcSt11char_traitsIcESaIcEEESt6vectorIP8TinyblobSaIS8_EESt4hashIS5_ESt8equal_toIS5_ESaISt4pairIKS5_SA_EEE5beginEv:
.LFB14270:
	.loc 26 325 7
	.cfi_startproc
	endbr64
	pushq	%rbp
	.cfi_def_cfa_offset 16
	.cfi_offset 6, -16
	movq	%rsp, %rbp
	.cfi_def_cfa_register 6
	subq	$16, %rsp
	movq	%rdi, -8(%rbp)
	.loc 26 326 26
	movq	-8(%rbp), %rax
	movq	%rax, %rdi
	call	_ZNSt10_HashtableINSt7__cxx1112basic_stringIcSt11char_traitsIcESaIcEEESt4pairIKS5_St6vectorIP8TinyblobSaISA_EEESaISD_ENSt8__detail10_Select1stESt8equal_toIS5_ESt4hashIS5_ENSF_18_Mod_range_hashingENSF_20_Default_ranged_hashENSF_20_Prime_rehash_policyENSF_17_Hashtable_traitsILb1ELb0ELb1EEEE5beginEv
	.loc 26 326 30
	leave
	.cfi_def_cfa 7, 8
	ret
	.cfi_endproc
.LFE14270:
	.size	_ZNSt13unordered_mapINSt7__cxx1112basic_stringIcSt11char_traitsIcESaIcEEESt6vectorIP8TinyblobSaIS8_EESt4hashIS5_ESt8equal_toIS5_ESaISt4pairIKS5_SA_EEE5beginEv, .-_ZNSt13unordered_mapINSt7__cxx1112basic_stringIcSt11char_traitsIcESaIcEEESt6vectorIP8TinyblobSaIS8_EESt4hashIS5_ESt8equal_toIS5_ESaISt4pairIKS5_SA_EEE5beginEv
	.section	.text._ZNSt8__detail14_Node_iteratorISt4pairIKNSt7__cxx1112basic_stringIcSt11char_traitsIcESaIcEEESt6vectorIP8TinyblobSaISB_EEELb0ELb1EEppEi,"axG",@progbits,_ZNSt8__detail14_Node_iteratorISt4pairIKNSt7__cxx1112basic_stringIcSt11char_traitsIcESaIcEEESt6vectorIP8TinyblobSaISB_EEELb0ELb1EEppEi,comdat
	.align 2
	.weak	_ZNSt8__detail14_Node_iteratorISt4pairIKNSt7__cxx1112basic_stringIcSt11char_traitsIcESaIcEEESt6vectorIP8TinyblobSaISB_EEELb0ELb1EEppEi
	.type	_ZNSt8__detail14_Node_iteratorISt4pairIKNSt7__cxx1112basic_stringIcSt11char_traitsIcESaIcEEESt6vectorIP8TinyblobSaISB_EEELb0ELb1EEppEi, @function
_ZNSt8__detail14_Node_iteratorISt4pairIKNSt7__cxx1112basic_stringIcSt11char_traitsIcESaIcEEESt6vectorIP8TinyblobSaISB_EEELb0ELb1EEppEi:
.LFB14271:
	.loc 10 357 7
	.cfi_startproc
	endbr64
	pushq	%rbp
	.cfi_def_cfa_offset 16
	.cfi_offset 6, -16
	movq	%rsp, %rbp
	.cfi_def_cfa_register 6
	subq	$32, %rsp
	movq	%rdi, -24(%rbp)
	movl	%esi, -28(%rbp)
	.loc 10 357 7
	movq	%fs:40, %rax
	movq	%rax, -8(%rbp)
	xorl	%eax, %eax
	.loc 10 359 17
	movq	-24(%rbp), %rax
	movq	(%rax), %rax
	movq	%rax, -16(%rbp)
	.loc 10 360 15
	movq	-24(%rbp), %rax
	movq	%rax, %rdi
	call	_ZNSt8__detail19_Node_iterator_baseISt4pairIKNSt7__cxx1112basic_stringIcSt11char_traitsIcESaIcEEESt6vectorIP8TinyblobSaISB_EEELb1EE7_M_incrEv
	.loc 10 361 9
	movq	-16(%rbp), %rax
	.loc 10 362 7
	movq	-8(%rbp), %rdx
	subq	%fs:40, %rdx
	je	.L391
	call	__stack_chk_fail@PLT
.L391:
	leave
	.cfi_def_cfa 7, 8
	ret
	.cfi_endproc
.LFE14271:
	.size	_ZNSt8__detail14_Node_iteratorISt4pairIKNSt7__cxx1112basic_stringIcSt11char_traitsIcESaIcEEESt6vectorIP8TinyblobSaISB_EEELb0ELb1EEppEi, .-_ZNSt8__detail14_Node_iteratorISt4pairIKNSt7__cxx1112basic_stringIcSt11char_traitsIcESaIcEEESt6vectorIP8TinyblobSaISB_EEELb0ELb1EEppEi
	.section	.text._ZNKSt8__detail14_Node_iteratorISt4pairIKNSt7__cxx1112basic_stringIcSt11char_traitsIcESaIcEEESt6vectorIP8TinyblobSaISB_EEELb0ELb1EEptEv,"axG",@progbits,_ZNKSt8__detail14_Node_iteratorISt4pairIKNSt7__cxx1112basic_stringIcSt11char_traitsIcESaIcEEESt6vectorIP8TinyblobSaISB_EEELb0ELb1EEptEv,comdat
	.align 2
	.weak	_ZNKSt8__detail14_Node_iteratorISt4pairIKNSt7__cxx1112basic_stringIcSt11char_traitsIcESaIcEEESt6vectorIP8TinyblobSaISB_EEELb0ELb1EEptEv
	.type	_ZNKSt8__detail14_Node_iteratorISt4pairIKNSt7__cxx1112basic_stringIcSt11char_traitsIcESaIcEEESt6vectorIP8TinyblobSaISB_EEELb0ELb1EEptEv, @function
_ZNKSt8__detail14_Node_iteratorISt4pairIKNSt7__cxx1112basic_stringIcSt11char_traitsIcESaIcEEESt6vectorIP8TinyblobSaISB_EEELb0ELb1EEptEv:
.LFB14272:
	.loc 10 346 7
	.cfi_startproc
	endbr64
	pushq	%rbp
	.cfi_def_cfa_offset 16
	.cfi_offset 6, -16
	movq	%rsp, %rbp
	.cfi_def_cfa_register 6
	subq	$16, %rsp
	movq	%rdi, -8(%rbp)
	.loc 10 347 22
	movq	-8(%rbp), %rax
	movq	(%rax), %rax
	.loc 10 347 39
	addq	$8, %rax
	movq	%rax, %rdi
	call	_ZNSt8__detail21_Hash_node_value_baseISt4pairIKNSt7__cxx1112basic_stringIcSt11char_traitsIcESaIcEEESt6vectorIP8TinyblobSaISB_EEEE9_M_valptrEv
	.loc 10 347 43
	leave
	.cfi_def_cfa 7, 8
	ret
	.cfi_endproc
.LFE14272:
	.size	_ZNKSt8__detail14_Node_iteratorISt4pairIKNSt7__cxx1112basic_stringIcSt11char_traitsIcESaIcEEESt6vectorIP8TinyblobSaISB_EEELb0ELb1EEptEv, .-_ZNKSt8__detail14_Node_iteratorISt4pairIKNSt7__cxx1112basic_stringIcSt11char_traitsIcESaIcEEESt6vectorIP8TinyblobSaISB_EEELb0ELb1EEptEv
	.section	.text._ZSteqIcEN9__gnu_cxx11__enable_ifIXsrSt9__is_charIT_E7__valueEbE6__typeERKNSt7__cxx1112basic_stringIS3_St11char_traitsIS3_ESaIS3_EEESE_,"axG",@progbits,_ZSteqIcEN9__gnu_cxx11__enable_ifIXsrSt9__is_charIT_E7__valueEbE6__typeERKNSt7__cxx1112basic_stringIS3_St11char_traitsIS3_ESaIS3_EEESE_,comdat
	.weak	_ZSteqIcEN9__gnu_cxx11__enable_ifIXsrSt9__is_charIT_E7__valueEbE6__typeERKNSt7__cxx1112basic_stringIS3_St11char_traitsIS3_ESaIS3_EEESE_
	.type	_ZSteqIcEN9__gnu_cxx11__enable_ifIXsrSt9__is_charIT_E7__valueEbE6__typeERKNSt7__cxx1112basic_stringIS3_St11char_traitsIS3_ESaIS3_EEESE_, @function
_ZSteqIcEN9__gnu_cxx11__enable_ifIXsrSt9__is_charIT_E7__valueEbE6__typeERKNSt7__cxx1112basic_stringIS3_St11char_traitsIS3_ESaIS3_EEESE_:
.LFB14273:
	.loc 8 6234 5
	.cfi_startproc
	endbr64
	pushq	%rbp
	.cfi_def_cfa_offset 16
	.cfi_offset 6, -16
	movq	%rsp, %rbp
	.cfi_def_cfa_register 6
	pushq	%r12
	pushq	%rbx
	subq	$16, %rsp
	.cfi_offset 12, -24
	.cfi_offset 3, -32
	movq	%rdi, -24(%rbp)
	movq	%rsi, -32(%rbp)
	.loc 8 6236 25
	movq	-24(%rbp), %rax
	movq	%rax, %rdi
	call	_ZNKSt7__cxx1112basic_stringIcSt11char_traitsIcESaIcEE4sizeEv
	movq	%rax, %rbx
	.loc 8 6236 41
	movq	-32(%rbp), %rax
	movq	%rax, %rdi
	call	_ZNKSt7__cxx1112basic_stringIcSt11char_traitsIcESaIcEE4sizeEv
	.loc 8 6237 8
	cmpq	%rax, %rbx
	jne	.L395
	.loc 8 6237 45 discriminator 1
	movq	-24(%rbp), %rax
	movq	%rax, %rdi
	call	_ZNKSt7__cxx1112basic_stringIcSt11char_traitsIcESaIcEE4sizeEv
	movq	%rax, %r12
	movq	-32(%rbp), %rax
	movq	%rax, %rdi
	call	_ZNKSt7__cxx1112basic_stringIcSt11char_traitsIcESaIcEE4dataEv
	movq	%rax, %rbx
	movq	-24(%rbp), %rax
	movq	%rax, %rdi
	call	_ZNKSt7__cxx1112basic_stringIcSt11char_traitsIcESaIcEE4dataEv
	movq	%r12, %rdx
	movq	%rbx, %rsi
	movq	%rax, %rdi
	call	_ZNSt11char_traitsIcE7compareEPKcS2_m
	.loc 8 6237 8 discriminator 1
	testl	%eax, %eax
	jne	.L395
	.loc 8 6237 8 is_stmt 0 discriminator 3
	movl	$1, %eax
	jmp	.L396
.L395:
	.loc 8 6237 8 discriminator 4
	movl	$0, %eax
.L396:
	.loc 8 6238 27 is_stmt 1
	addq	$16, %rsp
	popq	%rbx
	popq	%r12
	popq	%rbp
	.cfi_def_cfa 7, 8
	ret
	.cfi_endproc
.LFE14273:
	.size	_ZSteqIcEN9__gnu_cxx11__enable_ifIXsrSt9__is_charIT_E7__valueEbE6__typeERKNSt7__cxx1112basic_stringIS3_St11char_traitsIS3_ESaIS3_EEESE_, .-_ZSteqIcEN9__gnu_cxx11__enable_ifIXsrSt9__is_charIT_E7__valueEbE6__typeERKNSt7__cxx1112basic_stringIS3_St11char_traitsIS3_ESaIS3_EEESE_
	.section	.text._ZNSt13unordered_mapINSt7__cxx1112basic_stringIcSt11char_traitsIcESaIcEEESt6vectorIP8TinyblobSaIS8_EESt4hashIS5_ESt8equal_toIS5_ESaISt4pairIKS5_SA_EEE5eraseENSt8__detail14_Node_iteratorISH_Lb0ELb1EEE,"axG",@progbits,_ZNSt13unordered_mapINSt7__cxx1112basic_stringIcSt11char_traitsIcESaIcEEESt6vectorIP8TinyblobSaIS8_EESt4hashIS5_ESt8equal_toIS5_ESaISt4pairIKS5_SA_EEE5eraseENSt8__detail14_Node_iteratorISH_Lb0ELb1EEE,comdat
	.align 2
	.weak	_ZNSt13unordered_mapINSt7__cxx1112basic_stringIcSt11char_traitsIcESaIcEEESt6vectorIP8TinyblobSaIS8_EESt4hashIS5_ESt8equal_toIS5_ESaISt4pairIKS5_SA_EEE5eraseENSt8__detail14_Node_iteratorISH_Lb0ELb1EEE
	.type	_ZNSt13unordered_mapINSt7__cxx1112basic_stringIcSt11char_traitsIcESaIcEEESt6vectorIP8TinyblobSaIS8_EESt4hashIS5_ESt8equal_toIS5_ESaISt4pairIKS5_SA_EEE5eraseENSt8__detail14_Node_iteratorISH_Lb0ELb1EEE, @function
_ZNSt13unordered_mapINSt7__cxx1112basic_stringIcSt11char_traitsIcESaIcEEESt6vectorIP8TinyblobSaIS8_EESt4hashIS5_ESt8equal_toIS5_ESaISt4pairIKS5_SA_EEE5eraseENSt8__detail14_Node_iteratorISH_Lb0ELb1EEE:
.LFB14274:
	.loc 26 745 7
	.cfi_startproc
	endbr64
	pushq	%rbp
	.cfi_def_cfa_offset 16
	.cfi_offset 6, -16
	movq	%rsp, %rbp
	.cfi_def_cfa_register 6
	subq	$16, %rsp
	movq	%rdi, -8(%rbp)
	movq	%rsi, -16(%rbp)
	.loc 26 746 26
	movq	-8(%rbp), %rax
	movq	-16(%rbp), %rdx
	movq	%rdx, %rsi
	movq	%rax, %rdi
	call	_ZNSt10_HashtableINSt7__cxx1112basic_stringIcSt11char_traitsIcESaIcEEESt4pairIKS5_St6vectorIP8TinyblobSaISA_EEESaISD_ENSt8__detail10_Select1stESt8equal_toIS5_ESt4hashIS5_ENSF_18_Mod_range_hashingENSF_20_Default_ranged_hashENSF_20_Prime_rehash_policyENSF_17_Hashtable_traitsILb1ELb0ELb1EEEE5eraseENSF_14_Node_iteratorISD_Lb0ELb1EEE
	.loc 26 746 40
	leave
	.cfi_def_cfa 7, 8
	ret
	.cfi_endproc
.LFE14274:
	.size	_ZNSt13unordered_mapINSt7__cxx1112basic_stringIcSt11char_traitsIcESaIcEEESt6vectorIP8TinyblobSaIS8_EESt4hashIS5_ESt8equal_toIS5_ESaISt4pairIKS5_SA_EEE5eraseENSt8__detail14_Node_iteratorISH_Lb0ELb1EEE, .-_ZNSt13unordered_mapINSt7__cxx1112basic_stringIcSt11char_traitsIcESaIcEEESt6vectorIP8TinyblobSaIS8_EESt4hashIS5_ESt8equal_toIS5_ESaISt4pairIKS5_SA_EEE5eraseENSt8__detail14_Node_iteratorISH_Lb0ELb1EEE
	.section	.text._ZNSt12_Vector_baseINSt7__cxx1112basic_stringIcSt11char_traitsIcESaIcEEESaIS5_EE12_Vector_implC2Ev,"axG",@progbits,_ZNSt12_Vector_baseINSt7__cxx1112basic_stringIcSt11char_traitsIcESaIcEEESaIS5_EE12_Vector_implC5Ev,comdat
	.align 2
	.weak	_ZNSt12_Vector_baseINSt7__cxx1112basic_stringIcSt11char_traitsIcESaIcEEESaIS5_EE12_Vector_implC2Ev
	.type	_ZNSt12_Vector_baseINSt7__cxx1112basic_stringIcSt11char_traitsIcESaIcEEESaIS5_EE12_Vector_implC2Ev, @function
_ZNSt12_Vector_baseINSt7__cxx1112basic_stringIcSt11char_traitsIcESaIcEEESaIS5_EE12_Vector_implC2Ev:
.LFB14290:
	.loc 19 131 2
	.cfi_startproc
	endbr64
	pushq	%rbp
	.cfi_def_cfa_offset 16
	.cfi_offset 6, -16
	movq	%rsp, %rbp
	.cfi_def_cfa_register 6
	subq	$16, %rsp
	movq	%rdi, -8(%rbp)
.LBB100:
	.loc 19 133 19
	movq	-8(%rbp), %rax
	movq	%rax, %rdi
	call	_ZNSaINSt7__cxx1112basic_stringIcSt11char_traitsIcESaIcEEEEC2Ev
	movq	-8(%rbp), %rax
	movq	%rax, %rdi
	call	_ZNSt12_Vector_baseINSt7__cxx1112basic_stringIcSt11char_traitsIcESaIcEEESaIS5_EE17_Vector_impl_dataC2Ev
.LBE100:
	.loc 19 134 4
	nop
	leave
	.cfi_def_cfa 7, 8
	ret
	.cfi_endproc
.LFE14290:
	.size	_ZNSt12_Vector_baseINSt7__cxx1112basic_stringIcSt11char_traitsIcESaIcEEESaIS5_EE12_Vector_implC2Ev, .-_ZNSt12_Vector_baseINSt7__cxx1112basic_stringIcSt11char_traitsIcESaIcEEESaIS5_EE12_Vector_implC2Ev
	.weak	_ZNSt12_Vector_baseINSt7__cxx1112basic_stringIcSt11char_traitsIcESaIcEEESaIS5_EE12_Vector_implC1Ev
	.set	_ZNSt12_Vector_baseINSt7__cxx1112basic_stringIcSt11char_traitsIcESaIcEEESaIS5_EE12_Vector_implC1Ev,_ZNSt12_Vector_baseINSt7__cxx1112basic_stringIcSt11char_traitsIcESaIcEEESaIS5_EE12_Vector_implC2Ev
	.section	.text._ZNSaINSt7__cxx1112basic_stringIcSt11char_traitsIcESaIcEEEED2Ev,"axG",@progbits,_ZNSaINSt7__cxx1112basic_stringIcSt11char_traitsIcESaIcEEEED5Ev,comdat
	.align 2
	.weak	_ZNSaINSt7__cxx1112basic_stringIcSt11char_traitsIcESaIcEEEED2Ev
	.type	_ZNSaINSt7__cxx1112basic_stringIcSt11char_traitsIcESaIcEEEED2Ev, @function
_ZNSaINSt7__cxx1112basic_stringIcSt11char_traitsIcESaIcEEEED2Ev:
.LFB14293:
	.loc 24 174 7
	.cfi_startproc
	endbr64
	pushq	%rbp
	.cfi_def_cfa_offset 16
	.cfi_offset 6, -16
	movq	%rsp, %rbp
	.cfi_def_cfa_register 6
	movq	%rdi, -8(%rbp)
	.loc 24 174 39
	nop
	popq	%rbp
	.cfi_def_cfa 7, 8
	ret
	.cfi_endproc
.LFE14293:
	.size	_ZNSaINSt7__cxx1112basic_stringIcSt11char_traitsIcESaIcEEEED2Ev, .-_ZNSaINSt7__cxx1112basic_stringIcSt11char_traitsIcESaIcEEEED2Ev
	.weak	_ZNSaINSt7__cxx1112basic_stringIcSt11char_traitsIcESaIcEEEED1Ev
	.set	_ZNSaINSt7__cxx1112basic_stringIcSt11char_traitsIcESaIcEEEED1Ev,_ZNSaINSt7__cxx1112basic_stringIcSt11char_traitsIcESaIcEEEED2Ev
	.section	.text._ZNSt12_Vector_baseINSt7__cxx1112basic_stringIcSt11char_traitsIcESaIcEEESaIS5_EED2Ev,"axG",@progbits,_ZNSt12_Vector_baseINSt7__cxx1112basic_stringIcSt11char_traitsIcESaIcEEESaIS5_EED5Ev,comdat
	.align 2
	.weak	_ZNSt12_Vector_baseINSt7__cxx1112basic_stringIcSt11char_traitsIcESaIcEEESaIS5_EED2Ev
	.type	_ZNSt12_Vector_baseINSt7__cxx1112basic_stringIcSt11char_traitsIcESaIcEEESaIS5_EED2Ev, @function
_ZNSt12_Vector_baseINSt7__cxx1112basic_stringIcSt11char_traitsIcESaIcEEESaIS5_EED2Ev:
.LFB14296:
	.loc 19 333 7
	.cfi_startproc
	.cfi_personality 0x9b,DW.ref.__gxx_personality_v0
	.cfi_lsda 0x1b,.LLSDA14296
	endbr64
	pushq	%rbp
	.cfi_def_cfa_offset 16
	.cfi_offset 6, -16
	movq	%rsp, %rbp
	.cfi_def_cfa_register 6
	subq	$16, %rsp
	movq	%rdi, -8(%rbp)
.LBB101:
	.loc 19 336 17
	movq	-8(%rbp), %rax
	movq	16(%rax), %rdx
	.loc 19 336 45
	movq	-8(%rbp), %rax
	movq	(%rax), %rcx
	.loc 19 336 35
	movq	%rdx, %rax
	subq	%rcx, %rax
	sarq	$5, %rax
	.loc 19 335 15
	movq	%rax, %rdx
	movq	-8(%rbp), %rax
	movq	(%rax), %rcx
	movq	-8(%rbp), %rax
	movq	%rcx, %rsi
	movq	%rax, %rdi
	call	_ZNSt12_Vector_baseINSt7__cxx1112basic_stringIcSt11char_traitsIcESaIcEEESaIS5_EE13_M_deallocateEPS5_m
	.loc 19 337 7
	movq	-8(%rbp), %rax
	movq	%rax, %rdi
	call	_ZNSt12_Vector_baseINSt7__cxx1112basic_stringIcSt11char_traitsIcESaIcEEESaIS5_EE12_Vector_implD1Ev
.LBE101:
	nop
	leave
	.cfi_def_cfa 7, 8
	ret
	.cfi_endproc
.LFE14296:
	.section	.gcc_except_table
.LLSDA14296:
	.byte	0xff
	.byte	0xff
	.byte	0x1
	.uleb128 .LLSDACSE14296-.LLSDACSB14296
.LLSDACSB14296:
.LLSDACSE14296:
	.section	.text._ZNSt12_Vector_baseINSt7__cxx1112basic_stringIcSt11char_traitsIcESaIcEEESaIS5_EED2Ev,"axG",@progbits,_ZNSt12_Vector_baseINSt7__cxx1112basic_stringIcSt11char_traitsIcESaIcEEESaIS5_EED5Ev,comdat
	.size	_ZNSt12_Vector_baseINSt7__cxx1112basic_stringIcSt11char_traitsIcESaIcEEESaIS5_EED2Ev, .-_ZNSt12_Vector_baseINSt7__cxx1112basic_stringIcSt11char_traitsIcESaIcEEESaIS5_EED2Ev
	.weak	_ZNSt12_Vector_baseINSt7__cxx1112basic_stringIcSt11char_traitsIcESaIcEEESaIS5_EED1Ev
	.set	_ZNSt12_Vector_baseINSt7__cxx1112basic_stringIcSt11char_traitsIcESaIcEEESaIS5_EED1Ev,_ZNSt12_Vector_baseINSt7__cxx1112basic_stringIcSt11char_traitsIcESaIcEEESaIS5_EED2Ev
	.section	.text._ZNSt6vectorINSt7__cxx1112basic_stringIcSt11char_traitsIcESaIcEEESaIS5_EED2Ev,"axG",@progbits,_ZNSt6vectorINSt7__cxx1112basic_stringIcSt11char_traitsIcESaIcEEESaIS5_EED5Ev,comdat
	.align 2
	.weak	_ZNSt6vectorINSt7__cxx1112basic_stringIcSt11char_traitsIcESaIcEEESaIS5_EED2Ev
	.type	_ZNSt6vectorINSt7__cxx1112basic_stringIcSt11char_traitsIcESaIcEEESaIS5_EED2Ev, @function
_ZNSt6vectorINSt7__cxx1112basic_stringIcSt11char_traitsIcESaIcEEESaIS5_EED2Ev:
.LFB14299:
	.loc 19 678 7
	.cfi_startproc
	.cfi_personality 0x9b,DW.ref.__gxx_personality_v0
	.cfi_lsda 0x1b,.LLSDA14299
	endbr64
	pushq	%rbp
	.cfi_def_cfa_offset 16
	.cfi_offset 6, -16
	movq	%rsp, %rbp
	.cfi_def_cfa_register 6
	subq	$16, %rsp
	movq	%rdi, -8(%rbp)
.LBB102:
	.loc 19 681 28
	movq	-8(%rbp), %rax
	movq	%rax, %rdi
	call	_ZNSt12_Vector_baseINSt7__cxx1112basic_stringIcSt11char_traitsIcESaIcEEESaIS5_EE19_M_get_Tp_allocatorEv
	movq	%rax, %rdx
	.loc 19 680 15
	movq	-8(%rbp), %rax
	movq	8(%rax), %rcx
	movq	-8(%rbp), %rax
	movq	(%rax), %rax
	movq	%rcx, %rsi
	movq	%rax, %rdi
	call	_ZSt8_DestroyIPNSt7__cxx1112basic_stringIcSt11char_traitsIcESaIcEEES5_EvT_S7_RSaIT0_E
	.loc 19 683 7
	movq	-8(%rbp), %rax
	movq	%rax, %rdi
	call	_ZNSt12_Vector_baseINSt7__cxx1112basic_stringIcSt11char_traitsIcESaIcEEESaIS5_EED2Ev
.LBE102:
	nop
	leave
	.cfi_def_cfa 7, 8
	ret
	.cfi_endproc
.LFE14299:
	.section	.gcc_except_table
.LLSDA14299:
	.byte	0xff
	.byte	0xff
	.byte	0x1
	.uleb128 .LLSDACSE14299-.LLSDACSB14299
.LLSDACSB14299:
.LLSDACSE14299:
	.section	.text._ZNSt6vectorINSt7__cxx1112basic_stringIcSt11char_traitsIcESaIcEEESaIS5_EED2Ev,"axG",@progbits,_ZNSt6vectorINSt7__cxx1112basic_stringIcSt11char_traitsIcESaIcEEESaIS5_EED5Ev,comdat
	.size	_ZNSt6vectorINSt7__cxx1112basic_stringIcSt11char_traitsIcESaIcEEESaIS5_EED2Ev, .-_ZNSt6vectorINSt7__cxx1112basic_stringIcSt11char_traitsIcESaIcEEESaIS5_EED2Ev
	.weak	_ZNSt6vectorINSt7__cxx1112basic_stringIcSt11char_traitsIcESaIcEEESaIS5_EED1Ev
	.set	_ZNSt6vectorINSt7__cxx1112basic_stringIcSt11char_traitsIcESaIcEEESaIS5_EED1Ev,_ZNSt6vectorINSt7__cxx1112basic_stringIcSt11char_traitsIcESaIcEEESaIS5_EED2Ev
	.section	.text._ZN5boost9algorithm9is_any_ofIA2_cEENS0_6detail10is_any_ofFINS_11range_valueIT_E4typeEEERKS6_,"axG",@progbits,_ZN5boost9algorithm9is_any_ofIA2_cEENS0_6detail10is_any_ofFINS_11range_valueIT_E4typeEEERKS6_,comdat
	.weak	_ZN5boost9algorithm9is_any_ofIA2_cEENS0_6detail10is_any_ofFINS_11range_valueIT_E4typeEEERKS6_
	.type	_ZN5boost9algorithm9is_any_ofIA2_cEENS0_6detail10is_any_ofFINS_11range_valueIT_E4typeEEERKS6_, @function
_ZN5boost9algorithm9is_any_ofIA2_cEENS0_6detail10is_any_ofFINS_11range_valueIT_E4typeEEERKS6_:
.LFB14301:
	.file 27 "/usr/include/boost/algorithm/string/classification.hpp"
	.loc 27 203 9
	.cfi_startproc
	endbr64
	pushq	%rbp
	.cfi_def_cfa_offset 16
	.cfi_offset 6, -16
	movq	%rsp, %rbp
	.cfi_def_cfa_register 6
	subq	$48, %rsp
	movq	%rdi, -40(%rbp)
	movq	%rsi, -48(%rbp)
	.loc 27 203 9
	movq	%fs:40, %rax
	movq	%rax, -8(%rbp)
	xorl	%eax, %eax
	.loc 27 205 111
	movq	-48(%rbp), %rax
	movq	%rax, %rdi
	call	_ZN5boost10as_literalIcLm2EEENS_14iterator_rangeIPKT_EERAT0__S3_
	movq	%rax, -32(%rbp)
	movq	%rdx, -24(%rbp)
	.loc 27 206 95
	leaq	-32(%rbp), %rdx
	movq	-40(%rbp), %rax
	movq	%rdx, %rsi
	movq	%rax, %rdi
	call	_ZN5boost9algorithm6detail10is_any_ofFIcEC1INS_14iterator_rangeIPKcEEEERKT_
	.loc 27 207 9
	movq	-8(%rbp), %rax
	subq	%fs:40, %rax
	je	.L406
	call	__stack_chk_fail@PLT
.L406:
	movq	-40(%rbp), %rax
	leave
	.cfi_def_cfa 7, 8
	ret
	.cfi_endproc
.LFE14301:
	.size	_ZN5boost9algorithm9is_any_ofIA2_cEENS0_6detail10is_any_ofFINS_11range_valueIT_E4typeEEERKS6_, .-_ZN5boost9algorithm9is_any_ofIA2_cEENS0_6detail10is_any_ofFINS_11range_valueIT_E4typeEEERKS6_
	.section	.text._ZN5boost9algorithm6detail10is_any_ofFIcED2Ev,"axG",@progbits,_ZN5boost9algorithm6detail10is_any_ofFIcED5Ev,comdat
	.align 2
	.weak	_ZN5boost9algorithm6detail10is_any_ofFIcED2Ev
	.type	_ZN5boost9algorithm6detail10is_any_ofFIcED2Ev, @function
_ZN5boost9algorithm6detail10is_any_ofFIcED2Ev:
.LFB14303:
	.file 28 "/usr/include/boost/algorithm/string/detail/classification.hpp"
	.loc 28 133 17
	.cfi_startproc
	endbr64
	pushq	%rbp
	.cfi_def_cfa_offset 16
	.cfi_offset 6, -16
	movq	%rsp, %rbp
	.cfi_def_cfa_register 6
	subq	$16, %rsp
	movq	%rdi, -8(%rbp)
.LBB103:
	.loc 28 135 42
	movq	-8(%rbp), %rax
	movq	16(%rax), %rax
	movq	%rax, %rdi
	call	_ZN5boost9algorithm6detail10is_any_ofFIcE17use_fixed_storageEm
	xorl	$1, %eax
	.loc 28 135 51
	testb	%al, %al
	je	.L408
	.loc 28 135 64 discriminator 1
	movq	-8(%rbp), %rax
	movq	(%rax), %rax
	.loc 28 135 51 discriminator 1
	testq	%rax, %rax
	je	.L408
	.loc 28 135 51 is_stmt 0 discriminator 3
	movl	$1, %eax
	jmp	.L409
.L408:
	.loc 28 135 51 discriminator 4
	movl	$0, %eax
.L409:
	.loc 28 135 21 is_stmt 1 discriminator 6
	testb	%al, %al
	je	.L411
	.loc 28 137 45
	movq	-8(%rbp), %rax
	movq	(%rax), %rax
	.loc 28 137 25
	testq	%rax, %rax
	je	.L411
	.loc 28 137 45 discriminator 1
	movq	-8(%rbp), %rax
	movq	(%rax), %rax
	.loc 28 137 25 discriminator 1
	movq	%rax, %rdi
	call	_ZdaPv@PLT
.L411:
.LBE103:
	.loc 28 139 17
	nop
	leave
	.cfi_def_cfa 7, 8
	ret
	.cfi_endproc
.LFE14303:
	.size	_ZN5boost9algorithm6detail10is_any_ofFIcED2Ev, .-_ZN5boost9algorithm6detail10is_any_ofFIcED2Ev
	.weak	_ZN5boost9algorithm6detail10is_any_ofFIcED1Ev
	.set	_ZN5boost9algorithm6detail10is_any_ofFIcED1Ev,_ZN5boost9algorithm6detail10is_any_ofFIcED2Ev
	.section	.text._ZN5boost9algorithm6detail13token_finderFINS1_10is_any_ofFIcEEED2Ev,"axG",@progbits,_ZN5boost9algorithm6detail13token_finderFINS1_10is_any_ofFIcEEED5Ev,comdat
	.align 2
	.weak	_ZN5boost9algorithm6detail13token_finderFINS1_10is_any_ofFIcEEED2Ev
	.type	_ZN5boost9algorithm6detail13token_finderFINS1_10is_any_ofFIcEEED2Ev, @function
_ZN5boost9algorithm6detail13token_finderFINS1_10is_any_ofFIcEEED2Ev:
.LFB14307:
	.file 29 "/usr/include/boost/algorithm/string/detail/finder.hpp"
	.loc 29 548 20
	.cfi_startproc
	endbr64
	pushq	%rbp
	.cfi_def_cfa_offset 16
	.cfi_offset 6, -16
	movq	%rsp, %rbp
	.cfi_def_cfa_register 6
	subq	$16, %rsp
	movq	%rdi, -8(%rbp)
.LBB104:
	.loc 29 548 20
	movq	-8(%rbp), %rax
	movq	%rax, %rdi
	call	_ZN5boost9algorithm6detail10is_any_ofFIcED1Ev
.LBE104:
	nop
	leave
	.cfi_def_cfa 7, 8
	ret
	.cfi_endproc
.LFE14307:
	.size	_ZN5boost9algorithm6detail13token_finderFINS1_10is_any_ofFIcEEED2Ev, .-_ZN5boost9algorithm6detail13token_finderFINS1_10is_any_ofFIcEEED2Ev
	.weak	_ZN5boost9algorithm6detail13token_finderFINS1_10is_any_ofFIcEEED1Ev
	.set	_ZN5boost9algorithm6detail13token_finderFINS1_10is_any_ofFIcEEED1Ev,_ZN5boost9algorithm6detail13token_finderFINS1_10is_any_ofFIcEEED2Ev
	.section	.text._ZN5boost9algorithm5splitISt6vectorINSt7__cxx1112basic_stringIcSt11char_traitsIcESaIcEEESaIS8_EERS8_NS0_6detail10is_any_ofFIcEEEERT_SG_OT0_T1_NS0_24token_compress_mode_typeE,"axG",@progbits,_ZN5boost9algorithm5splitISt6vectorINSt7__cxx1112basic_stringIcSt11char_traitsIcESaIcEEESaIS8_EERS8_NS0_6detail10is_any_ofFIcEEEERT_SG_OT0_T1_NS0_24token_compress_mode_typeE,comdat
	.weak	_ZN5boost9algorithm5splitISt6vectorINSt7__cxx1112basic_stringIcSt11char_traitsIcESaIcEEESaIS8_EERS8_NS0_6detail10is_any_ofFIcEEEERT_SG_OT0_T1_NS0_24token_compress_mode_typeE
	.type	_ZN5boost9algorithm5splitISt6vectorINSt7__cxx1112basic_stringIcSt11char_traitsIcESaIcEEESaIS8_EERS8_NS0_6detail10is_any_ofFIcEEEERT_SG_OT0_T1_NS0_24token_compress_mode_typeE, @function
_ZN5boost9algorithm5splitISt6vectorINSt7__cxx1112basic_stringIcSt11char_traitsIcESaIcEEESaIS8_EERS8_NS0_6detail10is_any_ofFIcEEEERT_SG_OT0_T1_NS0_24token_compress_mode_typeE:
.LFB14305:
	.file 30 "/usr/include/boost/algorithm/string/split.hpp"
	.loc 30 148 35
	.cfi_startproc
	.cfi_personality 0x9b,DW.ref.__gxx_personality_v0
	.cfi_lsda 0x1b,.LLSDA14305
	endbr64
	pushq	%rbp
	.cfi_def_cfa_offset 16
	.cfi_offset 6, -16
	movq	%rsp, %rbp
	.cfi_def_cfa_register 6
	pushq	%rbx
	subq	$120, %rsp
	.cfi_offset 3, -24
	movq	%rdi, -104(%rbp)
	movq	%rsi, -112(%rbp)
	movq	%rdx, -120(%rbp)
	movl	%ecx, -124(%rbp)
	.loc 30 148 35
	movq	%fs:40, %rax
	movq	%rax, -24(%rbp)
	xorl	%eax, %eax
	.loc 30 158 50
	movq	-120(%rbp), %rdx
	leaq	-96(%rbp), %rax
	movq	%rdx, %rsi
	movq	%rax, %rdi
.LEHB57:
	call	_ZN5boost9algorithm6detail10is_any_ofFIcEC1ERKS3_
.LEHE57:
	leaq	-64(%rbp), %rax
	movl	-124(%rbp), %edx
	leaq	-96(%rbp), %rcx
	movq	%rcx, %rsi
	movq	%rax, %rdi
.LEHB58:
	call	_ZN5boost9algorithm12token_finderINS0_6detail10is_any_ofFIcEEEENS2_13token_finderFIT_EES6_NS0_24token_compress_mode_typeE
.LEHE58:
	.loc 30 158 50 is_stmt 0 discriminator 2
	leaq	-64(%rbp), %rdx
	movq	-112(%rbp), %rcx
	movq	-104(%rbp), %rax
	movq	%rcx, %rsi
	movq	%rax, %rdi
.LEHB59:
	call	_ZN5boost9algorithm10iter_splitISt6vectorINSt7__cxx1112basic_stringIcSt11char_traitsIcESaIcEEESaIS8_EERS8_NS0_6detail13token_finderFINSC_10is_any_ofFIcEEEEEERT_SI_OT0_T1_
.LEHE59:
	movq	%rax, %rbx
	.loc 30 161 69 is_stmt 1 discriminator 2
	nop
	.loc 30 158 50 discriminator 2
	leaq	-64(%rbp), %rax
	movq	%rax, %rdi
	call	_ZN5boost9algorithm6detail13token_finderFINS1_10is_any_ofFIcEEED1Ev
	leaq	-96(%rbp), %rax
	movq	%rax, %rdi
	call	_ZN5boost9algorithm6detail10is_any_ofFIcED1Ev
	.loc 30 161 69 discriminator 2
	movq	%rbx, %rax
	.loc 30 162 9 discriminator 2
	movq	-24(%rbp), %rdx
	subq	%fs:40, %rdx
	je	.L417
	jmp	.L420
.L419:
	endbr64
	.loc 30 158 50
	movq	%rax, %rbx
	leaq	-64(%rbp), %rax
	movq	%rax, %rdi
	call	_ZN5boost9algorithm6detail13token_finderFINS1_10is_any_ofFIcEEED1Ev
	jmp	.L416
.L418:
	endbr64
	movq	%rax, %rbx
.L416:
	.loc 30 158 50 is_stmt 0 discriminator 1
	leaq	-96(%rbp), %rax
	movq	%rax, %rdi
	call	_ZN5boost9algorithm6detail10is_any_ofFIcED1Ev
	movq	%rbx, %rax
	movq	%rax, %rdi
.LEHB60:
	call	_Unwind_Resume@PLT
.LEHE60:
.L420:
	.loc 30 162 9 is_stmt 1
	call	__stack_chk_fail@PLT
.L417:
	movq	-8(%rbp), %rbx
	leave
	.cfi_def_cfa 7, 8
	ret
	.cfi_endproc
.LFE14305:
	.section	.gcc_except_table
.LLSDA14305:
	.byte	0xff
	.byte	0xff
	.byte	0x1
	.uleb128 .LLSDACSE14305-.LLSDACSB14305
.LLSDACSB14305:
	.uleb128 .LEHB57-.LFB14305
	.uleb128 .LEHE57-.LEHB57
	.uleb128 0
	.uleb128 0
	.uleb128 .LEHB58-.LFB14305
	.uleb128 .LEHE58-.LEHB58
	.uleb128 .L418-.LFB14305
	.uleb128 0
	.uleb128 .LEHB59-.LFB14305
	.uleb128 .LEHE59-.LEHB59
	.uleb128 .L419-.LFB14305
	.uleb128 0
	.uleb128 .LEHB60-.LFB14305
	.uleb128 .LEHE60-.LEHB60
	.uleb128 0
	.uleb128 0
.LLSDACSE14305:
	.section	.text._ZN5boost9algorithm5splitISt6vectorINSt7__cxx1112basic_stringIcSt11char_traitsIcESaIcEEESaIS8_EERS8_NS0_6detail10is_any_ofFIcEEEERT_SG_OT0_T1_NS0_24token_compress_mode_typeE,"axG",@progbits,_ZN5boost9algorithm5splitISt6vectorINSt7__cxx1112basic_stringIcSt11char_traitsIcESaIcEEESaIS8_EERS8_NS0_6detail10is_any_ofFIcEEEERT_SG_OT0_T1_NS0_24token_compress_mode_typeE,comdat
	.size	_ZN5boost9algorithm5splitISt6vectorINSt7__cxx1112basic_stringIcSt11char_traitsIcESaIcEEESaIS8_EERS8_NS0_6detail10is_any_ofFIcEEEERT_SG_OT0_T1_NS0_24token_compress_mode_typeE, .-_ZN5boost9algorithm5splitISt6vectorINSt7__cxx1112basic_stringIcSt11char_traitsIcESaIcEEESaIS8_EERS8_NS0_6detail10is_any_ofFIcEEEERT_SG_OT0_T1_NS0_24token_compress_mode_typeE
	.section	.text._ZNSt6vectorINSt7__cxx1112basic_stringIcSt11char_traitsIcESaIcEEESaIS5_EEixEm,"axG",@progbits,_ZNSt6vectorINSt7__cxx1112basic_stringIcSt11char_traitsIcESaIcEEESaIS5_EEixEm,comdat
	.align 2
	.weak	_ZNSt6vectorINSt7__cxx1112basic_stringIcSt11char_traitsIcESaIcEEESaIS5_EEixEm
	.type	_ZNSt6vectorINSt7__cxx1112basic_stringIcSt11char_traitsIcESaIcEEESaIS5_EEixEm, @function
_ZNSt6vectorINSt7__cxx1112basic_stringIcSt11char_traitsIcESaIcEEESaIS5_EEixEm:
.LFB14309:
	.loc 19 1043 7
	.cfi_startproc
	endbr64
	pushq	%rbp
	.cfi_def_cfa_offset 16
	.cfi_offset 6, -16
	movq	%rsp, %rbp
	.cfi_def_cfa_register 6
	movq	%rdi, -8(%rbp)
	movq	%rsi, -16(%rbp)
	.loc 19 1046 25
	movq	-8(%rbp), %rax
	movq	(%rax), %rdx
	.loc 19 1046 34
	movq	-16(%rbp), %rax
	salq	$5, %rax
	.loc 19 1046 39
	addq	%rdx, %rax
	.loc 19 1047 7
	popq	%rbp
	.cfi_def_cfa 7, 8
	ret
	.cfi_endproc
.LFE14309:
	.size	_ZNSt6vectorINSt7__cxx1112basic_stringIcSt11char_traitsIcESaIcEEESaIS5_EEixEm, .-_ZNSt6vectorINSt7__cxx1112basic_stringIcSt11char_traitsIcESaIcEEESaIS5_EEixEm
	.section	.text._ZNSt8__detail14_Node_iteratorISt4pairIKNSt7__cxx1112basic_stringIcSt11char_traitsIcESaIcEEESt6vectorIP8TinyblobSaISB_EEELb0ELb1EEppEv,"axG",@progbits,_ZNSt8__detail14_Node_iteratorISt4pairIKNSt7__cxx1112basic_stringIcSt11char_traitsIcESaIcEEESt6vectorIP8TinyblobSaISB_EEELb0ELb1EEppEv,comdat
	.align 2
	.weak	_ZNSt8__detail14_Node_iteratorISt4pairIKNSt7__cxx1112basic_stringIcSt11char_traitsIcESaIcEEESt6vectorIP8TinyblobSaISB_EEELb0ELb1EEppEv
	.type	_ZNSt8__detail14_Node_iteratorISt4pairIKNSt7__cxx1112basic_stringIcSt11char_traitsIcESaIcEEESt6vectorIP8TinyblobSaISB_EEELb0ELb1EEppEv, @function
_ZNSt8__detail14_Node_iteratorISt4pairIKNSt7__cxx1112basic_stringIcSt11char_traitsIcESaIcEEESt6vectorIP8TinyblobSaISB_EEELb0ELb1EEppEv:
.LFB14311:
	.loc 10 350 7
	.cfi_startproc
	endbr64
	pushq	%rbp
	.cfi_def_cfa_offset 16
	.cfi_offset 6, -16
	movq	%rsp, %rbp
	.cfi_def_cfa_register 6
	subq	$16, %rsp
	movq	%rdi, -8(%rbp)
	.loc 10 352 15
	movq	-8(%rbp), %rax
	movq	%rax, %rdi
	call	_ZNSt8__detail19_Node_iterator_baseISt4pairIKNSt7__cxx1112basic_stringIcSt11char_traitsIcESaIcEEESt6vectorIP8TinyblobSaISB_EEELb1EE7_M_incrEv
	.loc 10 353 10
	movq	-8(%rbp), %rax
	.loc 10 354 7
	leave
	.cfi_def_cfa 7, 8
	ret
	.cfi_endproc
.LFE14311:
	.size	_ZNSt8__detail14_Node_iteratorISt4pairIKNSt7__cxx1112basic_stringIcSt11char_traitsIcESaIcEEESt6vectorIP8TinyblobSaISB_EEELb0ELb1EEppEv, .-_ZNSt8__detail14_Node_iteratorISt4pairIKNSt7__cxx1112basic_stringIcSt11char_traitsIcESaIcEEESt6vectorIP8TinyblobSaISB_EEELb0ELb1EEppEv
	.section	.text._ZNKSt8__detail14_Node_iteratorISt4pairIKNSt7__cxx1112basic_stringIcSt11char_traitsIcESaIcEEESt6vectorIP8TinyblobSaISB_EEELb0ELb1EEdeEv,"axG",@progbits,_ZNKSt8__detail14_Node_iteratorISt4pairIKNSt7__cxx1112basic_stringIcSt11char_traitsIcESaIcEEESt6vectorIP8TinyblobSaISB_EEELb0ELb1EEdeEv,comdat
	.align 2
	.weak	_ZNKSt8__detail14_Node_iteratorISt4pairIKNSt7__cxx1112basic_stringIcSt11char_traitsIcESaIcEEESt6vectorIP8TinyblobSaISB_EEELb0ELb1EEdeEv
	.type	_ZNKSt8__detail14_Node_iteratorISt4pairIKNSt7__cxx1112basic_stringIcSt11char_traitsIcESaIcEEESt6vectorIP8TinyblobSaISB_EEELb0ELb1EEdeEv, @function
_ZNKSt8__detail14_Node_iteratorISt4pairIKNSt7__cxx1112basic_stringIcSt11char_traitsIcESaIcEEESt6vectorIP8TinyblobSaISB_EEELb0ELb1EEdeEv:
.LFB14312:
	.loc 10 342 7
	.cfi_startproc
	endbr64
	pushq	%rbp
	.cfi_def_cfa_offset 16
	.cfi_offset 6, -16
	movq	%rsp, %rbp
	.cfi_def_cfa_register 6
	subq	$16, %rsp
	movq	%rdi, -8(%rbp)
	.loc 10 343 22
	movq	-8(%rbp), %rax
	movq	(%rax), %rax
	.loc 10 343 34
	addq	$8, %rax
	movq	%rax, %rdi
	call	_ZNSt8__detail21_Hash_node_value_baseISt4pairIKNSt7__cxx1112basic_stringIcSt11char_traitsIcESaIcEEESt6vectorIP8TinyblobSaISB_EEEE4_M_vEv
	.loc 10 343 38
	leave
	.cfi_def_cfa 7, 8
	ret
	.cfi_endproc
.LFE14312:
	.size	_ZNKSt8__detail14_Node_iteratorISt4pairIKNSt7__cxx1112basic_stringIcSt11char_traitsIcESaIcEEESt6vectorIP8TinyblobSaISB_EEELb0ELb1EEdeEv, .-_ZNKSt8__detail14_Node_iteratorISt4pairIKNSt7__cxx1112basic_stringIcSt11char_traitsIcESaIcEEESt6vectorIP8TinyblobSaISB_EEELb0ELb1EEdeEv
	.section	.text._ZNSt6vectorIP8TinyblobSaIS1_EEC2ERKS3_,"axG",@progbits,_ZNSt6vectorIP8TinyblobSaIS1_EEC5ERKS3_,comdat
	.align 2
	.weak	_ZNSt6vectorIP8TinyblobSaIS1_EEC2ERKS3_
	.type	_ZNSt6vectorIP8TinyblobSaIS1_EEC2ERKS3_, @function
_ZNSt6vectorIP8TinyblobSaIS1_EEC2ERKS3_:
.LFB14314:
	.loc 19 553 7
	.cfi_startproc
	.cfi_personality 0x9b,DW.ref.__gxx_personality_v0
	.cfi_lsda 0x1b,.LLSDA14314
	endbr64
	pushq	%rbp
	.cfi_def_cfa_offset 16
	.cfi_offset 6, -16
	movq	%rsp, %rbp
	.cfi_def_cfa_register 6
	pushq	%r13
	pushq	%r12
	pushq	%rbx
	subq	$40, %rsp
	.cfi_offset 13, -24
	.cfi_offset 12, -32
	.cfi_offset 3, -40
	movq	%rdi, -56(%rbp)
	movq	%rsi, -64(%rbp)
	.loc 19 553 7
	movq	%fs:40, %rax
	movq	%rax, -40(%rbp)
	xorl	%eax, %eax
.LBB105:
	.loc 19 555 61
	movq	-56(%rbp), %rbx
	.loc 19 555 58
	movq	-64(%rbp), %rax
	movq	%rax, %rdi
	call	_ZNKSt12_Vector_baseIP8TinyblobSaIS1_EE19_M_get_Tp_allocatorEv
	movq	%rax, %rdx
	.loc 19 555 61
	leaq	-41(%rbp), %rax
	movq	%rdx, %rsi
	movq	%rax, %rdi
.LEHB61:
	call	_ZN9__gnu_cxx14__alloc_traitsISaIP8TinyblobES2_E17_S_select_on_copyERKS3_
.LEHE61:
	movq	-64(%rbp), %rax
	movq	%rax, %rdi
	call	_ZNKSt6vectorIP8TinyblobSaIS1_EE4sizeEv
	movq	%rax, %rcx
	leaq	-41(%rbp), %rax
	movq	%rax, %rdx
	movq	%rcx, %rsi
	movq	%rbx, %rdi
.LEHB62:
	call	_ZNSt12_Vector_baseIP8TinyblobSaIS1_EEC2EmRKS2_
.LEHE62:
	.loc 19 555 61 is_stmt 0 discriminator 2
	leaq	-41(%rbp), %rax
	movq	%rax, %rdi
	call	_ZNSaIP8TinyblobED1Ev
	.loc 19 560 30 is_stmt 1 discriminator 2
	movq	-56(%rbp), %rax
	movq	%rax, %rdi
	call	_ZNSt12_Vector_baseIP8TinyblobSaIS1_EE19_M_get_Tp_allocatorEv
	movq	%rax, %r13
	.loc 19 558 31 discriminator 2
	movq	-56(%rbp), %rax
	movq	(%rax), %rbx
	movq	-64(%rbp), %rax
	movq	%rax, %rdi
	call	_ZNKSt6vectorIP8TinyblobSaIS1_EE3endEv
	movq	%rax, %r12
	movq	-64(%rbp), %rax
	movq	%rax, %rdi
	call	_ZNKSt6vectorIP8TinyblobSaIS1_EE5beginEv
	movq	%r13, %rcx
	movq	%rbx, %rdx
	movq	%r12, %rsi
	movq	%rax, %rdi
.LEHB63:
	call	_ZSt22__uninitialized_copy_aIN9__gnu_cxx17__normal_iteratorIPKP8TinyblobSt6vectorIS3_SaIS3_EEEEPS3_S3_ET0_T_SC_SB_RSaIT1_E
.LEHE63:
	.loc 19 557 26 discriminator 2
	movq	-56(%rbp), %rdx
	movq	%rax, 8(%rdx)
.LBE105:
	.loc 19 561 7 discriminator 2
	nop
	movq	-40(%rbp), %rax
	subq	%fs:40, %rax
	je	.L430
	jmp	.L433
.L431:
	endbr64
.LBB106:
	.loc 19 555 61
	movq	%rax, %rbx
	leaq	-41(%rbp), %rax
	movq	%rax, %rdi
	call	_ZNSaIP8TinyblobED1Ev
	movq	%rbx, %rax
	movq	%rax, %rdi
.LEHB64:
	call	_Unwind_Resume@PLT
.L432:
	endbr64
	.loc 19 561 7
	movq	%rax, %rbx
	movq	-56(%rbp), %rax
	movq	%rax, %rdi
	call	_ZNSt12_Vector_baseIP8TinyblobSaIS1_EED2Ev
	movq	%rbx, %rax
	movq	%rax, %rdi
	call	_Unwind_Resume@PLT
.LEHE64:
.L433:
.LBE106:
	call	__stack_chk_fail@PLT
.L430:
	addq	$40, %rsp
	popq	%rbx
	popq	%r12
	popq	%r13
	popq	%rbp
	.cfi_def_cfa 7, 8
	ret
	.cfi_endproc
.LFE14314:
	.section	.gcc_except_table
.LLSDA14314:
	.byte	0xff
	.byte	0xff
	.byte	0x1
	.uleb128 .LLSDACSE14314-.LLSDACSB14314
.LLSDACSB14314:
	.uleb128 .LEHB61-.LFB14314
	.uleb128 .LEHE61-.LEHB61
	.uleb128 0
	.uleb128 0
	.uleb128 .LEHB62-.LFB14314
	.uleb128 .LEHE62-.LEHB62
	.uleb128 .L431-.LFB14314
	.uleb128 0
	.uleb128 .LEHB63-.LFB14314
	.uleb128 .LEHE63-.LEHB63
	.uleb128 .L432-.LFB14314
	.uleb128 0
	.uleb128 .LEHB64-.LFB14314
	.uleb128 .LEHE64-.LEHB64
	.uleb128 0
	.uleb128 0
.LLSDACSE14314:
	.section	.text._ZNSt6vectorIP8TinyblobSaIS1_EEC2ERKS3_,"axG",@progbits,_ZNSt6vectorIP8TinyblobSaIS1_EEC5ERKS3_,comdat
	.size	_ZNSt6vectorIP8TinyblobSaIS1_EEC2ERKS3_, .-_ZNSt6vectorIP8TinyblobSaIS1_EEC2ERKS3_
	.weak	_ZNSt6vectorIP8TinyblobSaIS1_EEC1ERKS3_
	.set	_ZNSt6vectorIP8TinyblobSaIS1_EEC1ERKS3_,_ZNSt6vectorIP8TinyblobSaIS1_EEC2ERKS3_
	.section	.text._ZNSt6vectorIP8TinyblobSaIS1_EED2Ev,"axG",@progbits,_ZNSt6vectorIP8TinyblobSaIS1_EED5Ev,comdat
	.align 2
	.weak	_ZNSt6vectorIP8TinyblobSaIS1_EED2Ev
	.type	_ZNSt6vectorIP8TinyblobSaIS1_EED2Ev, @function
_ZNSt6vectorIP8TinyblobSaIS1_EED2Ev:
.LFB14317:
	.loc 19 678 7
	.cfi_startproc
	.cfi_personality 0x9b,DW.ref.__gxx_personality_v0
	.cfi_lsda 0x1b,.LLSDA14317
	endbr64
	pushq	%rbp
	.cfi_def_cfa_offset 16
	.cfi_offset 6, -16
	movq	%rsp, %rbp
	.cfi_def_cfa_register 6
	subq	$16, %rsp
	movq	%rdi, -8(%rbp)
.LBB107:
	.loc 19 681 28
	movq	-8(%rbp), %rax
	movq	%rax, %rdi
	call	_ZNSt12_Vector_baseIP8TinyblobSaIS1_EE19_M_get_Tp_allocatorEv
	movq	%rax, %rdx
	.loc 19 680 15
	movq	-8(%rbp), %rax
	movq	8(%rax), %rcx
	movq	-8(%rbp), %rax
	movq	(%rax), %rax
	movq	%rcx, %rsi
	movq	%rax, %rdi
	call	_ZSt8_DestroyIPP8TinyblobS1_EvT_S3_RSaIT0_E
	.loc 19 683 7
	movq	-8(%rbp), %rax
	movq	%rax, %rdi
	call	_ZNSt12_Vector_baseIP8TinyblobSaIS1_EED2Ev
.LBE107:
	nop
	leave
	.cfi_def_cfa 7, 8
	ret
	.cfi_endproc
.LFE14317:
	.section	.gcc_except_table
.LLSDA14317:
	.byte	0xff
	.byte	0xff
	.byte	0x1
	.uleb128 .LLSDACSE14317-.LLSDACSB14317
.LLSDACSB14317:
.LLSDACSE14317:
	.section	.text._ZNSt6vectorIP8TinyblobSaIS1_EED2Ev,"axG",@progbits,_ZNSt6vectorIP8TinyblobSaIS1_EED5Ev,comdat
	.size	_ZNSt6vectorIP8TinyblobSaIS1_EED2Ev, .-_ZNSt6vectorIP8TinyblobSaIS1_EED2Ev
	.weak	_ZNSt6vectorIP8TinyblobSaIS1_EED1Ev
	.set	_ZNSt6vectorIP8TinyblobSaIS1_EED1Ev,_ZNSt6vectorIP8TinyblobSaIS1_EED2Ev
	.section	.text._ZNSt6vectorIP8TinyblobSaIS1_EE5beginEv,"axG",@progbits,_ZNSt6vectorIP8TinyblobSaIS1_EE5beginEv,comdat
	.align 2
	.weak	_ZNSt6vectorIP8TinyblobSaIS1_EE5beginEv
	.type	_ZNSt6vectorIP8TinyblobSaIS1_EE5beginEv, @function
_ZNSt6vectorIP8TinyblobSaIS1_EE5beginEv:
.LFB14319:
	.loc 19 811 7
	.cfi_startproc
	endbr64
	pushq	%rbp
	.cfi_def_cfa_offset 16
	.cfi_offset 6, -16
	movq	%rsp, %rbp
	.cfi_def_cfa_register 6
	subq	$32, %rsp
	movq	%rdi, -24(%rbp)
	.loc 19 811 7
	movq	%fs:40, %rax
	movq	%rax, -8(%rbp)
	xorl	%eax, %eax
	.loc 19 812 39
	movq	-24(%rbp), %rdx
	.loc 19 812 16
	leaq	-16(%rbp), %rax
	movq	%rdx, %rsi
	movq	%rax, %rdi
	call	_ZN9__gnu_cxx17__normal_iteratorIPP8TinyblobSt6vectorIS2_SaIS2_EEEC1ERKS3_
	.loc 19 812 47
	movq	-16(%rbp), %rax
	.loc 19 812 50
	movq	-8(%rbp), %rdx
	subq	%fs:40, %rdx
	je	.L437
	call	__stack_chk_fail@PLT
.L437:
	leave
	.cfi_def_cfa 7, 8
	ret
	.cfi_endproc
.LFE14319:
	.size	_ZNSt6vectorIP8TinyblobSaIS1_EE5beginEv, .-_ZNSt6vectorIP8TinyblobSaIS1_EE5beginEv
	.section	.text._ZNSt6vectorIP8TinyblobSaIS1_EE3endEv,"axG",@progbits,_ZNSt6vectorIP8TinyblobSaIS1_EE3endEv,comdat
	.align 2
	.weak	_ZNSt6vectorIP8TinyblobSaIS1_EE3endEv
	.type	_ZNSt6vectorIP8TinyblobSaIS1_EE3endEv, @function
_ZNSt6vectorIP8TinyblobSaIS1_EE3endEv:
.LFB14320:
	.loc 19 829 7
	.cfi_startproc
	endbr64
	pushq	%rbp
	.cfi_def_cfa_offset 16
	.cfi_offset 6, -16
	movq	%rsp, %rbp
	.cfi_def_cfa_register 6
	subq	$32, %rsp
	movq	%rdi, -24(%rbp)
	.loc 19 829 7
	movq	%fs:40, %rax
	movq	%rax, -8(%rbp)
	xorl	%eax, %eax
	.loc 19 830 39
	movq	-24(%rbp), %rax
	leaq	8(%rax), %rdx
	.loc 19 830 16
	leaq	-16(%rbp), %rax
	movq	%rdx, %rsi
	movq	%rax, %rdi
	call	_ZN9__gnu_cxx17__normal_iteratorIPP8TinyblobSt6vectorIS2_SaIS2_EEEC1ERKS3_
	.loc 19 830 48
	movq	-16(%rbp), %rax
	.loc 19 830 51
	movq	-8(%rbp), %rdx
	subq	%fs:40, %rdx
	je	.L440
	call	__stack_chk_fail@PLT
.L440:
	leave
	.cfi_def_cfa 7, 8
	ret
	.cfi_endproc
.LFE14320:
	.size	_ZNSt6vectorIP8TinyblobSaIS1_EE3endEv, .-_ZNSt6vectorIP8TinyblobSaIS1_EE3endEv
	.section	.text._ZStplIcSt11char_traitsIcESaIcEENSt7__cxx1112basic_stringIT_T0_T1_EEOS8_PKS5_,"axG",@progbits,_ZStplIcSt11char_traitsIcESaIcEENSt7__cxx1112basic_stringIT_T0_T1_EEOS8_PKS5_,comdat
	.weak	_ZStplIcSt11char_traitsIcESaIcEENSt7__cxx1112basic_stringIT_T0_T1_EEOS8_PKS5_
	.type	_ZStplIcSt11char_traitsIcESaIcEENSt7__cxx1112basic_stringIT_T0_T1_EEOS8_PKS5_, @function
_ZStplIcSt11char_traitsIcESaIcEENSt7__cxx1112basic_stringIT_T0_T1_EEOS8_PKS5_:
.LFB14321:
	.loc 8 6206 5
	.cfi_startproc
	endbr64
	pushq	%rbp
	.cfi_def_cfa_offset 16
	.cfi_offset 6, -16
	movq	%rsp, %rbp
	.cfi_def_cfa_register 6
	subq	$32, %rsp
	movq	%rdi, -8(%rbp)
	movq	%rsi, -16(%rbp)
	movq	%rdx, -24(%rbp)
	.loc 8 6208 23
	movq	-24(%rbp), %rdx
	movq	-16(%rbp), %rax
	movq	%rdx, %rsi
	movq	%rax, %rdi
	call	_ZNSt7__cxx1112basic_stringIcSt11char_traitsIcESaIcEE6appendEPKc
	movq	%rax, %rdi
	call	_ZSt4moveIRNSt7__cxx1112basic_stringIcSt11char_traitsIcESaIcEEEEONSt16remove_referenceIT_E4typeEOS8_
	movq	%rax, %rdx
	.loc 8 6208 43
	movq	-8(%rbp), %rax
	movq	%rdx, %rsi
	movq	%rax, %rdi
	call	_ZNSt7__cxx1112basic_stringIcSt11char_traitsIcESaIcEEC1EOS4_
	.loc 8 6208 46
	movq	-8(%rbp), %rax
	leave
	.cfi_def_cfa 7, 8
	ret
	.cfi_endproc
.LFE14321:
	.size	_ZStplIcSt11char_traitsIcESaIcEENSt7__cxx1112basic_stringIT_T0_T1_EEOS8_PKS5_, .-_ZStplIcSt11char_traitsIcESaIcEENSt7__cxx1112basic_stringIT_T0_T1_EEOS8_PKS5_
	.section	.text._ZNSt7__cxx1112basic_stringIcSt11char_traitsIcESaIcEEpLERKS4_,"axG",@progbits,_ZNSt7__cxx1112basic_stringIcSt11char_traitsIcESaIcEEpLERKS4_,comdat
	.align 2
	.weak	_ZNSt7__cxx1112basic_stringIcSt11char_traitsIcESaIcEEpLERKS4_
	.type	_ZNSt7__cxx1112basic_stringIcSt11char_traitsIcESaIcEEpLERKS4_, @function
_ZNSt7__cxx1112basic_stringIcSt11char_traitsIcESaIcEEpLERKS4_:
.LFB14322:
	.loc 8 1160 7
	.cfi_startproc
	endbr64
	pushq	%rbp
	.cfi_def_cfa_offset 16
	.cfi_offset 6, -16
	movq	%rsp, %rbp
	.cfi_def_cfa_register 6
	subq	$16, %rsp
	movq	%rdi, -8(%rbp)
	movq	%rsi, -16(%rbp)
	.loc 8 1161 28
	movq	-16(%rbp), %rdx
	movq	-8(%rbp), %rax
	movq	%rdx, %rsi
	movq	%rax, %rdi
	call	_ZNSt7__cxx1112basic_stringIcSt11char_traitsIcESaIcEE6appendERKS4_
	.loc 8 1161 37
	leave
	.cfi_def_cfa 7, 8
	ret
	.cfi_endproc
.LFE14322:
	.size	_ZNSt7__cxx1112basic_stringIcSt11char_traitsIcESaIcEEpLERKS4_, .-_ZNSt7__cxx1112basic_stringIcSt11char_traitsIcESaIcEEpLERKS4_
	.section	.text._ZNKSt6vectorINSt7__cxx1112basic_stringIcSt11char_traitsIcESaIcEEESaIS5_EE4sizeEv,"axG",@progbits,_ZNKSt6vectorINSt7__cxx1112basic_stringIcSt11char_traitsIcESaIcEEESaIS5_EE4sizeEv,comdat
	.align 2
	.weak	_ZNKSt6vectorINSt7__cxx1112basic_stringIcSt11char_traitsIcESaIcEEESaIS5_EE4sizeEv
	.type	_ZNKSt6vectorINSt7__cxx1112basic_stringIcSt11char_traitsIcESaIcEEESaIS5_EE4sizeEv, @function
_ZNKSt6vectorINSt7__cxx1112basic_stringIcSt11char_traitsIcESaIcEEESaIS5_EE4sizeEv:
.LFB14323:
	.loc 19 918 7
	.cfi_startproc
	endbr64
	pushq	%rbp
	.cfi_def_cfa_offset 16
	.cfi_offset 6, -16
	movq	%rsp, %rbp
	.cfi_def_cfa_register 6
	movq	%rdi, -8(%rbp)
	.loc 19 919 40
	movq	-8(%rbp), %rax
	movq	8(%rax), %rdx
	.loc 19 919 66
	movq	-8(%rbp), %rax
	movq	(%rax), %rcx
	.loc 19 919 50
	movq	%rdx, %rax
	subq	%rcx, %rax
	sarq	$5, %rax
	.loc 19 919 77
	popq	%rbp
	.cfi_def_cfa 7, 8
	ret
	.cfi_endproc
.LFE14323:
	.size	_ZNKSt6vectorINSt7__cxx1112basic_stringIcSt11char_traitsIcESaIcEEESaIS5_EE4sizeEv, .-_ZNKSt6vectorINSt7__cxx1112basic_stringIcSt11char_traitsIcESaIcEEESaIS5_EE4sizeEv
	.section	.text._ZNSt7__cxx1112basic_stringIcSt11char_traitsIcESaIcEEaSERKS4_,"axG",@progbits,_ZNSt7__cxx1112basic_stringIcSt11char_traitsIcESaIcEEaSERKS4_,comdat
	.align 2
	.weak	_ZNSt7__cxx1112basic_stringIcSt11char_traitsIcESaIcEEaSERKS4_
	.type	_ZNSt7__cxx1112basic_stringIcSt11char_traitsIcESaIcEEaSERKS4_, @function
_ZNSt7__cxx1112basic_stringIcSt11char_traitsIcESaIcEEaSERKS4_:
.LFB14324:
	.loc 8 679 7
	.cfi_startproc
	endbr64
	pushq	%rbp
	.cfi_def_cfa_offset 16
	.cfi_offset 6, -16
	movq	%rsp, %rbp
	.cfi_def_cfa_register 6
	subq	$16, %rsp
	movq	%rdi, -8(%rbp)
	movq	%rsi, -16(%rbp)
	.loc 8 681 21
	movq	-16(%rbp), %rdx
	movq	-8(%rbp), %rax
	movq	%rdx, %rsi
	movq	%rax, %rdi
	call	_ZNSt7__cxx1112basic_stringIcSt11char_traitsIcESaIcEE6assignERKS4_
	.loc 8 682 7
	leave
	.cfi_def_cfa 7, 8
	ret
	.cfi_endproc
.LFE14324:
	.size	_ZNSt7__cxx1112basic_stringIcSt11char_traitsIcESaIcEEaSERKS4_, .-_ZNSt7__cxx1112basic_stringIcSt11char_traitsIcESaIcEEaSERKS4_
	.section	.text._ZSt12__miter_baseIPKcET_S2_,"axG",@progbits,_ZSt12__miter_baseIPKcET_S2_,comdat
	.weak	_ZSt12__miter_baseIPKcET_S2_
	.type	_ZSt12__miter_baseIPKcET_S2_, @function
_ZSt12__miter_baseIPKcET_S2_:
.LFB14325:
	.file 31 "/usr/include/c++/11/bits/cpp_type_traits.h"
	.loc 31 560 5
	.cfi_startproc
	endbr64
	pushq	%rbp
	.cfi_def_cfa_offset 16
	.cfi_offset 6, -16
	movq	%rsp, %rbp
	.cfi_def_cfa_register 6
	movq	%rdi, -8(%rbp)
	.loc 31 561 14
	movq	-8(%rbp), %rax
	.loc 31 561 20
	popq	%rbp
	.cfi_def_cfa 7, 8
	ret
	.cfi_endproc
.LFE14325:
	.size	_ZSt12__miter_baseIPKcET_S2_, .-_ZSt12__miter_baseIPKcET_S2_
	.section	.text._ZSt13__copy_move_aILb0EPKcPcET1_T0_S4_S3_,"axG",@progbits,_ZSt13__copy_move_aILb0EPKcPcET1_T0_S4_S3_,comdat
	.weak	_ZSt13__copy_move_aILb0EPKcPcET1_T0_S4_S3_
	.type	_ZSt13__copy_move_aILb0EPKcPcET1_T0_S4_S3_, @function
_ZSt13__copy_move_aILb0EPKcPcET1_T0_S4_S3_:
.LFB14326:
	.loc 5 527 5
	.cfi_startproc
	endbr64
	pushq	%rbp
	.cfi_def_cfa_offset 16
	.cfi_offset 6, -16
	movq	%rsp, %rbp
	.cfi_def_cfa_register 6
	pushq	%r12
	pushq	%rbx
	subq	$32, %rsp
	.cfi_offset 12, -24
	.cfi_offset 3, -32
	movq	%rdi, -24(%rbp)
	movq	%rsi, -32(%rbp)
	movq	%rdx, -40(%rbp)
	.loc 5 529 31
	movq	-40(%rbp), %rax
	movq	%rax, %rdi
	call	_ZSt12__niter_baseIPcET_S1_
	movq	%rax, %r12
	movq	-32(%rbp), %rax
	movq	%rax, %rdi
	call	_ZSt12__niter_baseIPKcET_S2_
	movq	%rax, %rbx
	movq	-24(%rbp), %rax
	movq	%rax, %rdi
	call	_ZSt12__niter_baseIPKcET_S2_
	movq	%r12, %rdx
	movq	%rbx, %rsi
	movq	%rax, %rdi
	call	_ZSt14__copy_move_a1ILb0EPKcPcET1_T0_S4_S3_
	movq	%rax, %rdx
	leaq	-40(%rbp), %rax
	movq	%rdx, %rsi
	movq	%rax, %rdi
	call	_ZSt12__niter_wrapIPcET_RKS1_S1_
	.loc 5 533 5
	addq	$32, %rsp
	popq	%rbx
	popq	%r12
	popq	%rbp
	.cfi_def_cfa 7, 8
	ret
	.cfi_endproc
.LFE14326:
	.size	_ZSt13__copy_move_aILb0EPKcPcET1_T0_S4_S3_, .-_ZSt13__copy_move_aILb0EPKcPcET1_T0_S4_S3_
	.section	.text._ZSt19__iterator_categoryIPcENSt15iterator_traitsIT_E17iterator_categoryERKS2_,"axG",@progbits,_ZSt19__iterator_categoryIPcENSt15iterator_traitsIT_E17iterator_categoryERKS2_,comdat
	.weak	_ZSt19__iterator_categoryIPcENSt15iterator_traitsIT_E17iterator_categoryERKS2_
	.type	_ZSt19__iterator_categoryIPcENSt15iterator_traitsIT_E17iterator_categoryERKS2_, @function
_ZSt19__iterator_categoryIPcENSt15iterator_traitsIT_E17iterator_categoryERKS2_:
.LFB14327:
	.file 32 "/usr/include/c++/11/bits/stl_iterator_base_types.h"
	.loc 32 238 5
	.cfi_startproc
	endbr64
	pushq	%rbp
	.cfi_def_cfa_offset 16
	.cfi_offset 6, -16
	movq	%rsp, %rbp
	.cfi_def_cfa_register 6
	movq	%rdi, -8(%rbp)
	.loc 32 239 68
	popq	%rbp
	.cfi_def_cfa 7, 8
	ret
	.cfi_endproc
.LFE14327:
	.size	_ZSt19__iterator_categoryIPcENSt15iterator_traitsIT_E17iterator_categoryERKS2_, .-_ZSt19__iterator_categoryIPcENSt15iterator_traitsIT_E17iterator_categoryERKS2_
	.section	.text._ZSt10__fill_n_aIPcmcET_S1_T0_RKT1_St26random_access_iterator_tag,"axG",@progbits,_ZSt10__fill_n_aIPcmcET_S1_T0_RKT1_St26random_access_iterator_tag,comdat
	.weak	_ZSt10__fill_n_aIPcmcET_S1_T0_RKT1_St26random_access_iterator_tag
	.type	_ZSt10__fill_n_aIPcmcET_S1_T0_RKT1_St26random_access_iterator_tag, @function
_ZSt10__fill_n_aIPcmcET_S1_T0_RKT1_St26random_access_iterator_tag:
.LFB14328:
	.loc 5 1109 5
	.cfi_startproc
	endbr64
	pushq	%rbp
	.cfi_def_cfa_offset 16
	.cfi_offset 6, -16
	movq	%rsp, %rbp
	.cfi_def_cfa_register 6
	subq	$32, %rsp
	movq	%rdi, -8(%rbp)
	movq	%rsi, -16(%rbp)
	movq	%rdx, -24(%rbp)
	.loc 5 1115 7
	cmpq	$0, -16(%rbp)
	jne	.L456
	.loc 5 1116 9
	movq	-8(%rbp), %rax
	jmp	.L457
.L456:
	.loc 5 1120 20
	movq	-8(%rbp), %rdx
	movq	-16(%rbp), %rax
	leaq	(%rdx,%rax), %rcx
	movq	-24(%rbp), %rdx
	movq	-8(%rbp), %rax
	movq	%rcx, %rsi
	movq	%rax, %rdi
	call	_ZSt8__fill_aIPccEvT_S1_RKT0_
	.loc 5 1121 24
	movq	-8(%rbp), %rdx
	movq	-16(%rbp), %rax
	addq	%rdx, %rax
.L457:
	.loc 5 1122 5
	leave
	.cfi_def_cfa 7, 8
	ret
	.cfi_endproc
.LFE14328:
	.size	_ZSt10__fill_n_aIPcmcET_S1_T0_RKT1_St26random_access_iterator_tag, .-_ZSt10__fill_n_aIPcmcET_S1_T0_RKT1_St26random_access_iterator_tag
	.section	.text._ZNKSt7__cxx1112basic_stringIcSt11char_traitsIcESaIcEE7_M_dataEv,"axG",@progbits,_ZNKSt7__cxx1112basic_stringIcSt11char_traitsIcESaIcEE7_M_dataEv,comdat
	.align 2
	.weak	_ZNKSt7__cxx1112basic_stringIcSt11char_traitsIcESaIcEE7_M_dataEv
	.type	_ZNKSt7__cxx1112basic_stringIcSt11char_traitsIcESaIcEE7_M_dataEv, @function
_ZNKSt7__cxx1112basic_stringIcSt11char_traitsIcESaIcEE7_M_dataEv:
.LFB14349:
	.loc 8 194 7
	.cfi_startproc
	endbr64
	pushq	%rbp
	.cfi_def_cfa_offset 16
	.cfi_offset 6, -16
	movq	%rsp, %rbp
	.cfi_def_cfa_register 6
	movq	%rdi, -8(%rbp)
	.loc 8 195 28
	movq	-8(%rbp), %rax
	movq	(%rax), %rax
	.loc 8 195 34
	popq	%rbp
	.cfi_def_cfa 7, 8
	ret
	.cfi_endproc
.LFE14349:
	.size	_ZNKSt7__cxx1112basic_stringIcSt11char_traitsIcESaIcEE7_M_dataEv, .-_ZNKSt7__cxx1112basic_stringIcSt11char_traitsIcESaIcEE7_M_dataEv
	.section	.text._ZNSt7__cxx1112basic_stringIcSt11char_traitsIcESaIcEE13_M_local_dataEv,"axG",@progbits,_ZNSt7__cxx1112basic_stringIcSt11char_traitsIcESaIcEE13_M_local_dataEv,comdat
	.align 2
	.weak	_ZNSt7__cxx1112basic_stringIcSt11char_traitsIcESaIcEE13_M_local_dataEv
	.type	_ZNSt7__cxx1112basic_stringIcSt11char_traitsIcESaIcEE13_M_local_dataEv, @function
_ZNSt7__cxx1112basic_stringIcSt11char_traitsIcESaIcEE13_M_local_dataEv:
.LFB14353:
	.loc 8 198 7
	.cfi_startproc
	endbr64
	pushq	%rbp
	.cfi_def_cfa_offset 16
	.cfi_offset 6, -16
	movq	%rsp, %rbp
	.cfi_def_cfa_register 6
	subq	$16, %rsp
	movq	%rdi, -8(%rbp)
	.loc 8 201 51
	movq	-8(%rbp), %rax
	addq	$16, %rax
	.loc 8 201 49
	movq	%rax, %rdi
	call	_ZNSt14pointer_traitsIPcE10pointer_toERc
	.loc 8 205 7
	leave
	.cfi_def_cfa 7, 8
	ret
	.cfi_endproc
.LFE14353:
	.size	_ZNSt7__cxx1112basic_stringIcSt11char_traitsIcESaIcEE13_M_local_dataEv, .-_ZNSt7__cxx1112basic_stringIcSt11char_traitsIcESaIcEE13_M_local_dataEv
	.section	.text._ZNSt7__cxx1112basic_stringIcSt11char_traitsIcESaIcEE12_Alloc_hiderC2EPcRKS3_,"axG",@progbits,_ZNSt7__cxx1112basic_stringIcSt11char_traitsIcESaIcEE12_Alloc_hiderC5EPcRKS3_,comdat
	.align 2
	.weak	_ZNSt7__cxx1112basic_stringIcSt11char_traitsIcESaIcEE12_Alloc_hiderC2EPcRKS3_
	.type	_ZNSt7__cxx1112basic_stringIcSt11char_traitsIcESaIcEE12_Alloc_hiderC2EPcRKS3_, @function
_ZNSt7__cxx1112basic_stringIcSt11char_traitsIcESaIcEE12_Alloc_hiderC2EPcRKS3_:
.LFB14355:
	.loc 8 164 2
	.cfi_startproc
	endbr64
	pushq	%rbp
	.cfi_def_cfa_offset 16
	.cfi_offset 6, -16
	movq	%rsp, %rbp
	.cfi_def_cfa_register 6
	subq	$32, %rsp
	movq	%rdi, -8(%rbp)
	movq	%rsi, -16(%rbp)
	movq	%rdx, -24(%rbp)
.LBB108:
	.loc 8 165 35
	movq	-24(%rbp), %rdx
	movq	-8(%rbp), %rax
	movq	%rdx, %rsi
	movq	%rax, %rdi
	call	_ZNSaIcEC2ERKS_@PLT
	.loc 8 165 25
	movq	-8(%rbp), %rax
	movq	-16(%rbp), %rdx
	movq	%rdx, (%rax)
.LBE108:
	.loc 8 165 39
	nop
	leave
	.cfi_def_cfa 7, 8
	ret
	.cfi_endproc
.LFE14355:
	.size	_ZNSt7__cxx1112basic_stringIcSt11char_traitsIcESaIcEE12_Alloc_hiderC2EPcRKS3_, .-_ZNSt7__cxx1112basic_stringIcSt11char_traitsIcESaIcEE12_Alloc_hiderC2EPcRKS3_
	.weak	_ZNSt7__cxx1112basic_stringIcSt11char_traitsIcESaIcEE12_Alloc_hiderC1EPcRKS3_
	.set	_ZNSt7__cxx1112basic_stringIcSt11char_traitsIcESaIcEE12_Alloc_hiderC1EPcRKS3_,_ZNSt7__cxx1112basic_stringIcSt11char_traitsIcESaIcEE12_Alloc_hiderC2EPcRKS3_
	.section	.text._ZNSt7__cxx1112basic_stringIcSt11char_traitsIcESaIcEE12_M_constructEmc,"axG",@progbits,_ZNSt7__cxx1112basic_stringIcSt11char_traitsIcESaIcEE12_M_constructEmc,comdat
	.align 2
	.weak	_ZNSt7__cxx1112basic_stringIcSt11char_traitsIcESaIcEE12_M_constructEmc
	.type	_ZNSt7__cxx1112basic_stringIcSt11char_traitsIcESaIcEE12_M_constructEmc, @function
_ZNSt7__cxx1112basic_stringIcSt11char_traitsIcESaIcEE12_M_constructEmc:
.LFB14357:
	.file 33 "/usr/include/c++/11/bits/basic_string.tcc"
	.loc 33 237 5
	.cfi_startproc
	endbr64
	pushq	%rbp
	.cfi_def_cfa_offset 16
	.cfi_offset 6, -16
	movq	%rsp, %rbp
	.cfi_def_cfa_register 6
	pushq	%r12
	pushq	%rbx
	subq	$32, %rsp
	.cfi_offset 12, -24
	.cfi_offset 3, -32
	movq	%rdi, -24(%rbp)
	movq	%rsi, -32(%rbp)
	movl	%edx, %eax
	movb	%al, -36(%rbp)
	.loc 33 240 15
	movq	-32(%rbp), %rax
	.loc 33 240 7
	cmpq	$15, %rax
	jbe	.L464
	.loc 33 242 11
	leaq	-32(%rbp), %rcx
	movq	-24(%rbp), %rax
	movl	$0, %edx
	movq	%rcx, %rsi
	movq	%rax, %rdi
	call	_ZNSt7__cxx1112basic_stringIcSt11char_traitsIcESaIcEE9_M_createERmm
	movq	%rax, %rdx
	movq	-24(%rbp), %rax
	movq	%rdx, %rsi
	movq	%rax, %rdi
	call	_ZNSt7__cxx1112basic_stringIcSt11char_traitsIcESaIcEE7_M_dataEPc
	.loc 33 243 15
	movq	-32(%rbp), %rdx
	movq	-24(%rbp), %rax
	movq	%rdx, %rsi
	movq	%rax, %rdi
	call	_ZNSt7__cxx1112basic_stringIcSt11char_traitsIcESaIcEE11_M_capacityEm
.L464:
	.loc 33 246 11
	movq	-32(%rbp), %rax
	.loc 33 246 7
	testq	%rax, %rax
	je	.L465
	.loc 33 247 17
	movsbl	-36(%rbp), %r12d
	movq	-32(%rbp), %rbx
	movq	-24(%rbp), %rax
	movq	%rax, %rdi
	call	_ZNKSt7__cxx1112basic_stringIcSt11char_traitsIcESaIcEE7_M_dataEv
	movl	%r12d, %edx
	movq	%rbx, %rsi
	movq	%rax, %rdi
	call	_ZNSt7__cxx1112basic_stringIcSt11char_traitsIcESaIcEE9_S_assignEPcmc
.L465:
	.loc 33 249 20
	movq	-32(%rbp), %rdx
	movq	-24(%rbp), %rax
	movq	%rdx, %rsi
	movq	%rax, %rdi
	call	_ZNSt7__cxx1112basic_stringIcSt11char_traitsIcESaIcEE13_M_set_lengthEm
	.loc 33 250 5
	nop
	addq	$32, %rsp
	popq	%rbx
	popq	%r12
	popq	%rbp
	.cfi_def_cfa 7, 8
	ret
	.cfi_endproc
.LFE14357:
	.size	_ZNSt7__cxx1112basic_stringIcSt11char_traitsIcESaIcEE12_M_constructEmc, .-_ZNSt7__cxx1112basic_stringIcSt11char_traitsIcESaIcEE12_M_constructEmc
	.section	.text._ZNSt7__cxx1112basic_stringIcSt11char_traitsIcESaIcEE10_M_disposeEv,"axG",@progbits,_ZNSt7__cxx1112basic_stringIcSt11char_traitsIcESaIcEE10_M_disposeEv,comdat
	.align 2
	.weak	_ZNSt7__cxx1112basic_stringIcSt11char_traitsIcESaIcEE10_M_disposeEv
	.type	_ZNSt7__cxx1112basic_stringIcSt11char_traitsIcESaIcEE10_M_disposeEv, @function
_ZNSt7__cxx1112basic_stringIcSt11char_traitsIcESaIcEE10_M_disposeEv:
.LFB14358:
	.loc 8 237 7
	.cfi_startproc
	endbr64
	pushq	%rbp
	.cfi_def_cfa_offset 16
	.cfi_offset 6, -16
	movq	%rsp, %rbp
	.cfi_def_cfa_register 6
	subq	$16, %rsp
	movq	%rdi, -8(%rbp)
	.loc 8 239 18
	movq	-8(%rbp), %rax
	movq	%rax, %rdi
	call	_ZNKSt7__cxx1112basic_stringIcSt11char_traitsIcESaIcEE11_M_is_localEv
	xorl	$1, %eax
	.loc 8 239 2
	testb	%al, %al
	je	.L468
	.loc 8 240 14
	movq	-8(%rbp), %rax
	movq	16(%rax), %rdx
	movq	-8(%rbp), %rax
	movq	%rdx, %rsi
	movq	%rax, %rdi
	call	_ZNSt7__cxx1112basic_stringIcSt11char_traitsIcESaIcEE10_M_destroyEm
.L468:
	.loc 8 241 7
	nop
	leave
	.cfi_def_cfa 7, 8
	ret
	.cfi_endproc
.LFE14358:
	.size	_ZNSt7__cxx1112basic_stringIcSt11char_traitsIcESaIcEE10_M_disposeEv, .-_ZNSt7__cxx1112basic_stringIcSt11char_traitsIcESaIcEE10_M_disposeEv
	.section	.text._ZNSt7__cxx1112basic_stringIcSt11char_traitsIcESaIcEE16_M_get_allocatorEv,"axG",@progbits,_ZNSt7__cxx1112basic_stringIcSt11char_traitsIcESaIcEE16_M_get_allocatorEv,comdat
	.align 2
	.weak	_ZNSt7__cxx1112basic_stringIcSt11char_traitsIcESaIcEE16_M_get_allocatorEv
	.type	_ZNSt7__cxx1112basic_stringIcSt11char_traitsIcESaIcEE16_M_get_allocatorEv, @function
_ZNSt7__cxx1112basic_stringIcSt11char_traitsIcESaIcEE16_M_get_allocatorEv:
.LFB14359:
	.loc 8 294 7
	.cfi_startproc
	endbr64
	pushq	%rbp
	.cfi_def_cfa_offset 16
	.cfi_offset 6, -16
	movq	%rsp, %rbp
	.cfi_def_cfa_register 6
	movq	%rdi, -8(%rbp)
	.loc 8 295 16
	movq	-8(%rbp), %rax
	.loc 8 295 29
	popq	%rbp
	.cfi_def_cfa 7, 8
	ret
	.cfi_endproc
.LFE14359:
	.size	_ZNSt7__cxx1112basic_stringIcSt11char_traitsIcESaIcEE16_M_get_allocatorEv, .-_ZNSt7__cxx1112basic_stringIcSt11char_traitsIcESaIcEE16_M_get_allocatorEv
	.section	.text._ZSt4moveIRSaIcEEONSt16remove_referenceIT_E4typeEOS3_,"axG",@progbits,_ZSt4moveIRSaIcEEONSt16remove_referenceIT_E4typeEOS3_,comdat
	.weak	_ZSt4moveIRSaIcEEONSt16remove_referenceIT_E4typeEOS3_
	.type	_ZSt4moveIRSaIcEEONSt16remove_referenceIT_E4typeEOS3_, @function
_ZSt4moveIRSaIcEEONSt16remove_referenceIT_E4typeEOS3_:
.LFB14360:
	.loc 23 104 5
	.cfi_startproc
	endbr64
	pushq	%rbp
	.cfi_def_cfa_offset 16
	.cfi_offset 6, -16
	movq	%rsp, %rbp
	.cfi_def_cfa_register 6
	movq	%rdi, -8(%rbp)
	.loc 23 105 74
	movq	-8(%rbp), %rax
	.loc 23 105 77
	popq	%rbp
	.cfi_def_cfa 7, 8
	ret
	.cfi_endproc
.LFE14360:
	.size	_ZSt4moveIRSaIcEEONSt16remove_referenceIT_E4typeEOS3_, .-_ZSt4moveIRSaIcEEONSt16remove_referenceIT_E4typeEOS3_
	.section	.text._ZNSt7__cxx1112basic_stringIcSt11char_traitsIcESaIcEE12_Alloc_hiderC2EPcOS3_,"axG",@progbits,_ZNSt7__cxx1112basic_stringIcSt11char_traitsIcESaIcEE12_Alloc_hiderC5EPcOS3_,comdat
	.align 2
	.weak	_ZNSt7__cxx1112basic_stringIcSt11char_traitsIcESaIcEE12_Alloc_hiderC2EPcOS3_
	.type	_ZNSt7__cxx1112basic_stringIcSt11char_traitsIcESaIcEE12_Alloc_hiderC2EPcOS3_, @function
_ZNSt7__cxx1112basic_stringIcSt11char_traitsIcESaIcEE12_Alloc_hiderC2EPcOS3_:
.LFB14362:
	.loc 8 167 2
	.cfi_startproc
	endbr64
	pushq	%rbp
	.cfi_def_cfa_offset 16
	.cfi_offset 6, -16
	movq	%rsp, %rbp
	.cfi_def_cfa_register 6
	subq	$32, %rsp
	movq	%rdi, -8(%rbp)
	movq	%rsi, -16(%rbp)
	movq	%rdx, -24(%rbp)
.LBB109:
	.loc 8 168 28
	movq	-24(%rbp), %rax
	movq	%rax, %rdi
	call	_ZSt4moveIRSaIcEEONSt16remove_referenceIT_E4typeEOS3_
	movq	%rax, %rdx
	.loc 8 168 46
	movq	-8(%rbp), %rax
	movq	%rdx, %rsi
	movq	%rax, %rdi
	call	_ZNSaIcEC2ERKS_@PLT
	.loc 8 168 36
	movq	-8(%rbp), %rax
	movq	-16(%rbp), %rdx
	movq	%rdx, (%rax)
.LBE109:
	.loc 8 168 50
	nop
	leave
	.cfi_def_cfa 7, 8
	ret
	.cfi_endproc
.LFE14362:
	.size	_ZNSt7__cxx1112basic_stringIcSt11char_traitsIcESaIcEE12_Alloc_hiderC2EPcOS3_, .-_ZNSt7__cxx1112basic_stringIcSt11char_traitsIcESaIcEE12_Alloc_hiderC2EPcOS3_
	.weak	_ZNSt7__cxx1112basic_stringIcSt11char_traitsIcESaIcEE12_Alloc_hiderC1EPcOS3_
	.set	_ZNSt7__cxx1112basic_stringIcSt11char_traitsIcESaIcEE12_Alloc_hiderC1EPcOS3_,_ZNSt7__cxx1112basic_stringIcSt11char_traitsIcESaIcEE12_Alloc_hiderC2EPcOS3_
	.section	.text._ZNKSt7__cxx1112basic_stringIcSt11char_traitsIcESaIcEE11_M_is_localEv,"axG",@progbits,_ZNKSt7__cxx1112basic_stringIcSt11char_traitsIcESaIcEE11_M_is_localEv,comdat
	.align 2
	.weak	_ZNKSt7__cxx1112basic_stringIcSt11char_traitsIcESaIcEE11_M_is_localEv
	.type	_ZNKSt7__cxx1112basic_stringIcSt11char_traitsIcESaIcEE11_M_is_localEv, @function
_ZNKSt7__cxx1112basic_stringIcSt11char_traitsIcESaIcEE11_M_is_localEv:
.LFB14364:
	.loc 8 229 7
	.cfi_startproc
	endbr64
	pushq	%rbp
	.cfi_def_cfa_offset 16
	.cfi_offset 6, -16
	movq	%rsp, %rbp
	.cfi_def_cfa_register 6
	pushq	%rbx
	subq	$24, %rsp
	.cfi_offset 3, -24
	movq	%rdi, -24(%rbp)
	.loc 8 230 23
	movq	-24(%rbp), %rax
	movq	%rax, %rdi
	call	_ZNKSt7__cxx1112basic_stringIcSt11char_traitsIcESaIcEE7_M_dataEv
	movq	%rax, %rbx
	.loc 8 230 42
	movq	-24(%rbp), %rax
	movq	%rax, %rdi
	call	_ZNKSt7__cxx1112basic_stringIcSt11char_traitsIcESaIcEE13_M_local_dataEv
	.loc 8 230 43
	cmpq	%rax, %rbx
	sete	%al
	.loc 8 230 46
	movq	-8(%rbp), %rbx
	leave
	.cfi_def_cfa 7, 8
	ret
	.cfi_endproc
.LFE14364:
	.size	_ZNKSt7__cxx1112basic_stringIcSt11char_traitsIcESaIcEE11_M_is_localEv, .-_ZNKSt7__cxx1112basic_stringIcSt11char_traitsIcESaIcEE11_M_is_localEv
	.section	.text._ZNSt7__cxx1112basic_stringIcSt11char_traitsIcESaIcEE7_M_dataEPc,"axG",@progbits,_ZNSt7__cxx1112basic_stringIcSt11char_traitsIcESaIcEE7_M_dataEPc,comdat
	.align 2
	.weak	_ZNSt7__cxx1112basic_stringIcSt11char_traitsIcESaIcEE7_M_dataEPc
	.type	_ZNSt7__cxx1112basic_stringIcSt11char_traitsIcESaIcEE7_M_dataEPc, @function
_ZNSt7__cxx1112basic_stringIcSt11char_traitsIcESaIcEE7_M_dataEPc:
.LFB14365:
	.loc 8 186 7
	.cfi_startproc
	endbr64
	pushq	%rbp
	.cfi_def_cfa_offset 16
	.cfi_offset 6, -16
	movq	%rsp, %rbp
	.cfi_def_cfa_register 6
	movq	%rdi, -8(%rbp)
	movq	%rsi, -16(%rbp)
	.loc 8 187 26
	movq	-8(%rbp), %rax
	movq	-16(%rbp), %rdx
	movq	%rdx, (%rax)
	.loc 8 187 33
	nop
	popq	%rbp
	.cfi_def_cfa 7, 8
	ret
	.cfi_endproc
.LFE14365:
	.size	_ZNSt7__cxx1112basic_stringIcSt11char_traitsIcESaIcEE7_M_dataEPc, .-_ZNSt7__cxx1112basic_stringIcSt11char_traitsIcESaIcEE7_M_dataEPc
	.section	.text._ZNSt7__cxx1112basic_stringIcSt11char_traitsIcESaIcEE11_M_capacityEm,"axG",@progbits,_ZNSt7__cxx1112basic_stringIcSt11char_traitsIcESaIcEE11_M_capacityEm,comdat
	.align 2
	.weak	_ZNSt7__cxx1112basic_stringIcSt11char_traitsIcESaIcEE11_M_capacityEm
	.type	_ZNSt7__cxx1112basic_stringIcSt11char_traitsIcESaIcEE11_M_capacityEm, @function
_ZNSt7__cxx1112basic_stringIcSt11char_traitsIcESaIcEE11_M_capacityEm:
.LFB14366:
	.loc 8 218 7
	.cfi_startproc
	endbr64
	pushq	%rbp
	.cfi_def_cfa_offset 16
	.cfi_offset 6, -16
	movq	%rsp, %rbp
	.cfi_def_cfa_register 6
	movq	%rdi, -8(%rbp)
	movq	%rsi, -16(%rbp)
	.loc 8 219 31
	movq	-8(%rbp), %rax
	movq	-16(%rbp), %rdx
	movq	%rdx, 16(%rax)
	.loc 8 219 45
	nop
	popq	%rbp
	.cfi_def_cfa 7, 8
	ret
	.cfi_endproc
.LFE14366:
	.size	_ZNSt7__cxx1112basic_stringIcSt11char_traitsIcESaIcEE11_M_capacityEm, .-_ZNSt7__cxx1112basic_stringIcSt11char_traitsIcESaIcEE11_M_capacityEm
	.section	.text._ZNSt7__cxx1112basic_stringIcSt11char_traitsIcESaIcEE9_M_lengthEm,"axG",@progbits,_ZNSt7__cxx1112basic_stringIcSt11char_traitsIcESaIcEE9_M_lengthEm,comdat
	.align 2
	.weak	_ZNSt7__cxx1112basic_stringIcSt11char_traitsIcESaIcEE9_M_lengthEm
	.type	_ZNSt7__cxx1112basic_stringIcSt11char_traitsIcESaIcEE9_M_lengthEm, @function
_ZNSt7__cxx1112basic_stringIcSt11char_traitsIcESaIcEE9_M_lengthEm:
.LFB14367:
	.loc 8 190 7
	.cfi_startproc
	endbr64
	pushq	%rbp
	.cfi_def_cfa_offset 16
	.cfi_offset 6, -16
	movq	%rsp, %rbp
	.cfi_def_cfa_register 6
	movq	%rdi, -8(%rbp)
	movq	%rsi, -16(%rbp)
	.loc 8 191 26
	movq	-8(%rbp), %rax
	movq	-16(%rbp), %rdx
	movq	%rdx, 8(%rax)
	.loc 8 191 38
	nop
	popq	%rbp
	.cfi_def_cfa 7, 8
	ret
	.cfi_endproc
.LFE14367:
	.size	_ZNSt7__cxx1112basic_stringIcSt11char_traitsIcESaIcEE9_M_lengthEm, .-_ZNSt7__cxx1112basic_stringIcSt11char_traitsIcESaIcEE9_M_lengthEm
	.section	.text._ZNSt7__cxx1112basic_stringIcSt11char_traitsIcESaIcEE13_M_set_lengthEm,"axG",@progbits,_ZNSt7__cxx1112basic_stringIcSt11char_traitsIcESaIcEE13_M_set_lengthEm,comdat
	.align 2
	.weak	_ZNSt7__cxx1112basic_stringIcSt11char_traitsIcESaIcEE13_M_set_lengthEm
	.type	_ZNSt7__cxx1112basic_stringIcSt11char_traitsIcESaIcEE13_M_set_lengthEm, @function
_ZNSt7__cxx1112basic_stringIcSt11char_traitsIcESaIcEE13_M_set_lengthEm:
.LFB14368:
	.loc 8 222 7
	.cfi_startproc
	endbr64
	pushq	%rbp
	.cfi_def_cfa_offset 16
	.cfi_offset 6, -16
	movq	%rsp, %rbp
	.cfi_def_cfa_register 6
	subq	$32, %rsp
	movq	%rdi, -24(%rbp)
	movq	%rsi, -32(%rbp)
	.loc 8 222 7
	movq	%fs:40, %rax
	movq	%rax, -8(%rbp)
	xorl	%eax, %eax
	.loc 8 224 11
	movq	-32(%rbp), %rdx
	movq	-24(%rbp), %rax
	movq	%rdx, %rsi
	movq	%rax, %rdi
	call	_ZNSt7__cxx1112basic_stringIcSt11char_traitsIcESaIcEE9_M_lengthEm
	.loc 8 225 21
	movb	$0, -9(%rbp)
	.loc 8 225 29
	movq	-24(%rbp), %rax
	movq	%rax, %rdi
	call	_ZNKSt7__cxx1112basic_stringIcSt11char_traitsIcESaIcEE7_M_dataEv
	.loc 8 225 31
	movq	-32(%rbp), %rdx
	addq	%rax, %rdx
	.loc 8 225 21
	leaq	-9(%rbp), %rax
	movq	%rax, %rsi
	movq	%rdx, %rdi
	call	_ZNSt11char_traitsIcE6assignERcRKc
	.loc 8 226 7
	nop
	movq	-8(%rbp), %rax
	subq	%fs:40, %rax
	je	.L480
	call	__stack_chk_fail@PLT
.L480:
	leave
	.cfi_def_cfa 7, 8
	ret
	.cfi_endproc
.LFE14368:
	.size	_ZNSt7__cxx1112basic_stringIcSt11char_traitsIcESaIcEE13_M_set_lengthEm, .-_ZNSt7__cxx1112basic_stringIcSt11char_traitsIcESaIcEE13_M_set_lengthEm
	.section	.rodata
.LC24:
	.string	"basic_string::append"
	.section	.text._ZNSt7__cxx1112basic_stringIcSt11char_traitsIcESaIcEE6appendEPKc,"axG",@progbits,_ZNSt7__cxx1112basic_stringIcSt11char_traitsIcESaIcEE6appendEPKc,comdat
	.align 2
	.weak	_ZNSt7__cxx1112basic_stringIcSt11char_traitsIcESaIcEE6appendEPKc
	.type	_ZNSt7__cxx1112basic_stringIcSt11char_traitsIcESaIcEE6appendEPKc, @function
_ZNSt7__cxx1112basic_stringIcSt11char_traitsIcESaIcEE6appendEPKc:
.LFB14416:
	.loc 8 1255 7
	.cfi_startproc
	endbr64
	pushq	%rbp
	.cfi_def_cfa_offset 16
	.cfi_offset 6, -16
	movq	%rsp, %rbp
	.cfi_def_cfa_register 6
	subq	$32, %rsp
	movq	%rdi, -24(%rbp)
	movq	%rsi, -32(%rbp)
	.loc 8 1258 43
	movq	-32(%rbp), %rax
	movq	%rax, %rdi
	call	_ZNSt11char_traitsIcE6lengthEPKc
	movq	%rax, -8(%rbp)
	.loc 8 1259 17
	movq	-8(%rbp), %rdx
	movq	-24(%rbp), %rax
	leaq	.LC24(%rip), %rcx
	movl	$0, %esi
	movq	%rax, %rdi
	call	_ZNKSt7__cxx1112basic_stringIcSt11char_traitsIcESaIcEE15_M_check_lengthEmmPKc
	.loc 8 1260 18
	movq	-8(%rbp), %rdx
	movq	-32(%rbp), %rcx
	movq	-24(%rbp), %rax
	movq	%rcx, %rsi
	movq	%rax, %rdi
	call	_ZNSt7__cxx1112basic_stringIcSt11char_traitsIcESaIcEE9_M_appendEPKcm
	.loc 8 1261 7
	leave
	.cfi_def_cfa 7, 8
	ret
	.cfi_endproc
.LFE14416:
